
demo:     file format elf32-littlearm


Disassembly of section .text:

00000040 <_ada_demo>:
      40:	e92d 47f0 	stmdb	sp!, {r4, r5, r6, r7, r8, r9, sl, lr}
      44:	b08a      	sub	sp, #40	; 0x28
      46:	af00      	add	r7, sp, #0
      48:	2300      	movs	r3, #0
      4a:	627b      	str	r3, [r7, #36]	; 0x24
      4c:	466b      	mov	r3, sp
      4e:	469a      	mov	sl, r3
      50:	1d3b      	adds	r3, r7, #4
      52:	461c      	mov	r4, r3
      54:	f644 25dc 	movw	r5, #19164	; 0x4adc
      58:	f2c0 0500 	movt	r5, #0
      5c:	6a78      	ldr	r0, [r7, #36]	; 0x24
      5e:	4622      	mov	r2, r4
      60:	462b      	mov	r3, r5
      62:	f004 fadb 	bl	461c <system__img_int__image_integer>
      66:	4603      	mov	r3, r0
      68:	ea23 73e3 	bic.w	r3, r3, r3, asr #31
      6c:	f103 0e0c 	add.w	lr, r3, #12
      70:	f8c7 e020 	str.w	lr, [r7, #32]
      74:	6a3b      	ldr	r3, [r7, #32]
      76:	ea23 73e3 	bic.w	r3, r3, r3, asr #31
      7a:	61fb      	str	r3, [r7, #28]
      7c:	6a3b      	ldr	r3, [r7, #32]
      7e:	ea23 73e3 	bic.w	r3, r3, r3, asr #31
      82:	3307      	adds	r3, #7
      84:	08db      	lsrs	r3, r3, #3
      86:	00db      	lsls	r3, r3, #3
      88:	ebad 0d03 	sub.w	sp, sp, r3
      8c:	466b      	mov	r3, sp
      8e:	3300      	adds	r3, #0
      90:	61bb      	str	r3, [r7, #24]
      92:	69ba      	ldr	r2, [r7, #24]
      94:	f644 23e4 	movw	r3, #19172	; 0x4ae4
      98:	f2c0 0300 	movt	r3, #0
      9c:	4616      	mov	r6, r2
      9e:	cb07      	ldmia	r3!, {r0, r1, r2}
      a0:	6030      	str	r0, [r6, #0]
      a2:	6071      	str	r1, [r6, #4]
      a4:	60b2      	str	r2, [r6, #8]
      a6:	4673      	mov	r3, lr
      a8:	2b0c      	cmp	r3, #12
      aa:	bfb8      	it	lt
      ac:	230c      	movlt	r3, #12
      ae:	f1a3 020c 	sub.w	r2, r3, #12
      b2:	69bb      	ldr	r3, [r7, #24]
      b4:	f103 010c 	add.w	r1, r3, #12
      b8:	1d3b      	adds	r3, r7, #4
      ba:	4608      	mov	r0, r1
      bc:	4619      	mov	r1, r3
      be:	4613      	mov	r3, r2
      c0:	461a      	mov	r2, r3
      c2:	f004 f9e1 	bl	4488 <memcpy>
      c6:	69bb      	ldr	r3, [r7, #24]
      c8:	4698      	mov	r8, r3
      ca:	2301      	movs	r3, #1
      cc:	613b      	str	r3, [r7, #16]
      ce:	6a3b      	ldr	r3, [r7, #32]
      d0:	617b      	str	r3, [r7, #20]
      d2:	f107 0310 	add.w	r3, r7, #16
      d6:	4699      	mov	r9, r3
      d8:	4640      	mov	r0, r8
      da:	4649      	mov	r1, r9
      dc:	f004 f9c2 	bl	4464 <ada__text_io__put_line>
      e0:	46d5      	mov	sp, sl
      e2:	6a7b      	ldr	r3, [r7, #36]	; 0x24
      e4:	f06f 4200 	mvn.w	r2, #2147483648	; 0x80000000
      e8:	4293      	cmp	r3, r2
      ea:	d106      	bne.n	fa <_ada_demo+0xba>
      ec:	f644 20d0 	movw	r0, #19152	; 0x4ad0
      f0:	f2c0 0000 	movt	r0, #0
      f4:	212e      	movs	r1, #46	; 0x2e
      f6:	f000 ffd5 	bl	10a4 <__gnat_last_chance_handler>
      fa:	6a7b      	ldr	r3, [r7, #36]	; 0x24
      fc:	3301      	adds	r3, #1
      fe:	627b      	str	r3, [r7, #36]	; 0x24
     100:	bf00      	nop
     102:	e7a3      	b.n	4c <_ada_demo+0xc>

00000104 <adainit>:
     104:	b580      	push	{r7, lr}
     106:	af00      	add	r7, sp, #0
     108:	f240 035c 	movw	r3, #92	; 0x5c
     10c:	f6c0 0300 	movt	r3, #2048	; 0x800
     110:	2200      	movs	r2, #0
     112:	601a      	str	r2, [r3, #0]
     114:	f004 f9ae 	bl	4474 <ada__text_io___elabb>
     118:	f240 03a8 	movw	r3, #168	; 0xa8
     11c:	f6c0 0300 	movt	r3, #2048	; 0x800
     120:	881b      	ldrh	r3, [r3, #0]
     122:	b29b      	uxth	r3, r3
     124:	3301      	adds	r3, #1
     126:	b29a      	uxth	r2, r3
     128:	f240 03a8 	movw	r3, #168	; 0xa8
     12c:	f6c0 0300 	movt	r3, #2048	; 0x800
     130:	801a      	strh	r2, [r3, #0]
     132:	f002 fd3b 	bl	2bac <ada__real_time___elabs>
     136:	f002 fd37 	bl	2ba8 <ada__real_time___elabb>
     13a:	f240 0358 	movw	r3, #88	; 0x58
     13e:	f6c0 0300 	movt	r3, #2048	; 0x800
     142:	881b      	ldrh	r3, [r3, #0]
     144:	b29b      	uxth	r3, r3
     146:	3301      	adds	r3, #1
     148:	b29a      	uxth	r2, r3
     14a:	f240 0358 	movw	r3, #88	; 0x58
     14e:	f6c0 0300 	movt	r3, #2048	; 0x800
     152:	801a      	strh	r2, [r3, #0]
     154:	f001 fa1c 	bl	1590 <system__tasking__restricted__stages___elabb>
     158:	f240 0320 	movw	r3, #32
     15c:	f6c0 0300 	movt	r3, #2048	; 0x800
     160:	881b      	ldrh	r3, [r3, #0]
     162:	b29b      	uxth	r3, r3
     164:	3301      	adds	r3, #1
     166:	b29a      	uxth	r2, r3
     168:	f240 0320 	movw	r3, #32
     16c:	f6c0 0300 	movt	r3, #2048	; 0x800
     170:	801a      	strh	r2, [r3, #0]
     172:	f000 f8f1 	bl	358 <sys__flash___elabs>
     176:	f240 0302 	movw	r3, #2
     17a:	f6c0 0300 	movt	r3, #2048	; 0x800
     17e:	881b      	ldrh	r3, [r3, #0]
     180:	b29b      	uxth	r3, r3
     182:	3301      	adds	r3, #1
     184:	b29a      	uxth	r2, r3
     186:	f240 0302 	movw	r3, #2
     18a:	f6c0 0300 	movt	r3, #2048	; 0x800
     18e:	801a      	strh	r2, [r3, #0]
     190:	f000 ff50 	bl	1034 <driver___elabs>
     194:	f000 ff32 	bl	ffc <driver___elabb>
     198:	f240 0308 	movw	r3, #8
     19c:	f6c0 0300 	movt	r3, #2048	; 0x800
     1a0:	881b      	ldrh	r3, [r3, #0]
     1a2:	b29b      	uxth	r3, r3
     1a4:	3301      	adds	r3, #1
     1a6:	b29a      	uxth	r2, r3
     1a8:	f240 0308 	movw	r3, #8
     1ac:	f6c0 0300 	movt	r3, #2048	; 0x800
     1b0:	801a      	strh	r2, [r3, #0]
     1b2:	f240 031c 	movw	r3, #28
     1b6:	f6c0 0300 	movt	r3, #2048	; 0x800
     1ba:	881b      	ldrh	r3, [r3, #0]
     1bc:	b29b      	uxth	r3, r3
     1be:	3301      	adds	r3, #1
     1c0:	b29a      	uxth	r2, r3
     1c2:	f240 031c 	movw	r3, #28
     1c6:	f6c0 0300 	movt	r3, #2048	; 0x800
     1ca:	801a      	strh	r2, [r3, #0]
     1cc:	f240 031e 	movw	r3, #30
     1d0:	f6c0 0300 	movt	r3, #2048	; 0x800
     1d4:	881b      	ldrh	r3, [r3, #0]
     1d6:	b29b      	uxth	r3, r3
     1d8:	3301      	adds	r3, #1
     1da:	b29a      	uxth	r2, r3
     1dc:	f240 031e 	movw	r3, #30
     1e0:	f6c0 0300 	movt	r3, #2048	; 0x800
     1e4:	801a      	strh	r2, [r3, #0]
     1e6:	bd80      	pop	{r7, pc}

000001e8 <main>:
     1e8:	b580      	push	{r7, lr}
     1ea:	b082      	sub	sp, #8
     1ec:	af00      	add	r7, sp, #0
     1ee:	f644 3318 	movw	r3, #19224	; 0x4b18
     1f2:	f2c0 0300 	movt	r3, #0
     1f6:	607b      	str	r3, [r7, #4]
     1f8:	f7ff ff84 	bl	104 <adainit>
     1fc:	f7ff ff20 	bl	40 <_ada_demo>
     200:	3708      	adds	r7, #8
     202:	46bd      	mov	sp, r7
     204:	bd80      	pop	{r7, pc}
     206:	bf00      	nop

00000208 <sys__flash__Trsvd_flash2BIP>:
     208:	b480      	push	{r7}
     20a:	b083      	sub	sp, #12
     20c:	af00      	add	r7, sp, #0
     20e:	e9c7 0100 	strd	r0, r1, [r7]
     212:	370c      	adds	r7, #12
     214:	46bd      	mov	sp, r7
     216:	f85d 7b04 	ldr.w	r7, [sp], #4
     21a:	4770      	bx	lr

0000021c <sys__flash__Trsvd_flash7BIP>:
     21c:	b480      	push	{r7}
     21e:	b083      	sub	sp, #12
     220:	af00      	add	r7, sp, #0
     222:	e9c7 0100 	strd	r0, r1, [r7]
     226:	370c      	adds	r7, #12
     228:	46bd      	mov	sp, r7
     22a:	f85d 7b04 	ldr.w	r7, [sp], #4
     22e:	4770      	bx	lr

00000230 <sys__flash__Trsvd_flash9BIP>:
     230:	b480      	push	{r7}
     232:	b083      	sub	sp, #12
     234:	af00      	add	r7, sp, #0
     236:	e9c7 0100 	strd	r0, r1, [r7]
     23a:	370c      	adds	r7, #12
     23c:	46bd      	mov	sp, r7
     23e:	f85d 7b04 	ldr.w	r7, [sp], #4
     242:	4770      	bx	lr

00000244 <sys__flash__Trsvd_flash10BIP>:
     244:	b480      	push	{r7}
     246:	b083      	sub	sp, #12
     248:	af00      	add	r7, sp, #0
     24a:	e9c7 0100 	strd	r0, r1, [r7]
     24e:	370c      	adds	r7, #12
     250:	46bd      	mov	sp, r7
     252:	f85d 7b04 	ldr.w	r7, [sp], #4
     256:	4770      	bx	lr

00000258 <sys__flash__Trsvd_flash11BIP>:
     258:	b480      	push	{r7}
     25a:	b083      	sub	sp, #12
     25c:	af00      	add	r7, sp, #0
     25e:	e9c7 0100 	strd	r0, r1, [r7]
     262:	370c      	adds	r7, #12
     264:	46bd      	mov	sp, r7
     266:	f85d 7b04 	ldr.w	r7, [sp], #4
     26a:	4770      	bx	lr

0000026c <sys__flash__Trsvd_flash13BIP>:
     26c:	b480      	push	{r7}
     26e:	b083      	sub	sp, #12
     270:	af00      	add	r7, sp, #0
     272:	e9c7 0100 	strd	r0, r1, [r7]
     276:	370c      	adds	r7, #12
     278:	46bd      	mov	sp, r7
     27a:	f85d 7b04 	ldr.w	r7, [sp], #4
     27e:	4770      	bx	lr

00000280 <sys__flash__flash_registersIP>:
     280:	b480      	push	{r7}
     282:	b083      	sub	sp, #12
     284:	af00      	add	r7, sp, #0
     286:	6078      	str	r0, [r7, #4]
     288:	370c      	adds	r7, #12
     28a:	46bd      	mov	sp, r7
     28c:	f85d 7b04 	ldr.w	r7, [sp], #4
     290:	4770      	bx	lr
     292:	bf00      	nop

00000294 <sys__flash__flash_init>:
     294:	b598      	push	{r3, r4, r7, lr}
     296:	af00      	add	r7, sp, #0
     298:	f44f 44e0 	mov.w	r4, #28672	; 0x7000
     29c:	f6cf 74f8 	movt	r4, #65528	; 0xfff8
     2a0:	f44f 43e0 	mov.w	r3, #28672	; 0x7000
     2a4:	f6cf 73f8 	movt	r3, #65528	; 0xfff8
     2a8:	681b      	ldr	r3, [r3, #0]
     2aa:	4618      	mov	r0, r3
     2ac:	211f      	movs	r1, #31
     2ae:	2200      	movs	r2, #0
     2b0:	f240 4303 	movw	r3, #1027	; 0x403
     2b4:	f004 f9e4 	bl	4680 <accessor__rmw>
     2b8:	4603      	mov	r3, r0
     2ba:	6023      	str	r3, [r4, #0]
     2bc:	f44f 44e0 	mov.w	r4, #28672	; 0x7000
     2c0:	f6cf 74f8 	movt	r4, #65528	; 0xfff8
     2c4:	f44f 43e0 	mov.w	r3, #28672	; 0x7000
     2c8:	f6cf 73f8 	movt	r3, #65528	; 0xfff8
     2cc:	f8d3 3284 	ldr.w	r3, [r3, #644]	; 0x284
     2d0:	4618      	mov	r0, r3
     2d2:	211f      	movs	r1, #31
     2d4:	2200      	movs	r2, #0
     2d6:	2305      	movs	r3, #5
     2d8:	f004 f9d2 	bl	4680 <accessor__rmw>
     2dc:	4603      	mov	r3, r0
     2de:	f8c4 3284 	str.w	r3, [r4, #644]	; 0x284
     2e2:	f44f 44e0 	mov.w	r4, #28672	; 0x7000
     2e6:	f6cf 74f8 	movt	r4, #65528	; 0xfff8
     2ea:	f44f 43e0 	mov.w	r3, #28672	; 0x7000
     2ee:	f6cf 73f8 	movt	r3, #65528	; 0xfff8
     2f2:	f8d3 32b4 	ldr.w	r3, [r3, #692]	; 0x2b4
     2f6:	4618      	mov	r0, r3
     2f8:	211f      	movs	r1, #31
     2fa:	2200      	movs	r2, #0
     2fc:	2302      	movs	r3, #2
     2fe:	f2c0 030a 	movt	r3, #10
     302:	f004 f9bd 	bl	4680 <accessor__rmw>
     306:	4603      	mov	r3, r0
     308:	f8c4 32b4 	str.w	r3, [r4, #692]	; 0x2b4
     30c:	f44f 44e0 	mov.w	r4, #28672	; 0x7000
     310:	f6cf 74f8 	movt	r4, #65528	; 0xfff8
     314:	f44f 43e0 	mov.w	r3, #28672	; 0x7000
     318:	f6cf 73f8 	movt	r3, #65528	; 0xfff8
     31c:	f8d3 3284 	ldr.w	r3, [r3, #644]	; 0x284
     320:	4618      	mov	r0, r3
     322:	211f      	movs	r1, #31
     324:	2200      	movs	r2, #0
     326:	2302      	movs	r3, #2
     328:	f004 f9aa 	bl	4680 <accessor__rmw>
     32c:	4603      	mov	r3, r0
     32e:	f8c4 3284 	str.w	r3, [r4, #644]	; 0x284
     332:	f44f 44e0 	mov.w	r4, #28672	; 0x7000
     336:	f6cf 74f8 	movt	r4, #65528	; 0xfff8
     33a:	f44f 43e0 	mov.w	r3, #28672	; 0x7000
     33e:	f6cf 73f8 	movt	r3, #65528	; 0xfff8
     342:	6c1b      	ldr	r3, [r3, #64]	; 0x40
     344:	4618      	mov	r0, r3
     346:	211f      	movs	r1, #31
     348:	2200      	movs	r2, #0
     34a:	f24c 030f 	movw	r3, #49167	; 0xc00f
     34e:	f004 f997 	bl	4680 <accessor__rmw>
     352:	4603      	mov	r3, r0
     354:	6423      	str	r3, [r4, #64]	; 0x40
     356:	bd98      	pop	{r3, r4, r7, pc}

00000358 <sys__flash___elabs>:
     358:	b480      	push	{r7}
     35a:	af00      	add	r7, sp, #0
     35c:	46bd      	mov	sp, r7
     35e:	f85d 7b04 	ldr.w	r7, [sp], #4
     362:	4770      	bx	lr

00000364 <sys__mux__mux_init>:
     364:	b480      	push	{r7}
     366:	af00      	add	r7, sp, #0
     368:	bf00      	nop
     36a:	46bd      	mov	sp, r7
     36c:	f85d 7b04 	ldr.w	r7, [sp], #4
     370:	4770      	bx	lr
     372:	bf00      	nop

00000374 <sys__periph__periph_init>:
     374:	b598      	push	{r3, r4, r7, lr}
     376:	af00      	add	r7, sp, #0
     378:	f06f 04ff 	mvn.w	r4, #255	; 0xff
     37c:	f06f 03ff 	mvn.w	r3, #255	; 0xff
     380:	f8d3 30d0 	ldr.w	r3, [r3, #208]	; 0xd0
     384:	4618      	mov	r0, r3
     386:	f644 419c 	movw	r1, #19612	; 0x4c9c
     38a:	f2c0 0100 	movt	r1, #0
     38e:	2200      	movs	r2, #0
     390:	f004 f98a 	bl	46a8 <accessor__rmw__2>
     394:	4603      	mov	r3, r0
     396:	f8c4 30d0 	str.w	r3, [r4, #208]	; 0xd0
     39a:	f44f 5480 	mov.w	r4, #4096	; 0x1000
     39e:	f6cf 74ff 	movt	r4, #65535	; 0xffff
     3a2:	f44f 5380 	mov.w	r3, #4096	; 0x1000
     3a6:	f6cf 73ff 	movt	r3, #65535	; 0xffff
     3aa:	f8d3 30a0 	ldr.w	r3, [r3, #160]	; 0xa0
     3ae:	4618      	mov	r0, r3
     3b0:	211f      	movs	r1, #31
     3b2:	2200      	movs	r2, #0
     3b4:	f04f 33ff 	mov.w	r3, #4294967295
     3b8:	f004 f962 	bl	4680 <accessor__rmw>
     3bc:	4603      	mov	r3, r0
     3be:	f8c4 30a0 	str.w	r3, [r4, #160]	; 0xa0
     3c2:	f44f 5480 	mov.w	r4, #4096	; 0x1000
     3c6:	f6cf 74ff 	movt	r4, #65535	; 0xffff
     3ca:	f44f 5380 	mov.w	r3, #4096	; 0x1000
     3ce:	f6cf 73ff 	movt	r3, #65535	; 0xffff
     3d2:	f8d3 30a4 	ldr.w	r3, [r3, #164]	; 0xa4
     3d6:	4618      	mov	r0, r3
     3d8:	211f      	movs	r1, #31
     3da:	2200      	movs	r2, #0
     3dc:	f04f 33ff 	mov.w	r3, #4294967295
     3e0:	f004 f94e 	bl	4680 <accessor__rmw>
     3e4:	4603      	mov	r3, r0
     3e6:	f8c4 30a4 	str.w	r3, [r4, #164]	; 0xa4
     3ea:	f44f 5480 	mov.w	r4, #4096	; 0x1000
     3ee:	f6cf 74ff 	movt	r4, #65535	; 0xffff
     3f2:	f44f 5380 	mov.w	r3, #4096	; 0x1000
     3f6:	f6cf 73ff 	movt	r3, #65535	; 0xffff
     3fa:	f8d3 30a8 	ldr.w	r3, [r3, #168]	; 0xa8
     3fe:	4618      	mov	r0, r3
     400:	211f      	movs	r1, #31
     402:	2200      	movs	r2, #0
     404:	f04f 33ff 	mov.w	r3, #4294967295
     408:	f004 f93a 	bl	4680 <accessor__rmw>
     40c:	4603      	mov	r3, r0
     40e:	f8c4 30a8 	str.w	r3, [r4, #168]	; 0xa8
     412:	f44f 5480 	mov.w	r4, #4096	; 0x1000
     416:	f6cf 74ff 	movt	r4, #65535	; 0xffff
     41a:	f44f 5380 	mov.w	r3, #4096	; 0x1000
     41e:	f6cf 73ff 	movt	r3, #65535	; 0xffff
     422:	f8d3 30ac 	ldr.w	r3, [r3, #172]	; 0xac
     426:	4618      	mov	r0, r3
     428:	211f      	movs	r1, #31
     42a:	2200      	movs	r2, #0
     42c:	f04f 33ff 	mov.w	r3, #4294967295
     430:	f004 f926 	bl	4680 <accessor__rmw>
     434:	4603      	mov	r3, r0
     436:	f8c4 30ac 	str.w	r3, [r4, #172]	; 0xac
     43a:	f44f 5480 	mov.w	r4, #4096	; 0x1000
     43e:	f6cf 44ff 	movt	r4, #64767	; 0xfcff
     442:	f44f 5380 	mov.w	r3, #4096	; 0x1000
     446:	f6cf 43ff 	movt	r3, #64767	; 0xfcff
     44a:	f8d3 30a0 	ldr.w	r3, [r3, #160]	; 0xa0
     44e:	4618      	mov	r0, r3
     450:	211f      	movs	r1, #31
     452:	2200      	movs	r2, #0
     454:	f04f 33ff 	mov.w	r3, #4294967295
     458:	f004 f912 	bl	4680 <accessor__rmw>
     45c:	4603      	mov	r3, r0
     45e:	f8c4 30a0 	str.w	r3, [r4, #160]	; 0xa0
     462:	f44f 5480 	mov.w	r4, #4096	; 0x1000
     466:	f6cf 44ff 	movt	r4, #64767	; 0xfcff
     46a:	f44f 5380 	mov.w	r3, #4096	; 0x1000
     46e:	f6cf 43ff 	movt	r3, #64767	; 0xfcff
     472:	f8d3 30a4 	ldr.w	r3, [r3, #164]	; 0xa4
     476:	4618      	mov	r0, r3
     478:	211f      	movs	r1, #31
     47a:	2200      	movs	r2, #0
     47c:	f04f 33ff 	mov.w	r3, #4294967295
     480:	f004 f8fe 	bl	4680 <accessor__rmw>
     484:	4603      	mov	r3, r0
     486:	f8c4 30a4 	str.w	r3, [r4, #164]	; 0xa4
     48a:	f44f 5480 	mov.w	r4, #4096	; 0x1000
     48e:	f6cf 44ff 	movt	r4, #64767	; 0xfcff
     492:	f44f 5380 	mov.w	r3, #4096	; 0x1000
     496:	f6cf 43ff 	movt	r3, #64767	; 0xfcff
     49a:	f8d3 30a8 	ldr.w	r3, [r3, #168]	; 0xa8
     49e:	4618      	mov	r0, r3
     4a0:	211f      	movs	r1, #31
     4a2:	2200      	movs	r2, #0
     4a4:	f04f 33ff 	mov.w	r3, #4294967295
     4a8:	f004 f8ea 	bl	4680 <accessor__rmw>
     4ac:	4603      	mov	r3, r0
     4ae:	f8c4 30a8 	str.w	r3, [r4, #168]	; 0xa8
     4b2:	f44f 5480 	mov.w	r4, #4096	; 0x1000
     4b6:	f6cf 44ff 	movt	r4, #64767	; 0xfcff
     4ba:	f44f 5380 	mov.w	r3, #4096	; 0x1000
     4be:	f6cf 43ff 	movt	r3, #64767	; 0xfcff
     4c2:	f8d3 30ac 	ldr.w	r3, [r3, #172]	; 0xac
     4c6:	4618      	mov	r0, r3
     4c8:	211f      	movs	r1, #31
     4ca:	2200      	movs	r2, #0
     4cc:	f04f 33ff 	mov.w	r3, #4294967295
     4d0:	f004 f8d6 	bl	4680 <accessor__rmw>
     4d4:	4603      	mov	r3, r0
     4d6:	f8c4 30ac 	str.w	r3, [r4, #172]	; 0xac
     4da:	f44f 4400 	mov.w	r4, #32768	; 0x8000
     4de:	f6cf 74f7 	movt	r4, #65527	; 0xfff7
     4e2:	f44f 4300 	mov.w	r3, #32768	; 0x8000
     4e6:	f6cf 73f7 	movt	r3, #65527	; 0xfff7
     4ea:	f8d3 30a0 	ldr.w	r3, [r3, #160]	; 0xa0
     4ee:	4618      	mov	r0, r3
     4f0:	211f      	movs	r1, #31
     4f2:	2200      	movs	r2, #0
     4f4:	f04f 33ff 	mov.w	r3, #4294967295
     4f8:	f004 f8c2 	bl	4680 <accessor__rmw>
     4fc:	4603      	mov	r3, r0
     4fe:	f8c4 30a0 	str.w	r3, [r4, #160]	; 0xa0
     502:	f44f 4400 	mov.w	r4, #32768	; 0x8000
     506:	f6cf 74f7 	movt	r4, #65527	; 0xfff7
     50a:	f44f 4300 	mov.w	r3, #32768	; 0x8000
     50e:	f6cf 73f7 	movt	r3, #65527	; 0xfff7
     512:	f8d3 30a4 	ldr.w	r3, [r3, #164]	; 0xa4
     516:	4618      	mov	r0, r3
     518:	211f      	movs	r1, #31
     51a:	2200      	movs	r2, #0
     51c:	f04f 33ff 	mov.w	r3, #4294967295
     520:	f004 f8ae 	bl	4680 <accessor__rmw>
     524:	4603      	mov	r3, r0
     526:	f8c4 30a4 	str.w	r3, [r4, #164]	; 0xa4
     52a:	f44f 4400 	mov.w	r4, #32768	; 0x8000
     52e:	f6cf 74f7 	movt	r4, #65527	; 0xfff7
     532:	f44f 4300 	mov.w	r3, #32768	; 0x8000
     536:	f6cf 73f7 	movt	r3, #65527	; 0xfff7
     53a:	f8d3 30a8 	ldr.w	r3, [r3, #168]	; 0xa8
     53e:	4618      	mov	r0, r3
     540:	211f      	movs	r1, #31
     542:	2200      	movs	r2, #0
     544:	f04f 33ff 	mov.w	r3, #4294967295
     548:	f004 f89a 	bl	4680 <accessor__rmw>
     54c:	4603      	mov	r3, r0
     54e:	f8c4 30a8 	str.w	r3, [r4, #168]	; 0xa8
     552:	f44f 4400 	mov.w	r4, #32768	; 0x8000
     556:	f6cf 74f7 	movt	r4, #65527	; 0xfff7
     55a:	f44f 4300 	mov.w	r3, #32768	; 0x8000
     55e:	f6cf 73f7 	movt	r3, #65527	; 0xfff7
     562:	f8d3 30ac 	ldr.w	r3, [r3, #172]	; 0xac
     566:	4618      	mov	r0, r3
     568:	211f      	movs	r1, #31
     56a:	2200      	movs	r2, #0
     56c:	f04f 33ff 	mov.w	r3, #4294967295
     570:	f004 f886 	bl	4680 <accessor__rmw>
     574:	4603      	mov	r3, r0
     576:	f8c4 30ac 	str.w	r3, [r4, #172]	; 0xac
     57a:	f06f 04ff 	mvn.w	r4, #255	; 0xff
     57e:	f06f 03ff 	mvn.w	r3, #255	; 0xff
     582:	f8d3 30d0 	ldr.w	r3, [r3, #208]	; 0xd0
     586:	4618      	mov	r0, r3
     588:	f644 419c 	movw	r1, #19612	; 0x4c9c
     58c:	f2c0 0100 	movt	r1, #0
     590:	2201      	movs	r2, #1
     592:	f004 f889 	bl	46a8 <accessor__rmw__2>
     596:	4603      	mov	r3, r0
     598:	f8c4 30d0 	str.w	r3, [r4, #208]	; 0xd0
     59c:	bd98      	pop	{r3, r4, r7, pc}
     59e:	bf00      	nop

000005a0 <sys__sys_init>:
     5a0:	b580      	push	{r7, lr}
     5a2:	af00      	add	r7, sp, #0
     5a4:	f7ff fee6 	bl	374 <sys__periph__periph_init>
     5a8:	f7ff fedc 	bl	364 <sys__mux__mux_init>
     5ac:	bd80      	pop	{r7, pc}
     5ae:	bf00      	nop

000005b0 <sys__pll__reset>:
     5b0:	b480      	push	{r7}
     5b2:	b083      	sub	sp, #12
     5b4:	af00      	add	r7, sp, #0
     5b6:	6078      	str	r0, [r7, #4]
     5b8:	6039      	str	r1, [r7, #0]
     5ba:	683b      	ldr	r3, [r7, #0]
     5bc:	43db      	mvns	r3, r3
     5be:	687a      	ldr	r2, [r7, #4]
     5c0:	4013      	ands	r3, r2
     5c2:	607b      	str	r3, [r7, #4]
     5c4:	687b      	ldr	r3, [r7, #4]
     5c6:	4618      	mov	r0, r3
     5c8:	370c      	adds	r7, #12
     5ca:	46bd      	mov	sp, r7
     5cc:	f85d 7b04 	ldr.w	r7, [sp], #4
     5d0:	4770      	bx	lr
     5d2:	bf00      	nop

000005d4 <sys__pll__set>:
     5d4:	b480      	push	{r7}
     5d6:	b083      	sub	sp, #12
     5d8:	af00      	add	r7, sp, #0
     5da:	6078      	str	r0, [r7, #4]
     5dc:	6039      	str	r1, [r7, #0]
     5de:	687a      	ldr	r2, [r7, #4]
     5e0:	683b      	ldr	r3, [r7, #0]
     5e2:	4313      	orrs	r3, r2
     5e4:	607b      	str	r3, [r7, #4]
     5e6:	687b      	ldr	r3, [r7, #4]
     5e8:	4618      	mov	r0, r3
     5ea:	370c      	adds	r7, #12
     5ec:	46bd      	mov	sp, r7
     5ee:	f85d 7b04 	ldr.w	r7, [sp], #4
     5f2:	4770      	bx	lr

000005f4 <sys__pll__initialize_clocks>:
     5f4:	b590      	push	{r4, r7, lr}
     5f6:	b083      	sub	sp, #12
     5f8:	af00      	add	r7, sp, #0
     5fa:	2395      	movs	r3, #149	; 0x95
     5fc:	607b      	str	r3, [r7, #4]
     5fe:	2307      	movs	r3, #7
     600:	603b      	str	r3, [r7, #0]
     602:	f06f 04ff 	mvn.w	r4, #255	; 0xff
     606:	f06f 03ff 	mvn.w	r3, #255	; 0xff
     60a:	6b5b      	ldr	r3, [r3, #52]	; 0x34
     60c:	4618      	mov	r0, r3
     60e:	2101      	movs	r1, #1
     610:	2200      	movs	r2, #0
     612:	2302      	movs	r3, #2
     614:	f004 f834 	bl	4680 <accessor__rmw>
     618:	4603      	mov	r3, r0
     61a:	6363      	str	r3, [r4, #52]	; 0x34
     61c:	f06f 04ff 	mvn.w	r4, #255	; 0xff
     620:	f06f 03ff 	mvn.w	r3, #255	; 0xff
     624:	6b5b      	ldr	r3, [r3, #52]	; 0x34
     626:	4618      	mov	r0, r3
     628:	2107      	movs	r1, #7
     62a:	2203      	movs	r2, #3
     62c:	2308      	movs	r3, #8
     62e:	f004 f827 	bl	4680 <accessor__rmw>
     632:	4603      	mov	r3, r0
     634:	6363      	str	r3, [r4, #52]	; 0x34
     636:	f06f 03ff 	mvn.w	r3, #255	; 0xff
     63a:	6b1b      	ldr	r3, [r3, #48]	; 0x30
     63c:	f003 0342 	and.w	r3, r3, #66	; 0x42
     640:	2b42      	cmp	r3, #66	; 0x42
     642:	d000      	beq.n	646 <sys__pll__initialize_clocks+0x52>
     644:	e7f7      	b.n	636 <sys__pll__initialize_clocks+0x42>
     646:	f06f 04ff 	mvn.w	r4, #255	; 0xff
     64a:	f06f 03ff 	mvn.w	r3, #255	; 0xff
     64e:	f8d3 30ec 	ldr.w	r3, [r3, #236]	; 0xec
     652:	4618      	mov	r0, r3
     654:	f644 41d4 	movw	r1, #19668	; 0x4cd4
     658:	f2c0 0100 	movt	r1, #0
     65c:	2201      	movs	r2, #1
     65e:	f004 f823 	bl	46a8 <accessor__rmw__2>
     662:	4603      	mov	r3, r0
     664:	f8c4 30ec 	str.w	r3, [r4, #236]	; 0xec
     668:	f06f 04ff 	mvn.w	r4, #255	; 0xff
     66c:	f06f 03ff 	mvn.w	r3, #255	; 0xff
     670:	f8d3 30ec 	ldr.w	r3, [r3, #236]	; 0xec
     674:	4618      	mov	r0, r3
     676:	f644 41dc 	movw	r1, #19676	; 0x4cdc
     67a:	f2c0 0100 	movt	r1, #0
     67e:	2201      	movs	r2, #1
     680:	f004 f812 	bl	46a8 <accessor__rmw__2>
     684:	4603      	mov	r3, r0
     686:	f8c4 30ec 	str.w	r3, [r4, #236]	; 0xec
     68a:	f06f 04ff 	mvn.w	r4, #255	; 0xff
     68e:	f06f 03ff 	mvn.w	r3, #255	; 0xff
     692:	f8d3 30ec 	ldr.w	r3, [r3, #236]	; 0xec
     696:	4618      	mov	r0, r3
     698:	f644 41e4 	movw	r1, #19684	; 0x4ce4
     69c:	f2c0 0100 	movt	r1, #0
     6a0:	2201      	movs	r2, #1
     6a2:	f004 f801 	bl	46a8 <accessor__rmw__2>
     6a6:	4603      	mov	r3, r0
     6a8:	f8c4 30ec 	str.w	r3, [r4, #236]	; 0xec
     6ac:	f06f 04ff 	mvn.w	r4, #255	; 0xff
     6b0:	f06f 03ff 	mvn.w	r3, #255	; 0xff
     6b4:	6f1b      	ldr	r3, [r3, #112]	; 0x70
     6b6:	4618      	mov	r0, r3
     6b8:	f644 41ec 	movw	r1, #19692	; 0x4cec
     6bc:	f2c0 0100 	movt	r1, #0
     6c0:	f44f 4215 	mov.w	r2, #38144	; 0x9500
     6c4:	f003 fff0 	bl	46a8 <accessor__rmw__2>
     6c8:	4603      	mov	r3, r0
     6ca:	6723      	str	r3, [r4, #112]	; 0x70
     6cc:	f06f 04ff 	mvn.w	r4, #255	; 0xff
     6d0:	f06f 03ff 	mvn.w	r3, #255	; 0xff
     6d4:	6f1b      	ldr	r3, [r3, #112]	; 0x70
     6d6:	4618      	mov	r0, r3
     6d8:	f644 41f4 	movw	r1, #19700	; 0x4cf4
     6dc:	f2c0 0100 	movt	r1, #0
     6e0:	2207      	movs	r2, #7
     6e2:	f003 ffe1 	bl	46a8 <accessor__rmw__2>
     6e6:	4603      	mov	r3, r0
     6e8:	6723      	str	r3, [r4, #112]	; 0x70
     6ea:	f06f 04ff 	mvn.w	r4, #255	; 0xff
     6ee:	f06f 03ff 	mvn.w	r3, #255	; 0xff
     6f2:	6f1b      	ldr	r3, [r3, #112]	; 0x70
     6f4:	4618      	mov	r0, r3
     6f6:	f644 5104 	movw	r1, #19716	; 0x4d04
     6fa:	f2c0 0100 	movt	r1, #0
     6fe:	221f      	movs	r2, #31
     700:	f003 ffd2 	bl	46a8 <accessor__rmw__2>
     704:	4603      	mov	r3, r0
     706:	6723      	str	r3, [r4, #112]	; 0x70
     708:	f06f 04ff 	mvn.w	r4, #255	; 0xff
     70c:	f06f 03ff 	mvn.w	r3, #255	; 0xff
     710:	6f5b      	ldr	r3, [r3, #116]	; 0x74
     712:	4618      	mov	r0, r3
     714:	f644 5134 	movw	r1, #19764	; 0x4d34
     718:	f2c0 0100 	movt	r1, #0
     71c:	223d      	movs	r2, #61	; 0x3d
     71e:	f003 ffc3 	bl	46a8 <accessor__rmw__2>
     722:	4603      	mov	r3, r0
     724:	6763      	str	r3, [r4, #116]	; 0x74
     726:	f06f 04ff 	mvn.w	r4, #255	; 0xff
     72a:	f06f 03ff 	mvn.w	r3, #255	; 0xff
     72e:	6f5b      	ldr	r3, [r3, #116]	; 0x74
     730:	4618      	mov	r0, r3
     732:	f644 513c 	movw	r1, #19772	; 0x4d3c
     736:	f2c0 0100 	movt	r1, #0
     73a:	2200      	movs	r2, #0
     73c:	f003 ffb4 	bl	46a8 <accessor__rmw__2>
     740:	4603      	mov	r3, r0
     742:	6763      	str	r3, [r4, #116]	; 0x74
     744:	f06f 04ff 	mvn.w	r4, #255	; 0xff
     748:	f06f 03ff 	mvn.w	r3, #255	; 0xff
     74c:	6f5b      	ldr	r3, [r3, #116]	; 0x74
     74e:	4618      	mov	r0, r3
     750:	f644 5144 	movw	r1, #19780	; 0x4d44
     754:	f2c0 0100 	movt	r1, #0
     758:	2207      	movs	r2, #7
     75a:	f003 ffa5 	bl	46a8 <accessor__rmw__2>
     75e:	4603      	mov	r3, r0
     760:	6763      	str	r3, [r4, #116]	; 0x74
     762:	f06f 04ff 	mvn.w	r4, #255	; 0xff
     766:	f06f 03ff 	mvn.w	r3, #255	; 0xff
     76a:	6f5b      	ldr	r3, [r3, #116]	; 0x74
     76c:	4618      	mov	r0, r3
     76e:	f644 514c 	movw	r1, #19788	; 0x4d4c
     772:	f2c0 0100 	movt	r1, #0
     776:	22ff      	movs	r2, #255	; 0xff
     778:	f003 ff96 	bl	46a8 <accessor__rmw__2>
     77c:	4603      	mov	r3, r0
     77e:	6763      	str	r3, [r4, #116]	; 0x74
     780:	f44f 4461 	mov.w	r4, #57600	; 0xe100
     784:	f6cf 74ff 	movt	r4, #65535	; 0xffff
     788:	f44f 4361 	mov.w	r3, #57600	; 0xe100
     78c:	f6cf 73ff 	movt	r3, #65535	; 0xffff
     790:	681b      	ldr	r3, [r3, #0]
     792:	4618      	mov	r0, r3
     794:	f644 515c 	movw	r1, #19804	; 0x4d5c
     798:	f2c0 0100 	movt	r1, #0
     79c:	f44f 4215 	mov.w	r2, #38144	; 0x9500
     7a0:	f003 ff82 	bl	46a8 <accessor__rmw__2>
     7a4:	4603      	mov	r3, r0
     7a6:	6023      	str	r3, [r4, #0]
     7a8:	f44f 4461 	mov.w	r4, #57600	; 0xe100
     7ac:	f6cf 74ff 	movt	r4, #65535	; 0xffff
     7b0:	f44f 4361 	mov.w	r3, #57600	; 0xe100
     7b4:	f6cf 73ff 	movt	r3, #65535	; 0xffff
     7b8:	681b      	ldr	r3, [r3, #0]
     7ba:	4618      	mov	r0, r3
     7bc:	f644 5164 	movw	r1, #19812	; 0x4d64
     7c0:	f2c0 0100 	movt	r1, #0
     7c4:	2207      	movs	r2, #7
     7c6:	f003 ff6f 	bl	46a8 <accessor__rmw__2>
     7ca:	4603      	mov	r3, r0
     7cc:	6023      	str	r3, [r4, #0]
     7ce:	f44f 4461 	mov.w	r4, #57600	; 0xe100
     7d2:	f6cf 74ff 	movt	r4, #65535	; 0xffff
     7d6:	f44f 4361 	mov.w	r3, #57600	; 0xe100
     7da:	f6cf 73ff 	movt	r3, #65535	; 0xffff
     7de:	681b      	ldr	r3, [r3, #0]
     7e0:	4618      	mov	r0, r3
     7e2:	f644 516c 	movw	r1, #19820	; 0x4d6c
     7e6:	f2c0 0100 	movt	r1, #0
     7ea:	221f      	movs	r2, #31
     7ec:	f003 ff5c 	bl	46a8 <accessor__rmw__2>
     7f0:	4603      	mov	r3, r0
     7f2:	6023      	str	r3, [r4, #0]
     7f4:	f44f 4461 	mov.w	r4, #57600	; 0xe100
     7f8:	f6cf 74ff 	movt	r4, #65535	; 0xffff
     7fc:	f44f 4361 	mov.w	r3, #57600	; 0xe100
     800:	f6cf 73ff 	movt	r3, #65535	; 0xffff
     804:	681b      	ldr	r3, [r3, #0]
     806:	4618      	mov	r0, r3
     808:	f644 5174 	movw	r1, #19828	; 0x4d74
     80c:	f2c0 0100 	movt	r1, #0
     810:	2200      	movs	r2, #0
     812:	f003 ff49 	bl	46a8 <accessor__rmw__2>
     816:	4603      	mov	r3, r0
     818:	6023      	str	r3, [r4, #0]
     81a:	f06f 04ff 	mvn.w	r4, #255	; 0xff
     81e:	f06f 03ff 	mvn.w	r3, #255	; 0xff
     822:	6b1b      	ldr	r3, [r3, #48]	; 0x30
     824:	4618      	mov	r0, r3
     826:	2107      	movs	r1, #7
     828:	2200      	movs	r2, #0
     82a:	238c      	movs	r3, #140	; 0x8c
     82c:	f003 ff28 	bl	4680 <accessor__rmw>
     830:	4603      	mov	r3, r0
     832:	6323      	str	r3, [r4, #48]	; 0x30
     834:	370c      	adds	r7, #12
     836:	46bd      	mov	sp, r7
     838:	bd90      	pop	{r4, r7, pc}
     83a:	bf00      	nop

0000083c <sys__pll__pll_spinup>:
     83c:	b590      	push	{r4, r7, lr}
     83e:	b083      	sub	sp, #12
     840:	af00      	add	r7, sp, #0
     842:	f06f 04ff 	mvn.w	r4, #255	; 0xff
     846:	f06f 03ff 	mvn.w	r3, #255	; 0xff
     84a:	6bdb      	ldr	r3, [r3, #60]	; 0x3c
     84c:	4618      	mov	r0, r3
     84e:	f644 51f4 	movw	r1, #19956	; 0x4df4
     852:	f2c0 0100 	movt	r1, #0
     856:	2200      	movs	r2, #0
     858:	f003 ff26 	bl	46a8 <accessor__rmw__2>
     85c:	4603      	mov	r3, r0
     85e:	63e3      	str	r3, [r4, #60]	; 0x3c
     860:	f06f 04ff 	mvn.w	r4, #255	; 0xff
     864:	f06f 03ff 	mvn.w	r3, #255	; 0xff
     868:	6bdb      	ldr	r3, [r3, #60]	; 0x3c
     86a:	4618      	mov	r0, r3
     86c:	f644 51fc 	movw	r1, #19964	; 0x4dfc
     870:	f2c0 0100 	movt	r1, #0
     874:	2200      	movs	r2, #0
     876:	f003 ff17 	bl	46a8 <accessor__rmw__2>
     87a:	4603      	mov	r3, r0
     87c:	63e3      	str	r3, [r4, #60]	; 0x3c
     87e:	f06f 04ff 	mvn.w	r4, #255	; 0xff
     882:	f06f 03ff 	mvn.w	r3, #255	; 0xff
     886:	6bdb      	ldr	r3, [r3, #60]	; 0x3c
     888:	4618      	mov	r0, r3
     88a:	f644 6104 	movw	r1, #19972	; 0x4e04
     88e:	f2c0 0100 	movt	r1, #0
     892:	2200      	movs	r2, #0
     894:	f003 ff08 	bl	46a8 <accessor__rmw__2>
     898:	4603      	mov	r3, r0
     89a:	63e3      	str	r3, [r4, #60]	; 0x3c
     89c:	f06f 04ff 	mvn.w	r4, #255	; 0xff
     8a0:	f06f 03ff 	mvn.w	r3, #255	; 0xff
     8a4:	6bdb      	ldr	r3, [r3, #60]	; 0x3c
     8a6:	4618      	mov	r0, r3
     8a8:	f644 6114 	movw	r1, #19988	; 0x4e14
     8ac:	f2c0 0100 	movt	r1, #0
     8b0:	2201      	movs	r2, #1
     8b2:	f003 fef9 	bl	46a8 <accessor__rmw__2>
     8b6:	4603      	mov	r3, r0
     8b8:	63e3      	str	r3, [r4, #60]	; 0x3c
     8ba:	f06f 04ff 	mvn.w	r4, #255	; 0xff
     8be:	f06f 03ff 	mvn.w	r3, #255	; 0xff
     8c2:	6bdb      	ldr	r3, [r3, #60]	; 0x3c
     8c4:	4618      	mov	r0, r3
     8c6:	f644 611c 	movw	r1, #19996	; 0x4e1c
     8ca:	f2c0 0100 	movt	r1, #0
     8ce:	2200      	movs	r2, #0
     8d0:	f003 feea 	bl	46a8 <accessor__rmw__2>
     8d4:	4603      	mov	r3, r0
     8d6:	63e3      	str	r3, [r4, #60]	; 0x3c
     8d8:	f06f 03ff 	mvn.w	r3, #255	; 0xff
     8dc:	6d5b      	ldr	r3, [r3, #84]	; 0x54
     8de:	607b      	str	r3, [r7, #4]
     8e0:	f06f 03ff 	mvn.w	r3, #255	; 0xff
     8e4:	6b1b      	ldr	r3, [r3, #48]	; 0x30
     8e6:	603b      	str	r3, [r7, #0]
     8e8:	683b      	ldr	r3, [r7, #0]
     8ea:	f083 02ff 	eor.w	r2, r3, #255	; 0xff
     8ee:	687b      	ldr	r3, [r7, #4]
     8f0:	401a      	ands	r2, r3
     8f2:	683b      	ldr	r3, [r7, #0]
     8f4:	43db      	mvns	r3, r3
     8f6:	b2db      	uxtb	r3, r3
     8f8:	429a      	cmp	r2, r3
     8fa:	d000      	beq.n	8fe <sys__pll__pll_spinup+0xc2>
     8fc:	e7ec      	b.n	8d8 <sys__pll__pll_spinup+0x9c>
     8fe:	f06f 04ff 	mvn.w	r4, #255	; 0xff
     902:	f06f 03ff 	mvn.w	r3, #255	; 0xff
     906:	6f1b      	ldr	r3, [r3, #112]	; 0x70
     908:	4618      	mov	r0, r3
     90a:	f644 5104 	movw	r1, #19716	; 0x4d04
     90e:	f2c0 0100 	movt	r1, #0
     912:	2200      	movs	r2, #0
     914:	f003 fec8 	bl	46a8 <accessor__rmw__2>
     918:	4603      	mov	r3, r0
     91a:	6723      	str	r3, [r4, #112]	; 0x70
     91c:	f44f 4461 	mov.w	r4, #57600	; 0xe100
     920:	f6cf 74ff 	movt	r4, #65535	; 0xffff
     924:	f44f 4361 	mov.w	r3, #57600	; 0xe100
     928:	f6cf 73ff 	movt	r3, #65535	; 0xffff
     92c:	681b      	ldr	r3, [r3, #0]
     92e:	4618      	mov	r0, r3
     930:	f644 516c 	movw	r1, #19820	; 0x4d6c
     934:	f2c0 0100 	movt	r1, #0
     938:	2200      	movs	r2, #0
     93a:	f003 feb5 	bl	46a8 <accessor__rmw__2>
     93e:	4603      	mov	r3, r0
     940:	6023      	str	r3, [r4, #0]
     942:	f06f 04ff 	mvn.w	r4, #255	; 0xff
     946:	f06f 03ff 	mvn.w	r3, #255	; 0xff
     94a:	6f5b      	ldr	r3, [r3, #116]	; 0x74
     94c:	4618      	mov	r0, r3
     94e:	211f      	movs	r1, #31
     950:	221f      	movs	r2, #31
     952:	2300      	movs	r3, #0
     954:	f003 fe94 	bl	4680 <accessor__rmw>
     958:	4603      	mov	r3, r0
     95a:	6763      	str	r3, [r4, #116]	; 0x74
     95c:	f06f 04ff 	mvn.w	r4, #255	; 0xff
     960:	f06f 03ff 	mvn.w	r3, #255	; 0xff
     964:	6c9b      	ldr	r3, [r3, #72]	; 0x48
     966:	4618      	mov	r0, r3
     968:	f644 512c 	movw	r1, #19756	; 0x4d2c
     96c:	f2c0 0100 	movt	r1, #0
     970:	2200      	movs	r2, #0
     972:	f003 fe99 	bl	46a8 <accessor__rmw__2>
     976:	4603      	mov	r3, r0
     978:	64a3      	str	r3, [r4, #72]	; 0x48
     97a:	f06f 04ff 	mvn.w	r4, #255	; 0xff
     97e:	f06f 03ff 	mvn.w	r3, #255	; 0xff
     982:	6c9b      	ldr	r3, [r3, #72]	; 0x48
     984:	4618      	mov	r0, r3
     986:	f644 5124 	movw	r1, #19748	; 0x4d24
     98a:	f2c0 0100 	movt	r1, #0
     98e:	2200      	movs	r2, #0
     990:	f003 fe8a 	bl	46a8 <accessor__rmw__2>
     994:	4603      	mov	r3, r0
     996:	64a3      	str	r3, [r4, #72]	; 0x48
     998:	f06f 04ff 	mvn.w	r4, #255	; 0xff
     99c:	f06f 03ff 	mvn.w	r3, #255	; 0xff
     9a0:	6c9b      	ldr	r3, [r3, #72]	; 0x48
     9a2:	4618      	mov	r0, r3
     9a4:	f644 511c 	movw	r1, #19740	; 0x4d1c
     9a8:	f2c0 0100 	movt	r1, #0
     9ac:	2201      	movs	r2, #1
     9ae:	f003 fe7b 	bl	46a8 <accessor__rmw__2>
     9b2:	4603      	mov	r3, r0
     9b4:	64a3      	str	r3, [r4, #72]	; 0x48
     9b6:	f06f 04ff 	mvn.w	r4, #255	; 0xff
     9ba:	f06f 03ff 	mvn.w	r3, #255	; 0xff
     9be:	f8d3 30d0 	ldr.w	r3, [r3, #208]	; 0xd0
     9c2:	4618      	mov	r0, r3
     9c4:	f644 517c 	movw	r1, #19836	; 0x4d7c
     9c8:	f2c0 0100 	movt	r1, #0
     9cc:	2201      	movs	r2, #1
     9ce:	f003 fe6b 	bl	46a8 <accessor__rmw__2>
     9d2:	4603      	mov	r3, r0
     9d4:	f8c4 30d0 	str.w	r3, [r4, #208]	; 0xd0
     9d8:	f06f 04ff 	mvn.w	r4, #255	; 0xff
     9dc:	f06f 03ff 	mvn.w	r3, #255	; 0xff
     9e0:	f8d3 30d0 	ldr.w	r3, [r3, #208]	; 0xd0
     9e4:	4618      	mov	r0, r3
     9e6:	f644 5184 	movw	r1, #19844	; 0x4d84
     9ea:	f2c0 0100 	movt	r1, #0
     9ee:	2201      	movs	r2, #1
     9f0:	f003 fe5a 	bl	46a8 <accessor__rmw__2>
     9f4:	4603      	mov	r3, r0
     9f6:	f8c4 30d0 	str.w	r3, [r4, #208]	; 0xd0
     9fa:	f44f 4461 	mov.w	r4, #57600	; 0xe100
     9fe:	f6cf 74ff 	movt	r4, #65535	; 0xffff
     a02:	f44f 4361 	mov.w	r3, #57600	; 0xe100
     a06:	f6cf 73ff 	movt	r3, #65535	; 0xffff
     a0a:	6bdb      	ldr	r3, [r3, #60]	; 0x3c
     a0c:	4618      	mov	r0, r3
     a0e:	2107      	movs	r1, #7
     a10:	2204      	movs	r2, #4
     a12:	2301      	movs	r3, #1
     a14:	f003 fe34 	bl	4680 <accessor__rmw>
     a18:	4603      	mov	r3, r0
     a1a:	63e3      	str	r3, [r4, #60]	; 0x3c
     a1c:	f44f 4461 	mov.w	r4, #57600	; 0xe100
     a20:	f6cf 74ff 	movt	r4, #65535	; 0xffff
     a24:	f44f 4361 	mov.w	r3, #57600	; 0xe100
     a28:	f6cf 73ff 	movt	r3, #65535	; 0xffff
     a2c:	6bdb      	ldr	r3, [r3, #60]	; 0x3c
     a2e:	4618      	mov	r0, r3
     a30:	2103      	movs	r1, #3
     a32:	2200      	movs	r2, #0
     a34:	2301      	movs	r3, #1
     a36:	f003 fe23 	bl	4680 <accessor__rmw>
     a3a:	4603      	mov	r3, r0
     a3c:	63e3      	str	r3, [r4, #60]	; 0x3c
     a3e:	f06f 04ff 	mvn.w	r4, #255	; 0xff
     a42:	f06f 03ff 	mvn.w	r3, #255	; 0xff
     a46:	6d1b      	ldr	r3, [r3, #80]	; 0x50
     a48:	4618      	mov	r0, r3
     a4a:	f644 5194 	movw	r1, #19860	; 0x4d94
     a4e:	f2c0 0100 	movt	r1, #0
     a52:	2201      	movs	r2, #1
     a54:	f003 fe28 	bl	46a8 <accessor__rmw__2>
     a58:	4603      	mov	r3, r0
     a5a:	6523      	str	r3, [r4, #80]	; 0x50
     a5c:	f06f 04ff 	mvn.w	r4, #255	; 0xff
     a60:	f06f 03ff 	mvn.w	r3, #255	; 0xff
     a64:	6d1b      	ldr	r3, [r3, #80]	; 0x50
     a66:	4618      	mov	r0, r3
     a68:	f644 519c 	movw	r1, #19868	; 0x4d9c
     a6c:	f2c0 0100 	movt	r1, #0
     a70:	2209      	movs	r2, #9
     a72:	f003 fe19 	bl	46a8 <accessor__rmw__2>
     a76:	4603      	mov	r3, r0
     a78:	6523      	str	r3, [r4, #80]	; 0x50
     a7a:	f06f 04ff 	mvn.w	r4, #255	; 0xff
     a7e:	f06f 03ff 	mvn.w	r3, #255	; 0xff
     a82:	6d1b      	ldr	r3, [r3, #80]	; 0x50
     a84:	4618      	mov	r0, r3
     a86:	f644 51a4 	movw	r1, #19876	; 0x4da4
     a8a:	f2c0 0100 	movt	r1, #0
     a8e:	2201      	movs	r2, #1
     a90:	f003 fe0a 	bl	46a8 <accessor__rmw__2>
     a94:	4603      	mov	r3, r0
     a96:	6523      	str	r3, [r4, #80]	; 0x50
     a98:	f06f 04ff 	mvn.w	r4, #255	; 0xff
     a9c:	f06f 03ff 	mvn.w	r3, #255	; 0xff
     aa0:	6d1b      	ldr	r3, [r3, #80]	; 0x50
     aa2:	4618      	mov	r0, r3
     aa4:	f644 51ac 	movw	r1, #19884	; 0x4dac
     aa8:	f2c0 0100 	movt	r1, #0
     aac:	2209      	movs	r2, #9
     aae:	f003 fdfb 	bl	46a8 <accessor__rmw__2>
     ab2:	4603      	mov	r3, r0
     ab4:	6523      	str	r3, [r4, #80]	; 0x50
     ab6:	f06f 04ff 	mvn.w	r4, #255	; 0xff
     aba:	f06f 03ff 	mvn.w	r3, #255	; 0xff
     abe:	6cdb      	ldr	r3, [r3, #76]	; 0x4c
     ac0:	4618      	mov	r0, r3
     ac2:	f644 51b4 	movw	r1, #19892	; 0x4db4
     ac6:	f2c0 0100 	movt	r1, #0
     aca:	2209      	movs	r2, #9
     acc:	f003 fdec 	bl	46a8 <accessor__rmw__2>
     ad0:	4603      	mov	r3, r0
     ad2:	64e3      	str	r3, [r4, #76]	; 0x4c
     ad4:	f06f 04ff 	mvn.w	r4, #255	; 0xff
     ad8:	f06f 03ff 	mvn.w	r3, #255	; 0xff
     adc:	6cdb      	ldr	r3, [r3, #76]	; 0x4c
     ade:	4618      	mov	r0, r3
     ae0:	f644 51bc 	movw	r1, #19900	; 0x4dbc
     ae4:	f2c0 0100 	movt	r1, #0
     ae8:	2209      	movs	r2, #9
     aea:	f003 fddd 	bl	46a8 <accessor__rmw__2>
     aee:	4603      	mov	r3, r0
     af0:	64e3      	str	r3, [r4, #76]	; 0x4c
     af2:	f44f 4461 	mov.w	r4, #57600	; 0xe100
     af6:	f6cf 74ff 	movt	r4, #65535	; 0xffff
     afa:	f44f 4361 	mov.w	r3, #57600	; 0xe100
     afe:	f6cf 73ff 	movt	r3, #65535	; 0xffff
     b02:	6c1b      	ldr	r3, [r3, #64]	; 0x40
     b04:	4618      	mov	r0, r3
     b06:	f644 51c4 	movw	r1, #19908	; 0x4dc4
     b0a:	f2c0 0100 	movt	r1, #0
     b0e:	2200      	movs	r2, #0
     b10:	f003 fdca 	bl	46a8 <accessor__rmw__2>
     b14:	4603      	mov	r3, r0
     b16:	6423      	str	r3, [r4, #64]	; 0x40
     b18:	f44f 4461 	mov.w	r4, #57600	; 0xe100
     b1c:	f6cf 74ff 	movt	r4, #65535	; 0xffff
     b20:	f44f 4361 	mov.w	r3, #57600	; 0xe100
     b24:	f6cf 73ff 	movt	r3, #65535	; 0xffff
     b28:	6c1b      	ldr	r3, [r3, #64]	; 0x40
     b2a:	4618      	mov	r0, r3
     b2c:	f644 51cc 	movw	r1, #19916	; 0x4dcc
     b30:	f2c0 0100 	movt	r1, #0
     b34:	2200      	movs	r2, #0
     b36:	f003 fdb7 	bl	46a8 <accessor__rmw__2>
     b3a:	4603      	mov	r3, r0
     b3c:	6423      	str	r3, [r4, #64]	; 0x40
     b3e:	f44f 4461 	mov.w	r4, #57600	; 0xe100
     b42:	f6cf 74ff 	movt	r4, #65535	; 0xffff
     b46:	f44f 4361 	mov.w	r3, #57600	; 0xe100
     b4a:	f6cf 73ff 	movt	r3, #65535	; 0xffff
     b4e:	6c1b      	ldr	r3, [r3, #64]	; 0x40
     b50:	4618      	mov	r0, r3
     b52:	f644 51d4 	movw	r1, #19924	; 0x4dd4
     b56:	f2c0 0100 	movt	r1, #0
     b5a:	2209      	movs	r2, #9
     b5c:	f003 fda4 	bl	46a8 <accessor__rmw__2>
     b60:	4603      	mov	r3, r0
     b62:	6423      	str	r3, [r4, #64]	; 0x40
     b64:	f44f 4461 	mov.w	r4, #57600	; 0xe100
     b68:	f6cf 74ff 	movt	r4, #65535	; 0xffff
     b6c:	f44f 4361 	mov.w	r3, #57600	; 0xe100
     b70:	f6cf 73ff 	movt	r3, #65535	; 0xffff
     b74:	6c1b      	ldr	r3, [r3, #64]	; 0x40
     b76:	4618      	mov	r0, r3
     b78:	f644 51dc 	movw	r1, #19932	; 0x4ddc
     b7c:	f2c0 0100 	movt	r1, #0
     b80:	2200      	movs	r2, #0
     b82:	f003 fd91 	bl	46a8 <accessor__rmw__2>
     b86:	4603      	mov	r3, r0
     b88:	6423      	str	r3, [r4, #64]	; 0x40
     b8a:	f44f 4461 	mov.w	r4, #57600	; 0xe100
     b8e:	f6cf 74ff 	movt	r4, #65535	; 0xffff
     b92:	f44f 4361 	mov.w	r3, #57600	; 0xe100
     b96:	f6cf 73ff 	movt	r3, #65535	; 0xffff
     b9a:	6c1b      	ldr	r3, [r3, #64]	; 0x40
     b9c:	4618      	mov	r0, r3
     b9e:	f644 51e4 	movw	r1, #19940	; 0x4de4
     ba2:	f2c0 0100 	movt	r1, #0
     ba6:	2200      	movs	r2, #0
     ba8:	f003 fd7e 	bl	46a8 <accessor__rmw__2>
     bac:	4603      	mov	r3, r0
     bae:	6423      	str	r3, [r4, #64]	; 0x40
     bb0:	f44f 4461 	mov.w	r4, #57600	; 0xe100
     bb4:	f6cf 74ff 	movt	r4, #65535	; 0xffff
     bb8:	f44f 4361 	mov.w	r3, #57600	; 0xe100
     bbc:	f6cf 73ff 	movt	r3, #65535	; 0xffff
     bc0:	6c1b      	ldr	r3, [r3, #64]	; 0x40
     bc2:	4618      	mov	r0, r3
     bc4:	f644 51ec 	movw	r1, #19948	; 0x4dec
     bc8:	f2c0 0100 	movt	r1, #0
     bcc:	2209      	movs	r2, #9
     bce:	f003 fd6b 	bl	46a8 <accessor__rmw__2>
     bd2:	4603      	mov	r3, r0
     bd4:	6423      	str	r3, [r4, #64]	; 0x40
     bd6:	370c      	adds	r7, #12
     bd8:	46bd      	mov	sp, r7
     bda:	bd90      	pop	{r4, r7, pc}

00000bdc <gioports__gioinit>:
     bdc:	b5b0      	push	{r4, r5, r7, lr}
     bde:	b082      	sub	sp, #8
     be0:	af00      	add	r7, sp, #0
     be2:	f44f 443c 	mov.w	r4, #48128	; 0xbc00
     be6:	f6cf 74f7 	movt	r4, #65527	; 0xfff7
     bea:	f44f 433c 	mov.w	r3, #48128	; 0xbc00
     bee:	f6cf 73f7 	movt	r3, #65527	; 0xfff7
     bf2:	681b      	ldr	r3, [r3, #0]
     bf4:	4618      	mov	r0, r3
     bf6:	2100      	movs	r1, #0
     bf8:	2200      	movs	r2, #0
     bfa:	2301      	movs	r3, #1
     bfc:	f003 fd40 	bl	4680 <accessor__rmw>
     c00:	4603      	mov	r3, r0
     c02:	6023      	str	r3, [r4, #0]
     c04:	f44f 443c 	mov.w	r4, #48128	; 0xbc00
     c08:	f6cf 74f7 	movt	r4, #65527	; 0xfff7
     c0c:	f44f 433c 	mov.w	r3, #48128	; 0xbc00
     c10:	f6cf 73f7 	movt	r3, #65527	; 0xfff7
     c14:	695b      	ldr	r3, [r3, #20]
     c16:	4618      	mov	r0, r3
     c18:	f644 6144 	movw	r1, #20036	; 0x4e44
     c1c:	f2c0 0100 	movt	r1, #0
     c20:	22ff      	movs	r2, #255	; 0xff
     c22:	f003 fd41 	bl	46a8 <accessor__rmw__2>
     c26:	4603      	mov	r3, r0
     c28:	6163      	str	r3, [r4, #20]
     c2a:	f44f 443c 	mov.w	r4, #48128	; 0xbc00
     c2e:	f6cf 74f7 	movt	r4, #65527	; 0xfff7
     c32:	f44f 433c 	mov.w	r3, #48128	; 0xbc00
     c36:	f6cf 73f7 	movt	r3, #65527	; 0xfff7
     c3a:	69db      	ldr	r3, [r3, #28]
     c3c:	4618      	mov	r0, r3
     c3e:	f644 6164 	movw	r1, #20068	; 0x4e64
     c42:	f2c0 0100 	movt	r1, #0
     c46:	22ff      	movs	r2, #255	; 0xff
     c48:	f003 fd2e 	bl	46a8 <accessor__rmw__2>
     c4c:	4603      	mov	r3, r0
     c4e:	61e3      	str	r3, [r4, #28]
     c50:	2300      	movs	r3, #0
     c52:	71bb      	strb	r3, [r7, #6]
     c54:	2301      	movs	r3, #1
     c56:	717b      	strb	r3, [r7, #5]
     c58:	2300      	movs	r3, #0
     c5a:	71fb      	strb	r3, [r7, #7]
     c5c:	f44f 443c 	mov.w	r4, #48128	; 0xbc00
     c60:	f6cf 74f7 	movt	r4, #65527	; 0xfff7
     c64:	79fa      	ldrb	r2, [r7, #7]
     c66:	4615      	mov	r5, r2
     c68:	f44f 433c 	mov.w	r3, #48128	; 0xbc00
     c6c:	f6cf 73f7 	movt	r3, #65527	; 0xfff7
     c70:	0152      	lsls	r2, r2, #5
     c72:	4413      	add	r3, r2
     c74:	3338      	adds	r3, #56	; 0x38
     c76:	685b      	ldr	r3, [r3, #4]
     c78:	4618      	mov	r0, r3
     c7a:	2107      	movs	r1, #7
     c7c:	2200      	movs	r2, #0
     c7e:	2300      	movs	r3, #0
     c80:	f003 fcfe 	bl	4680 <accessor__rmw>
     c84:	4602      	mov	r2, r0
     c86:	016b      	lsls	r3, r5, #5
     c88:	4423      	add	r3, r4
     c8a:	3338      	adds	r3, #56	; 0x38
     c8c:	605a      	str	r2, [r3, #4]
     c8e:	f44f 443c 	mov.w	r4, #48128	; 0xbc00
     c92:	f6cf 74f7 	movt	r4, #65527	; 0xfff7
     c96:	79fa      	ldrb	r2, [r7, #7]
     c98:	4615      	mov	r5, r2
     c9a:	f44f 433c 	mov.w	r3, #48128	; 0xbc00
     c9e:	f6cf 73f7 	movt	r3, #65527	; 0xfff7
     ca2:	0152      	lsls	r2, r2, #5
     ca4:	4413      	add	r3, r2
     ca6:	3330      	adds	r3, #48	; 0x30
     ca8:	685b      	ldr	r3, [r3, #4]
     caa:	4618      	mov	r0, r3
     cac:	2107      	movs	r1, #7
     cae:	2200      	movs	r2, #0
     cb0:	2300      	movs	r3, #0
     cb2:	f003 fce5 	bl	4680 <accessor__rmw>
     cb6:	4602      	mov	r2, r0
     cb8:	016b      	lsls	r3, r5, #5
     cba:	4423      	add	r3, r4
     cbc:	3330      	adds	r3, #48	; 0x30
     cbe:	605a      	str	r2, [r3, #4]
     cc0:	f44f 443c 	mov.w	r4, #48128	; 0xbc00
     cc4:	f6cf 74f7 	movt	r4, #65527	; 0xfff7
     cc8:	79fa      	ldrb	r2, [r7, #7]
     cca:	4615      	mov	r5, r2
     ccc:	f44f 433c 	mov.w	r3, #48128	; 0xbc00
     cd0:	f6cf 73f7 	movt	r3, #65527	; 0xfff7
     cd4:	3202      	adds	r2, #2
     cd6:	0152      	lsls	r2, r2, #5
     cd8:	4413      	add	r3, r2
     cda:	689b      	ldr	r3, [r3, #8]
     cdc:	4618      	mov	r0, r3
     cde:	2107      	movs	r1, #7
     ce0:	2200      	movs	r2, #0
     ce2:	2300      	movs	r3, #0
     ce4:	f003 fccc 	bl	4680 <accessor__rmw>
     ce8:	4602      	mov	r2, r0
     cea:	1cab      	adds	r3, r5, #2
     cec:	015b      	lsls	r3, r3, #5
     cee:	4423      	add	r3, r4
     cf0:	609a      	str	r2, [r3, #8]
     cf2:	f44f 443c 	mov.w	r4, #48128	; 0xbc00
     cf6:	f6cf 74f7 	movt	r4, #65527	; 0xfff7
     cfa:	79fa      	ldrb	r2, [r7, #7]
     cfc:	4615      	mov	r5, r2
     cfe:	f44f 433c 	mov.w	r3, #48128	; 0xbc00
     d02:	f6cf 73f7 	movt	r3, #65527	; 0xfff7
     d06:	0152      	lsls	r2, r2, #5
     d08:	4413      	add	r3, r2
     d0a:	3348      	adds	r3, #72	; 0x48
     d0c:	689b      	ldr	r3, [r3, #8]
     d0e:	4618      	mov	r0, r3
     d10:	2107      	movs	r1, #7
     d12:	2200      	movs	r2, #0
     d14:	2300      	movs	r3, #0
     d16:	f003 fcb3 	bl	4680 <accessor__rmw>
     d1a:	4602      	mov	r2, r0
     d1c:	016b      	lsls	r3, r5, #5
     d1e:	4423      	add	r3, r4
     d20:	3348      	adds	r3, #72	; 0x48
     d22:	609a      	str	r2, [r3, #8]
     d24:	f44f 443c 	mov.w	r4, #48128	; 0xbc00
     d28:	f6cf 74f7 	movt	r4, #65527	; 0xfff7
     d2c:	79fa      	ldrb	r2, [r7, #7]
     d2e:	4615      	mov	r5, r2
     d30:	f44f 433c 	mov.w	r3, #48128	; 0xbc00
     d34:	f6cf 73f7 	movt	r3, #65527	; 0xfff7
     d38:	0152      	lsls	r2, r2, #5
     d3a:	4413      	add	r3, r2
     d3c:	3348      	adds	r3, #72	; 0x48
     d3e:	685b      	ldr	r3, [r3, #4]
     d40:	4618      	mov	r0, r3
     d42:	2107      	movs	r1, #7
     d44:	2200      	movs	r2, #0
     d46:	2300      	movs	r3, #0
     d48:	f003 fc9a 	bl	4680 <accessor__rmw>
     d4c:	4602      	mov	r2, r0
     d4e:	016b      	lsls	r3, r5, #5
     d50:	4423      	add	r3, r4
     d52:	3348      	adds	r3, #72	; 0x48
     d54:	605a      	str	r2, [r3, #4]
     d56:	79fb      	ldrb	r3, [r7, #7]
     d58:	2b01      	cmp	r3, #1
     d5a:	d003      	beq.n	d64 <gioports__gioinit+0x188>
     d5c:	79fb      	ldrb	r3, [r7, #7]
     d5e:	3301      	adds	r3, #1
     d60:	71fb      	strb	r3, [r7, #7]
     d62:	e77b      	b.n	c5c <gioports__gioinit+0x80>
     d64:	f44f 443c 	mov.w	r4, #48128	; 0xbc00
     d68:	f6cf 74f7 	movt	r4, #65527	; 0xfff7
     d6c:	f44f 433c 	mov.w	r3, #48128	; 0xbc00
     d70:	f6cf 73f7 	movt	r3, #65527	; 0xfff7
     d74:	6d5b      	ldr	r3, [r3, #84]	; 0x54
     d76:	4618      	mov	r0, r3
     d78:	2107      	movs	r1, #7
     d7a:	2200      	movs	r2, #0
     d7c:	23c0      	movs	r3, #192	; 0xc0
     d7e:	f003 fc7f 	bl	4680 <accessor__rmw>
     d82:	4603      	mov	r3, r0
     d84:	6563      	str	r3, [r4, #84]	; 0x54
     d86:	3708      	adds	r7, #8
     d88:	46bd      	mov	sp, r7
     d8a:	bdb0      	pop	{r4, r5, r7, pc}

00000d8c <gioports__giosetbit>:
     d8c:	b5b0      	push	{r4, r5, r7, lr}
     d8e:	b082      	sub	sp, #8
     d90:	af00      	add	r7, sp, #0
     d92:	4603      	mov	r3, r0
     d94:	6039      	str	r1, [r7, #0]
     d96:	71fb      	strb	r3, [r7, #7]
     d98:	4613      	mov	r3, r2
     d9a:	71bb      	strb	r3, [r7, #6]
     d9c:	79fb      	ldrb	r3, [r7, #7]
     d9e:	2b01      	cmp	r3, #1
     da0:	d81e      	bhi.n	de0 <gioports__giosetbit+0x54>
     da2:	f44f 443c 	mov.w	r4, #48128	; 0xbc00
     da6:	f6cf 74f7 	movt	r4, #65527	; 0xfff7
     daa:	79fd      	ldrb	r5, [r7, #7]
     dac:	f44f 433c 	mov.w	r3, #48128	; 0xbc00
     db0:	f6cf 73f7 	movt	r3, #65527	; 0xfff7
     db4:	79fa      	ldrb	r2, [r7, #7]
     db6:	0152      	lsls	r2, r2, #5
     db8:	4413      	add	r3, r2
     dba:	3338      	adds	r3, #56	; 0x38
     dbc:	685a      	ldr	r2, [r3, #4]
     dbe:	79bb      	ldrb	r3, [r7, #6]
     dc0:	2b00      	cmp	r3, #0
     dc2:	d001      	beq.n	dc8 <gioports__giosetbit+0x3c>
     dc4:	2301      	movs	r3, #1
     dc6:	e000      	b.n	dca <gioports__giosetbit+0x3e>
     dc8:	2300      	movs	r3, #0
     dca:	4610      	mov	r0, r2
     dcc:	6839      	ldr	r1, [r7, #0]
     dce:	683a      	ldr	r2, [r7, #0]
     dd0:	f003 fc56 	bl	4680 <accessor__rmw>
     dd4:	4602      	mov	r2, r0
     dd6:	016b      	lsls	r3, r5, #5
     dd8:	4423      	add	r3, r4
     dda:	3338      	adds	r3, #56	; 0x38
     ddc:	605a      	str	r2, [r3, #4]
     dde:	e000      	b.n	de2 <gioports__giosetbit+0x56>
     de0:	bf00      	nop
     de2:	3708      	adds	r7, #8
     de4:	46bd      	mov	sp, r7
     de6:	bdb0      	pop	{r4, r5, r7, pc}

00000de8 <driver__controller1TKVIP>:
     de8:	b5b0      	push	{r4, r5, r7, lr}
     dea:	b08e      	sub	sp, #56	; 0x38
     dec:	af0a      	add	r7, sp, #40	; 0x28
     dee:	60f8      	str	r0, [r7, #12]
     df0:	60b9      	str	r1, [r7, #8]
     df2:	607a      	str	r2, [r7, #4]
     df4:	68fb      	ldr	r3, [r7, #12]
     df6:	2200      	movs	r2, #0
     df8:	601a      	str	r2, [r3, #0]
     dfa:	68fb      	ldr	r3, [r7, #12]
     dfc:	f503 5389 	add.w	r3, r3, #4384	; 0x1120
     e00:	3318      	adds	r3, #24
     e02:	2278      	movs	r2, #120	; 0x78
     e04:	601a      	str	r2, [r3, #0]
     e06:	68fb      	ldr	r3, [r7, #12]
     e08:	f503 5389 	add.w	r3, r3, #4384	; 0x1120
     e0c:	331c      	adds	r3, #28
     e0e:	f44f 5280 	mov.w	r2, #4096	; 0x1000
     e12:	601a      	str	r2, [r3, #0]
     e14:	68fb      	ldr	r3, [r7, #12]
     e16:	f103 0208 	add.w	r2, r3, #8
     e1a:	68fb      	ldr	r3, [r7, #12]
     e1c:	601a      	str	r2, [r3, #0]
     e1e:	68fb      	ldr	r3, [r7, #12]
     e20:	f503 5389 	add.w	r3, r3, #4384	; 0x1120
     e24:	3318      	adds	r3, #24
     e26:	6818      	ldr	r0, [r3, #0]
     e28:	68fb      	ldr	r3, [r7, #12]
     e2a:	f503 739c 	add.w	r3, r3, #312	; 0x138
     e2e:	461d      	mov	r5, r3
     e30:	68fb      	ldr	r3, [r7, #12]
     e32:	f503 5389 	add.w	r3, r3, #4384	; 0x1120
     e36:	331c      	adds	r3, #28
     e38:	681c      	ldr	r4, [r3, #0]
     e3a:	68fa      	ldr	r2, [r7, #12]
     e3c:	68fb      	ldr	r3, [r7, #12]
     e3e:	6819      	ldr	r1, [r3, #0]
     e40:	f04f 33ff 	mov.w	r3, #4294967295
     e44:	9300      	str	r3, [sp, #0]
     e46:	f640 7311 	movw	r3, #3857	; 0xf11
     e4a:	f2c0 0300 	movt	r3, #0
     e4e:	9301      	str	r3, [sp, #4]
     e50:	9202      	str	r2, [sp, #8]
     e52:	f240 030a 	movw	r3, #10
     e56:	f6c0 0300 	movt	r3, #2048	; 0x800
     e5a:	9303      	str	r3, [sp, #12]
     e5c:	687b      	ldr	r3, [r7, #4]
     e5e:	9304      	str	r3, [sp, #16]
     e60:	e9d7 2308 	ldrd	r2, r3, [r7, #32]
     e64:	e9cd 2306 	strd	r2, r3, [sp, #24]
     e68:	9108      	str	r1, [sp, #32]
     e6a:	4629      	mov	r1, r5
     e6c:	4622      	mov	r2, r4
     e6e:	2302      	movs	r3, #2
     e70:	f000 fb3a 	bl	14e8 <system__tasking__restricted__stages__create_restricted_task>
     e74:	3710      	adds	r7, #16
     e76:	46bd      	mov	sp, r7
     e78:	bdb0      	pop	{r4, r5, r7, pc}
     e7a:	bf00      	nop

00000e7c <driver__controller2TKVIP>:
     e7c:	b5b0      	push	{r4, r5, r7, lr}
     e7e:	b08e      	sub	sp, #56	; 0x38
     e80:	af0a      	add	r7, sp, #40	; 0x28
     e82:	60f8      	str	r0, [r7, #12]
     e84:	60b9      	str	r1, [r7, #8]
     e86:	607a      	str	r2, [r7, #4]
     e88:	68fb      	ldr	r3, [r7, #12]
     e8a:	2200      	movs	r2, #0
     e8c:	601a      	str	r2, [r3, #0]
     e8e:	68fb      	ldr	r3, [r7, #12]
     e90:	f503 5389 	add.w	r3, r3, #4384	; 0x1120
     e94:	3318      	adds	r3, #24
     e96:	2278      	movs	r2, #120	; 0x78
     e98:	601a      	str	r2, [r3, #0]
     e9a:	68fb      	ldr	r3, [r7, #12]
     e9c:	f503 5389 	add.w	r3, r3, #4384	; 0x1120
     ea0:	331c      	adds	r3, #28
     ea2:	f44f 5280 	mov.w	r2, #4096	; 0x1000
     ea6:	601a      	str	r2, [r3, #0]
     ea8:	68fb      	ldr	r3, [r7, #12]
     eaa:	f103 0208 	add.w	r2, r3, #8
     eae:	68fb      	ldr	r3, [r7, #12]
     eb0:	601a      	str	r2, [r3, #0]
     eb2:	68fb      	ldr	r3, [r7, #12]
     eb4:	f503 5389 	add.w	r3, r3, #4384	; 0x1120
     eb8:	3318      	adds	r3, #24
     eba:	6818      	ldr	r0, [r3, #0]
     ebc:	68fb      	ldr	r3, [r7, #12]
     ebe:	f503 739c 	add.w	r3, r3, #312	; 0x138
     ec2:	461d      	mov	r5, r3
     ec4:	68fb      	ldr	r3, [r7, #12]
     ec6:	f503 5389 	add.w	r3, r3, #4384	; 0x1120
     eca:	331c      	adds	r3, #28
     ecc:	681c      	ldr	r4, [r3, #0]
     ece:	68fa      	ldr	r2, [r7, #12]
     ed0:	68fb      	ldr	r3, [r7, #12]
     ed2:	6819      	ldr	r1, [r3, #0]
     ed4:	f04f 33ff 	mov.w	r3, #4294967295
     ed8:	9300      	str	r3, [sp, #0]
     eda:	f640 7381 	movw	r3, #3969	; 0xf81
     ede:	f2c0 0300 	movt	r3, #0
     ee2:	9301      	str	r3, [sp, #4]
     ee4:	9202      	str	r2, [sp, #8]
     ee6:	f240 0311 	movw	r3, #17
     eea:	f6c0 0300 	movt	r3, #2048	; 0x800
     eee:	9303      	str	r3, [sp, #12]
     ef0:	687b      	ldr	r3, [r7, #4]
     ef2:	9304      	str	r3, [sp, #16]
     ef4:	e9d7 2308 	ldrd	r2, r3, [r7, #32]
     ef8:	e9cd 2306 	strd	r2, r3, [sp, #24]
     efc:	9108      	str	r1, [sp, #32]
     efe:	4629      	mov	r1, r5
     f00:	4622      	mov	r2, r4
     f02:	2302      	movs	r3, #2
     f04:	f000 faf0 	bl	14e8 <system__tasking__restricted__stages__create_restricted_task>
     f08:	3710      	adds	r7, #16
     f0a:	46bd      	mov	sp, r7
     f0c:	bdb0      	pop	{r4, r5, r7, pc}
     f0e:	bf00      	nop

00000f10 <driver__controller1TKB>:
     f10:	b580      	push	{r7, lr}
     f12:	b086      	sub	sp, #24
     f14:	af00      	add	r7, sp, #0
     f16:	6078      	str	r0, [r7, #4]
     f18:	20c8      	movs	r0, #200	; 0xc8
     f1a:	f001 fcbb 	bl	2894 <ada__real_time__milliseconds>
     f1e:	e9c7 0104 	strd	r0, r1, [r7, #16]
     f22:	f000 fad5 	bl	14d0 <system__tasking__restricted__stages__complete_restricted_activation>
     f26:	f001 fc71 	bl	280c <ada__real_time__clock>
     f2a:	e9c7 0102 	strd	r0, r1, [r7, #8]
     f2e:	2001      	movs	r0, #1
     f30:	2106      	movs	r1, #6
     f32:	2201      	movs	r2, #1
     f34:	f7ff ff2a 	bl	d8c <gioports__giosetbit>
     f38:	e9d7 0102 	ldrd	r0, r1, [r7, #8]
     f3c:	e9d7 2304 	ldrd	r2, r3, [r7, #16]
     f40:	f001 fb36 	bl	25b0 <ada__real_time__Oadd>
     f44:	e9c7 0102 	strd	r0, r1, [r7, #8]
     f48:	e9d7 0102 	ldrd	r0, r1, [r7, #8]
     f4c:	f000 fce0 	bl	1910 <ada__real_time__delays__delay_until>
     f50:	f242 3040 	movw	r0, #9024	; 0x2340
     f54:	f6c0 0000 	movt	r0, #2048	; 0x800
     f58:	f001 f842 	bl	1fe0 <ada__synchronous_task_control__set_true>
     f5c:	2001      	movs	r0, #1
     f5e:	2106      	movs	r1, #6
     f60:	2200      	movs	r2, #0
     f62:	f7ff ff13 	bl	d8c <gioports__giosetbit>
     f66:	e9d7 0102 	ldrd	r0, r1, [r7, #8]
     f6a:	e9d7 2304 	ldrd	r2, r3, [r7, #16]
     f6e:	f001 fb1f 	bl	25b0 <ada__real_time__Oadd>
     f72:	e9c7 0102 	strd	r0, r1, [r7, #8]
     f76:	e9d7 0102 	ldrd	r0, r1, [r7, #8]
     f7a:	f000 fcc9 	bl	1910 <ada__real_time__delays__delay_until>
     f7e:	e7d2      	b.n	f26 <driver__controller1TKB+0x16>

00000f80 <driver__controller2TKB>:
     f80:	b580      	push	{r7, lr}
     f82:	b086      	sub	sp, #24
     f84:	af00      	add	r7, sp, #0
     f86:	6078      	str	r0, [r7, #4]
     f88:	2064      	movs	r0, #100	; 0x64
     f8a:	f001 fc83 	bl	2894 <ada__real_time__milliseconds>
     f8e:	e9c7 0104 	strd	r0, r1, [r7, #16]
     f92:	f000 fa9d 	bl	14d0 <system__tasking__restricted__stages__complete_restricted_activation>
     f96:	f242 3040 	movw	r0, #9024	; 0x2340
     f9a:	f6c0 0000 	movt	r0, #2048	; 0x800
     f9e:	f001 f893 	bl	20c8 <ada__synchronous_task_control__suspend_until_true>
     fa2:	2001      	movs	r0, #1
     fa4:	2107      	movs	r1, #7
     fa6:	2201      	movs	r2, #1
     fa8:	f7ff fef0 	bl	d8c <gioports__giosetbit>
     fac:	f001 fc2e 	bl	280c <ada__real_time__clock>
     fb0:	e9c7 0102 	strd	r0, r1, [r7, #8]
     fb4:	e9d7 0102 	ldrd	r0, r1, [r7, #8]
     fb8:	e9d7 2304 	ldrd	r2, r3, [r7, #16]
     fbc:	f001 faf8 	bl	25b0 <ada__real_time__Oadd>
     fc0:	e9c7 0102 	strd	r0, r1, [r7, #8]
     fc4:	e9d7 0102 	ldrd	r0, r1, [r7, #8]
     fc8:	f000 fca2 	bl	1910 <ada__real_time__delays__delay_until>
     fcc:	2001      	movs	r0, #1
     fce:	2107      	movs	r1, #7
     fd0:	2200      	movs	r2, #0
     fd2:	f7ff fedb 	bl	d8c <gioports__giosetbit>
     fd6:	e9d7 0102 	ldrd	r0, r1, [r7, #8]
     fda:	e9d7 2304 	ldrd	r2, r3, [r7, #16]
     fde:	f001 fae7 	bl	25b0 <ada__real_time__Oadd>
     fe2:	e9c7 0102 	strd	r0, r1, [r7, #8]
     fe6:	e9d7 0102 	ldrd	r0, r1, [r7, #8]
     fea:	f000 fc91 	bl	1910 <ada__real_time__delays__delay_until>
     fee:	f242 3040 	movw	r0, #9024	; 0x2340
     ff2:	f6c0 0000 	movt	r0, #2048	; 0x800
     ff6:	f000 ffef 	bl	1fd8 <ada__synchronous_task_control__set_false>
     ffa:	e7cc      	b.n	f96 <driver__controller2TKB+0x16>

00000ffc <driver___elabb>:
     ffc:	b580      	push	{r7, lr}
     ffe:	af00      	add	r7, sp, #0
    1000:	f242 3040 	movw	r0, #9024	; 0x2340
    1004:	f6c0 0000 	movt	r0, #2048	; 0x800
    1008:	f000 ffe0 	bl	1fcc <ada__synchronous_task_control__suspension_objectIP>
    100c:	f240 030a 	movw	r3, #10
    1010:	f6c0 0300 	movt	r3, #2048	; 0x800
    1014:	2201      	movs	r2, #1
    1016:	701a      	strb	r2, [r3, #0]
    1018:	f240 0311 	movw	r3, #17
    101c:	f6c0 0300 	movt	r3, #2048	; 0x800
    1020:	2201      	movs	r2, #1
    1022:	701a      	strb	r2, [r3, #0]
    1024:	f240 00b8 	movw	r0, #184	; 0xb8
    1028:	f6c0 0000 	movt	r0, #2048	; 0x800
    102c:	f000 fa40 	bl	14b0 <system__tasking__restricted__stages__activate_restricted_tasks>
    1030:	bd80      	pop	{r7, pc}
    1032:	bf00      	nop

00001034 <driver___elabs>:
    1034:	e92d 43b0 	stmdb	sp!, {r4, r5, r7, r8, r9, lr}
    1038:	b082      	sub	sp, #8
    103a:	af02      	add	r7, sp, #8
    103c:	f240 00b8 	movw	r0, #184	; 0xb8
    1040:	f6c0 0000 	movt	r0, #2048	; 0x800
    1044:	f001 fdc0 	bl	2bc8 <system__tasking__activation_chainIP>
    1048:	f240 0810 	movw	r8, #16
    104c:	f6c0 0800 	movt	r8, #2048	; 0x800
    1050:	f644 6984 	movw	r9, #20100	; 0x4e84
    1054:	f2c0 0900 	movt	r9, #0
    1058:	e9cd 8900 	strd	r8, r9, [sp]
    105c:	f240 00c0 	movw	r0, #192	; 0xc0
    1060:	f6c0 0000 	movt	r0, #2048	; 0x800
    1064:	2103      	movs	r1, #3
    1066:	f240 02b8 	movw	r2, #184	; 0xb8
    106a:	f6c0 0200 	movt	r2, #2048	; 0x800
    106e:	f7ff febb 	bl	de8 <driver__controller1TKVIP>
    1072:	f240 0418 	movw	r4, #24
    1076:	f6c0 0400 	movt	r4, #2048	; 0x800
    107a:	f644 6584 	movw	r5, #20100	; 0x4e84
    107e:	f2c0 0500 	movt	r5, #0
    1082:	e9cd 4500 	strd	r4, r5, [sp]
    1086:	f241 2000 	movw	r0, #4608	; 0x1200
    108a:	f6c0 0000 	movt	r0, #2048	; 0x800
    108e:	2103      	movs	r1, #3
    1090:	f240 02b8 	movw	r2, #184	; 0xb8
    1094:	f6c0 0200 	movt	r2, #2048	; 0x800
    1098:	f7ff fef0 	bl	e7c <driver__controller2TKVIP>
    109c:	46bd      	mov	sp, r7
    109e:	e8bd 83b0 	ldmia.w	sp!, {r4, r5, r7, r8, r9, pc}
    10a2:	bf00      	nop

000010a4 <__gnat_last_chance_handler>:
    10a4:	b480      	push	{r7}
    10a6:	b083      	sub	sp, #12
    10a8:	af00      	add	r7, sp, #0
    10aa:	6078      	str	r0, [r7, #4]
    10ac:	6039      	str	r1, [r7, #0]
    10ae:	e7fe      	b.n	10ae <__gnat_last_chance_handler+0xa>

000010b0 <sys__vim__Tvim_ram_blockBIP>:
    10b0:	b480      	push	{r7}
    10b2:	b083      	sub	sp, #12
    10b4:	af00      	add	r7, sp, #0
    10b6:	e9c7 0100 	strd	r0, r1, [r7]
    10ba:	370c      	adds	r7, #12
    10bc:	46bd      	mov	sp, r7
    10be:	f85d 7b04 	ldr.w	r7, [sp], #4
    10c2:	4770      	bx	lr

000010c4 <sys__vim__vim_init>:
    10c4:	b590      	push	{r4, r7, lr}
    10c6:	b083      	sub	sp, #12
    10c8:	af00      	add	r7, sp, #0
    10ca:	f44f 447d 	mov.w	r4, #64768	; 0xfd00
    10ce:	f6cf 74ff 	movt	r4, #65535	; 0xffff
    10d2:	f44f 437d 	mov.w	r3, #64768	; 0xfd00
    10d6:	f6cf 73ff 	movt	r3, #65535	; 0xffff
    10da:	f8d3 30f0 	ldr.w	r3, [r3, #240]	; 0xf0
    10de:	4618      	mov	r0, r3
    10e0:	211f      	movs	r1, #31
    10e2:	2200      	movs	r2, #0
    10e4:	230a      	movs	r3, #10
    10e6:	f2c0 0305 	movt	r3, #5
    10ea:	f003 fac9 	bl	4680 <accessor__rmw>
    10ee:	4603      	mov	r3, r0
    10f0:	f8c4 30f0 	str.w	r3, [r4, #240]	; 0xf0
    10f4:	2301      	movs	r3, #1
    10f6:	607b      	str	r3, [r7, #4]
    10f8:	687b      	ldr	r3, [r7, #4]
    10fa:	2b80      	cmp	r3, #128	; 0x80
    10fc:	dc0e      	bgt.n	111c <sys__vim__vim_init+0x58>
    10fe:	f44f 5200 	mov.w	r2, #8192	; 0x2000
    1102:	f6cf 72f8 	movt	r2, #65528	; 0xfff8
    1106:	687b      	ldr	r3, [r7, #4]
    1108:	f103 4380 	add.w	r3, r3, #1073741824	; 0x40000000
    110c:	3b01      	subs	r3, #1
    110e:	2100      	movs	r1, #0
    1110:	f842 1023 	str.w	r1, [r2, r3, lsl #2]
    1114:	687b      	ldr	r3, [r7, #4]
    1116:	3301      	adds	r3, #1
    1118:	607b      	str	r3, [r7, #4]
    111a:	e7ed      	b.n	10f8 <sys__vim__vim_init+0x34>
    111c:	370c      	adds	r7, #12
    111e:	46bd      	mov	sp, r7
    1120:	bd90      	pop	{r4, r7, pc}
    1122:	bf00      	nop

00001124 <rm57_init>:
    1124:	b580      	push	{r7, lr}
    1126:	af00      	add	r7, sp, #0
    1128:	f7ff ffcc 	bl	10c4 <sys__vim__vim_init>
    112c:	f7ff fa62 	bl	5f4 <sys__pll__initialize_clocks>
    1130:	f7ff f8b0 	bl	294 <sys__flash__flash_init>
    1134:	f7ff fb82 	bl	83c <sys__pll__pll_spinup>
    1138:	f7ff fa32 	bl	5a0 <sys__sys_init>
    113c:	f7ff fd4e 	bl	bdc <gioports__gioinit>
    1140:	bd80      	pop	{r7, pc}
    1142:	bf00      	nop

00001144 <system__tasking__restricted__stages__create_restricted_task__2>:
    1144:	b570      	push	{r4, r5, r6, lr}
    1146:	b088      	sub	sp, #32
    1148:	4616      	mov	r6, r2
    114a:	f1b0 3fff 	cmp.w	r0, #4294967295
    114e:	bf14      	ite	ne
    1150:	4602      	movne	r2, r0
    1152:	2278      	moveq	r2, #120	; 0x78
    1154:	9c0c      	ldr	r4, [sp, #48]	; 0x30
    1156:	9d0f      	ldr	r5, [sp, #60]	; 0x3c
    1158:	1c60      	adds	r0, r4, #1
    115a:	d011      	beq.n	1180 <system__tasking__restricted__stages__create_restricted_task__2+0x3c>
    115c:	2c01      	cmp	r4, #1
    115e:	bf98      	it	ls
    1160:	b2e4      	uxtbls	r4, r4
    1162:	d817      	bhi.n	1194 <system__tasking__restricted__stages__create_restricted_task__2+0x50>
    1164:	9300      	str	r3, [sp, #0]
    1166:	4623      	mov	r3, r4
    1168:	9101      	str	r1, [sp, #4]
    116a:	9602      	str	r6, [sp, #8]
    116c:	980d      	ldr	r0, [sp, #52]	; 0x34
    116e:	9503      	str	r5, [sp, #12]
    1170:	990e      	ldr	r1, [sp, #56]	; 0x38
    1172:	f001 fd39 	bl	2be8 <system__tasking__initialize_atcb>
    1176:	b1a0      	cbz	r0, 11a2 <system__tasking__restricted__stages__create_restricted_task__2+0x5e>
    1178:	f8c5 5120 	str.w	r5, [r5, #288]	; 0x120
    117c:	b008      	add	sp, #32
    117e:	bd70      	pop	{r4, r5, r6, pc}
    1180:	9307      	str	r3, [sp, #28]
    1182:	9106      	str	r1, [sp, #24]
    1184:	9205      	str	r2, [sp, #20]
    1186:	f001 fed5 	bl	2f34 <system__tasking__self>
    118a:	9a05      	ldr	r2, [sp, #20]
    118c:	9906      	ldr	r1, [sp, #24]
    118e:	9b07      	ldr	r3, [sp, #28]
    1190:	7a44      	ldrb	r4, [r0, #9]
    1192:	e7e7      	b.n	1164 <system__tasking__restricted__stages__create_restricted_task__2+0x20>
    1194:	f644 6090 	movw	r0, #20112	; 0x4e90
    1198:	2100      	movs	r1, #0
    119a:	f2c0 0000 	movt	r0, #0
    119e:	f7ff ff81 	bl	10a4 <__gnat_last_chance_handler>
    11a2:	4802      	ldr	r0, [pc, #8]	; (11ac <system__tasking__restricted__stages__create_restricted_task__2+0x68>)
    11a4:	f44f 71af 	mov.w	r1, #350	; 0x15e
    11a8:	f7ff ff7c 	bl	10a4 <__gnat_last_chance_handler>
    11ac:	00004edc 	.word	0x00004edc

000011b0 <system__tasking__restricted__stages__task_wrapper>:
    11b0:	e92d 41f0 	stmdb	sp!, {r4, r5, r6, r7, r8, lr}
    11b4:	f246 6367 	movw	r3, #26215	; 0x6667
    11b8:	b082      	sub	sp, #8
    11ba:	f8d0 210c 	ldr.w	r2, [r0, #268]	; 0x10c
    11be:	f2c6 6366 	movt	r3, #26214	; 0x6666
    11c2:	af00      	add	r7, sp, #0
    11c4:	4604      	mov	r4, r0
    11c6:	2600      	movs	r6, #0
    11c8:	fb83 1302 	smull	r1, r3, r3, r2
    11cc:	17d2      	asrs	r2, r2, #31
    11ce:	f240 0538 	movw	r5, #56	; 0x38
    11d2:	ebc2 03a3 	rsb	r3, r2, r3, asr #2
    11d6:	4619      	mov	r1, r3
    11d8:	f6c0 0500 	movt	r5, #2048	; 0x800
    11dc:	ea23 73e3 	bic.w	r3, r3, r3, asr #31
    11e0:	3307      	adds	r3, #7
    11e2:	f023 0307 	bic.w	r3, r3, #7
    11e6:	3308      	adds	r3, #8
    11e8:	ebad 0d03 	sub.w	sp, sp, r3
    11ec:	4668      	mov	r0, sp
    11ee:	f8c4 d110 	str.w	sp, [r4, #272]	; 0x110
    11f2:	603e      	str	r6, [r7, #0]
    11f4:	607e      	str	r6, [r7, #4]
    11f6:	f003 f98f 	bl	4518 <system__secondary_stack__ss_init>
    11fa:	f240 034c 	movw	r3, #76	; 0x4c
    11fe:	f6c0 0300 	movt	r3, #2048	; 0x800
    1202:	682a      	ldr	r2, [r5, #0]
    1204:	f8c2 40a0 	str.w	r4, [r2, #160]	; 0xa0
    1208:	681a      	ldr	r2, [r3, #0]
    120a:	f8c4 60fc 	str.w	r6, [r4, #252]	; 0xfc
    120e:	2a00      	cmp	r2, #0
    1210:	f000 80a8 	beq.w	1364 <_bss_words+0x4>
    1214:	f8c2 4114 	str.w	r4, [r2, #276]	; 0x114
    1218:	601c      	str	r4, [r3, #0]
    121a:	68e0      	ldr	r0, [r4, #12]
    121c:	b672      	cpsid	i
    121e:	682e      	ldr	r6, [r5, #0]
    1220:	f896 30a4 	ldrb.w	r3, [r6, #164]	; 0xa4
    1224:	2b00      	cmp	r3, #0
    1226:	f8c6 00ac 	str.w	r0, [r6, #172]	; 0xac
    122a:	bf08      	it	eq
    122c:	2301      	moveq	r3, #1
    122e:	f8d6 20b8 	ldr.w	r2, [r6, #184]	; 0xb8
    1232:	b1ea      	cbz	r2, 1270 <system__tasking__restricted__stages__task_wrapper+0xc0>
    1234:	f8d2 10ac 	ldr.w	r1, [r2, #172]	; 0xac
    1238:	4288      	cmp	r0, r1
    123a:	da19      	bge.n	1270 <system__tasking__restricted__stages__task_wrapper+0xc0>
    123c:	b25b      	sxtb	r3, r3
    123e:	f103 4380 	add.w	r3, r3, #1073741824	; 0x40000000
    1242:	f240 012c 	movw	r1, #44	; 0x2c
    1246:	3b01      	subs	r3, #1
    1248:	f6c0 0100 	movt	r1, #2048	; 0x800
    124c:	f841 2023 	str.w	r2, [r1, r3, lsl #2]
    1250:	f851 2023 	ldr.w	r2, [r1, r3, lsl #2]
    1254:	e004      	b.n	1260 <system__tasking__restricted__stages__task_wrapper+0xb0>
    1256:	f8d3 10ac 	ldr.w	r1, [r3, #172]	; 0xac
    125a:	4288      	cmp	r0, r1
    125c:	da04      	bge.n	1268 <system__tasking__restricted__stages__task_wrapper+0xb8>
    125e:	461a      	mov	r2, r3
    1260:	f8d2 30b8 	ldr.w	r3, [r2, #184]	; 0xb8
    1264:	2b00      	cmp	r3, #0
    1266:	d1f6      	bne.n	1256 <system__tasking__restricted__stages__task_wrapper+0xa6>
    1268:	f8c6 30b8 	str.w	r3, [r6, #184]	; 0xb8
    126c:	f8c2 60b8 	str.w	r6, [r2, #184]	; 0xb8
    1270:	f000 fb70 	bl	1954 <system__bb__protection__leave_kernel>
    1274:	f8d4 3104 	ldr.w	r3, [r4, #260]	; 0x104
    1278:	f8d4 0100 	ldr.w	r0, [r4, #256]	; 0x100
    127c:	4798      	blx	r3
    127e:	b672      	cpsid	i
    1280:	6828      	ldr	r0, [r5, #0]
    1282:	22f2      	movs	r2, #242	; 0xf2
    1284:	f890 30a4 	ldrb.w	r3, [r0, #164]	; 0xa4
    1288:	2b00      	cmp	r3, #0
    128a:	f8c0 20ac 	str.w	r2, [r0, #172]	; 0xac
    128e:	bf08      	it	eq
    1290:	2301      	moveq	r3, #1
    1292:	f8d0 20b8 	ldr.w	r2, [r0, #184]	; 0xb8
    1296:	b1ea      	cbz	r2, 12d4 <system__tasking__restricted__stages__task_wrapper+0x124>
    1298:	f8d2 10ac 	ldr.w	r1, [r2, #172]	; 0xac
    129c:	29f2      	cmp	r1, #242	; 0xf2
    129e:	dd19      	ble.n	12d4 <system__tasking__restricted__stages__task_wrapper+0x124>
    12a0:	b25b      	sxtb	r3, r3
    12a2:	f103 4380 	add.w	r3, r3, #1073741824	; 0x40000000
    12a6:	f240 012c 	movw	r1, #44	; 0x2c
    12aa:	3b01      	subs	r3, #1
    12ac:	f6c0 0100 	movt	r1, #2048	; 0x800
    12b0:	f841 2023 	str.w	r2, [r1, r3, lsl #2]
    12b4:	f851 2023 	ldr.w	r2, [r1, r3, lsl #2]
    12b8:	e004      	b.n	12c4 <system__tasking__restricted__stages__task_wrapper+0x114>
    12ba:	f8d3 10ac 	ldr.w	r1, [r3, #172]	; 0xac
    12be:	29f2      	cmp	r1, #242	; 0xf2
    12c0:	dd04      	ble.n	12cc <system__tasking__restricted__stages__task_wrapper+0x11c>
    12c2:	461a      	mov	r2, r3
    12c4:	f8d2 30b8 	ldr.w	r3, [r2, #184]	; 0xb8
    12c8:	2b00      	cmp	r3, #0
    12ca:	d1f6      	bne.n	12ba <system__tasking__restricted__stages__task_wrapper+0x10a>
    12cc:	f8c0 30b8 	str.w	r3, [r0, #184]	; 0xb8
    12d0:	f8c2 00b8 	str.w	r0, [r2, #184]	; 0xb8
    12d4:	f000 fb3e 	bl	1954 <system__bb__protection__leave_kernel>
    12d8:	f240 0364 	movw	r3, #100	; 0x64
    12dc:	f6c0 0300 	movt	r3, #2048	; 0x800
    12e0:	46b8      	mov	r8, r7
    12e2:	68e6      	ldr	r6, [r4, #12]
    12e4:	e893 0003 	ldmia.w	r3, {r0, r1}
    12e8:	e887 0003 	stmia.w	r7, {r0, r1}
    12ec:	b672      	cpsid	i
    12ee:	6828      	ldr	r0, [r5, #0]
    12f0:	f890 30a4 	ldrb.w	r3, [r0, #164]	; 0xa4
    12f4:	2b00      	cmp	r3, #0
    12f6:	f8c0 60ac 	str.w	r6, [r0, #172]	; 0xac
    12fa:	bf08      	it	eq
    12fc:	2301      	moveq	r3, #1
    12fe:	f8d0 20b8 	ldr.w	r2, [r0, #184]	; 0xb8
    1302:	b1ea      	cbz	r2, 1340 <system__tasking__restricted__stages__task_wrapper+0x190>
    1304:	f8d2 10ac 	ldr.w	r1, [r2, #172]	; 0xac
    1308:	428e      	cmp	r6, r1
    130a:	da19      	bge.n	1340 <system__tasking__restricted__stages__task_wrapper+0x190>
    130c:	b25b      	sxtb	r3, r3
    130e:	f103 4380 	add.w	r3, r3, #1073741824	; 0x40000000
    1312:	f240 012c 	movw	r1, #44	; 0x2c
    1316:	3b01      	subs	r3, #1
    1318:	f6c0 0100 	movt	r1, #2048	; 0x800
    131c:	f841 2023 	str.w	r2, [r1, r3, lsl #2]
    1320:	f851 2023 	ldr.w	r2, [r1, r3, lsl #2]
    1324:	e004      	b.n	1330 <system__tasking__restricted__stages__task_wrapper+0x180>
    1326:	f8d3 10ac 	ldr.w	r1, [r3, #172]	; 0xac
    132a:	428e      	cmp	r6, r1
    132c:	da04      	bge.n	1338 <system__tasking__restricted__stages__task_wrapper+0x188>
    132e:	461a      	mov	r2, r3
    1330:	f8d2 30b8 	ldr.w	r3, [r2, #184]	; 0xb8
    1334:	2b00      	cmp	r3, #0
    1336:	d1f6      	bne.n	1326 <system__tasking__restricted__stages__task_wrapper+0x176>
    1338:	f8c0 30b8 	str.w	r3, [r0, #184]	; 0xb8
    133c:	f8c2 00b8 	str.w	r0, [r2, #184]	; 0xb8
    1340:	f000 fb08 	bl	1954 <system__bb__protection__leave_kernel>
    1344:	4640      	mov	r0, r8
    1346:	490a      	ldr	r1, [pc, #40]	; (1370 <_bss_words+0x10>)
    1348:	2208      	movs	r2, #8
    134a:	f003 f8fd 	bl	4548 <memcmp>
    134e:	b118      	cbz	r0, 1358 <system__tasking__restricted__stages__task_wrapper+0x1a8>
    1350:	4621      	mov	r1, r4
    1352:	e897 0009 	ldmia.w	r7, {r0, r3}
    1356:	4798      	blx	r3
    1358:	f000 fcf0 	bl	1d3c <system__bb__threads__sleep>
    135c:	3708      	adds	r7, #8
    135e:	46bd      	mov	sp, r7
    1360:	e8bd 81f0 	ldmia.w	sp!, {r4, r5, r6, r7, r8, pc}
    1364:	f240 0248 	movw	r2, #72	; 0x48
    1368:	f6c0 0200 	movt	r2, #2048	; 0x800
    136c:	6014      	str	r4, [r2, #0]
    136e:	e753      	b.n	1218 <system__tasking__restricted__stages__task_wrapper+0x68>
    1370:	00004eec 	.word	0x00004eec

00001374 <system__tasking__restricted__stages__activate_tasks>:
    1374:	e92d 47f0 	stmdb	sp!, {r4, r5, r6, r7, r8, r9, sl, lr}
    1378:	f240 0938 	movw	r9, #56	; 0x38
    137c:	b084      	sub	sp, #16
    137e:	f6c0 0900 	movt	r9, #2048	; 0x800
    1382:	4604      	mov	r4, r0
    1384:	f8d9 3000 	ldr.w	r3, [r9]
    1388:	f8d3 a0a0 	ldr.w	sl, [r3, #160]	; 0xa0
    138c:	b672      	cpsid	i
    138e:	f8d9 5000 	ldr.w	r5, [r9]
    1392:	22f2      	movs	r2, #242	; 0xf2
    1394:	f895 30a4 	ldrb.w	r3, [r5, #164]	; 0xa4
    1398:	2b00      	cmp	r3, #0
    139a:	f8c5 20ac 	str.w	r2, [r5, #172]	; 0xac
    139e:	bf08      	it	eq
    13a0:	2301      	moveq	r3, #1
    13a2:	f8d5 20b8 	ldr.w	r2, [r5, #184]	; 0xb8
    13a6:	b1ea      	cbz	r2, 13e4 <system__tasking__restricted__stages__activate_tasks+0x70>
    13a8:	f8d2 10ac 	ldr.w	r1, [r2, #172]	; 0xac
    13ac:	29f2      	cmp	r1, #242	; 0xf2
    13ae:	dd19      	ble.n	13e4 <system__tasking__restricted__stages__activate_tasks+0x70>
    13b0:	b25b      	sxtb	r3, r3
    13b2:	f103 4380 	add.w	r3, r3, #1073741824	; 0x40000000
    13b6:	f240 012c 	movw	r1, #44	; 0x2c
    13ba:	3b01      	subs	r3, #1
    13bc:	f6c0 0100 	movt	r1, #2048	; 0x800
    13c0:	f841 2023 	str.w	r2, [r1, r3, lsl #2]
    13c4:	f851 2023 	ldr.w	r2, [r1, r3, lsl #2]
    13c8:	e004      	b.n	13d4 <system__tasking__restricted__stages__activate_tasks+0x60>
    13ca:	f8d3 10ac 	ldr.w	r1, [r3, #172]	; 0xac
    13ce:	29f2      	cmp	r1, #242	; 0xf2
    13d0:	dd04      	ble.n	13dc <system__tasking__restricted__stages__activate_tasks+0x68>
    13d2:	461a      	mov	r2, r3
    13d4:	f8d2 30b8 	ldr.w	r3, [r2, #184]	; 0xb8
    13d8:	2b00      	cmp	r3, #0
    13da:	d1f6      	bne.n	13ca <system__tasking__restricted__stages__activate_tasks+0x56>
    13dc:	f8c5 30b8 	str.w	r3, [r5, #184]	; 0xb8
    13e0:	f8c2 50b8 	str.w	r5, [r2, #184]	; 0xb8
    13e4:	f000 fab6 	bl	1954 <system__bb__protection__leave_kernel>
    13e8:	f04f 0800 	mov.w	r8, #0
    13ec:	2701      	movs	r7, #1
    13ee:	b1ec      	cbz	r4, 142c <system__tasking__restricted__stages__activate_tasks+0xb8>
    13f0:	f104 0018 	add.w	r0, r4, #24
    13f4:	7a66      	ldrb	r6, [r4, #9]
    13f6:	f8d4 5114 	ldr.w	r5, [r4, #276]	; 0x114
    13fa:	f241 11b1 	movw	r1, #4529	; 0x11b1
    13fe:	f8c4 8114 	str.w	r8, [r4, #276]	; 0x114
    1402:	4622      	mov	r2, r4
    1404:	68e3      	ldr	r3, [r4, #12]
    1406:	f2c0 0100 	movt	r1, #0
    140a:	f8c4 00f8 	str.w	r0, [r4, #248]	; 0xf8
    140e:	f8d4 00f8 	ldr.w	r0, [r4, #248]	; 0xf8
    1412:	9600      	str	r6, [sp, #0]
    1414:	f8d4 6108 	ldr.w	r6, [r4, #264]	; 0x108
    1418:	9601      	str	r6, [sp, #4]
    141a:	f8d4 610c 	ldr.w	r6, [r4, #268]	; 0x10c
    141e:	9602      	str	r6, [sp, #8]
    1420:	f000 fcb6 	bl	1d90 <system__bb__threads__thread_create>
    1424:	7227      	strb	r7, [r4, #8]
    1426:	462c      	mov	r4, r5
    1428:	2d00      	cmp	r5, #0
    142a:	d1e1      	bne.n	13f0 <system__tasking__restricted__stages__activate_tasks+0x7c>
    142c:	2301      	movs	r3, #1
    142e:	f88a 3008 	strb.w	r3, [sl, #8]
    1432:	f8da 000c 	ldr.w	r0, [sl, #12]
    1436:	b672      	cpsid	i
    1438:	f8d9 4000 	ldr.w	r4, [r9]
    143c:	f894 30a4 	ldrb.w	r3, [r4, #164]	; 0xa4
    1440:	2b00      	cmp	r3, #0
    1442:	f8c4 00ac 	str.w	r0, [r4, #172]	; 0xac
    1446:	bf08      	it	eq
    1448:	2301      	moveq	r3, #1
    144a:	f8d4 20b8 	ldr.w	r2, [r4, #184]	; 0xb8
    144e:	b1ea      	cbz	r2, 148c <system__tasking__restricted__stages__activate_tasks+0x118>
    1450:	f8d2 10ac 	ldr.w	r1, [r2, #172]	; 0xac
    1454:	4288      	cmp	r0, r1
    1456:	da19      	bge.n	148c <system__tasking__restricted__stages__activate_tasks+0x118>
    1458:	b25b      	sxtb	r3, r3
    145a:	f103 4380 	add.w	r3, r3, #1073741824	; 0x40000000
    145e:	f240 012c 	movw	r1, #44	; 0x2c
    1462:	3b01      	subs	r3, #1
    1464:	f6c0 0100 	movt	r1, #2048	; 0x800
    1468:	f841 2023 	str.w	r2, [r1, r3, lsl #2]
    146c:	f851 2023 	ldr.w	r2, [r1, r3, lsl #2]
    1470:	e004      	b.n	147c <system__tasking__restricted__stages__activate_tasks+0x108>
    1472:	f8d3 10ac 	ldr.w	r1, [r3, #172]	; 0xac
    1476:	4288      	cmp	r0, r1
    1478:	da04      	bge.n	1484 <system__tasking__restricted__stages__activate_tasks+0x110>
    147a:	461a      	mov	r2, r3
    147c:	f8d2 30b8 	ldr.w	r3, [r2, #184]	; 0xb8
    1480:	2b00      	cmp	r3, #0
    1482:	d1f6      	bne.n	1472 <system__tasking__restricted__stages__activate_tasks+0xfe>
    1484:	f8c4 30b8 	str.w	r3, [r4, #184]	; 0xb8
    1488:	f8c2 40b8 	str.w	r4, [r2, #184]	; 0xb8
    148c:	b004      	add	sp, #16
    148e:	e8bd 47f0 	ldmia.w	sp!, {r4, r5, r6, r7, r8, r9, sl, lr}
    1492:	f000 ba5f 	b.w	1954 <system__bb__protection__leave_kernel>
    1496:	bf00      	nop

00001498 <__gnat_activate_all_tasks>:
    1498:	b510      	push	{r4, lr}
    149a:	f240 0424 	movw	r4, #36	; 0x24
    149e:	f6c0 0400 	movt	r4, #2048	; 0x800
    14a2:	6820      	ldr	r0, [r4, #0]
    14a4:	f7ff ff66 	bl	1374 <system__tasking__restricted__stages__activate_tasks>
    14a8:	2300      	movs	r3, #0
    14aa:	6023      	str	r3, [r4, #0]
    14ac:	bd10      	pop	{r4, pc}
    14ae:	bf00      	nop

000014b0 <system__tasking__restricted__stages__activate_restricted_tasks>:
    14b0:	f240 0328 	movw	r3, #40	; 0x28
    14b4:	f6c0 0300 	movt	r3, #2048	; 0x800
    14b8:	781b      	ldrb	r3, [r3, #0]
    14ba:	2b53      	cmp	r3, #83	; 0x53
    14bc:	d007      	beq.n	14ce <system__tasking__restricted__stages__activate_restricted_tasks+0x1e>
    14be:	b510      	push	{r4, lr}
    14c0:	4604      	mov	r4, r0
    14c2:	6800      	ldr	r0, [r0, #0]
    14c4:	f7ff ff56 	bl	1374 <system__tasking__restricted__stages__activate_tasks>
    14c8:	2300      	movs	r3, #0
    14ca:	6023      	str	r3, [r4, #0]
    14cc:	bd10      	pop	{r4, pc}
    14ce:	4770      	bx	lr

000014d0 <system__tasking__restricted__stages__complete_restricted_activation>:
    14d0:	4770      	bx	lr
    14d2:	bf00      	nop

000014d4 <system__tasking__restricted__stages__complete_restricted_task>:
    14d4:	f240 0338 	movw	r3, #56	; 0x38
    14d8:	2202      	movs	r2, #2
    14da:	f6c0 0300 	movt	r3, #2048	; 0x800
    14de:	681b      	ldr	r3, [r3, #0]
    14e0:	f8d3 30a0 	ldr.w	r3, [r3, #160]	; 0xa0
    14e4:	721a      	strb	r2, [r3, #8]
    14e6:	4770      	bx	lr

000014e8 <system__tasking__restricted__stages__create_restricted_task>:
    14e8:	b570      	push	{r4, r5, r6, lr}
    14ea:	f240 0428 	movw	r4, #40	; 0x28
    14ee:	b084      	sub	sp, #16
    14f0:	f6c0 0400 	movt	r4, #2048	; 0x800
    14f4:	7826      	ldrb	r6, [r4, #0]
    14f6:	2e53      	cmp	r6, #83	; 0x53
    14f8:	9d0c      	ldr	r5, [sp, #48]	; 0x30
    14fa:	9c10      	ldr	r4, [sp, #64]	; 0x40
    14fc:	d00e      	beq.n	151c <system__tasking__restricted__stages__create_restricted_task+0x34>
    14fe:	9e08      	ldr	r6, [sp, #32]
    1500:	9600      	str	r6, [sp, #0]
    1502:	9e09      	ldr	r6, [sp, #36]	; 0x24
    1504:	9601      	str	r6, [sp, #4]
    1506:	9e0a      	ldr	r6, [sp, #40]	; 0x28
    1508:	9602      	str	r6, [sp, #8]
    150a:	9403      	str	r4, [sp, #12]
    150c:	f7ff fe1a 	bl	1144 <system__tasking__restricted__stages__create_restricted_task__2>
    1510:	682b      	ldr	r3, [r5, #0]
    1512:	f8c4 3114 	str.w	r3, [r4, #276]	; 0x114
    1516:	602c      	str	r4, [r5, #0]
    1518:	b004      	add	sp, #16
    151a:	bd70      	pop	{r4, r5, r6, pc}
    151c:	9d08      	ldr	r5, [sp, #32]
    151e:	9500      	str	r5, [sp, #0]
    1520:	9d09      	ldr	r5, [sp, #36]	; 0x24
    1522:	9501      	str	r5, [sp, #4]
    1524:	9d0a      	ldr	r5, [sp, #40]	; 0x28
    1526:	9502      	str	r5, [sp, #8]
    1528:	9403      	str	r4, [sp, #12]
    152a:	f7ff fe0b 	bl	1144 <system__tasking__restricted__stages__create_restricted_task__2>
    152e:	f240 0324 	movw	r3, #36	; 0x24
    1532:	f6c0 0300 	movt	r3, #2048	; 0x800
    1536:	681a      	ldr	r2, [r3, #0]
    1538:	f8c4 2114 	str.w	r2, [r4, #276]	; 0x114
    153c:	601c      	str	r4, [r3, #0]
    153e:	b004      	add	sp, #16
    1540:	bd70      	pop	{r4, r5, r6, pc}
    1542:	bf00      	nop

00001544 <system__tasking__restricted__stages__create_restricted_task_sequential>:
    1544:	b5f0      	push	{r4, r5, r6, r7, lr}
    1546:	b085      	sub	sp, #20
    1548:	9c10      	ldr	r4, [sp, #64]	; 0x40
    154a:	9f0a      	ldr	r7, [sp, #40]	; 0x28
    154c:	9e0b      	ldr	r6, [sp, #44]	; 0x2c
    154e:	9d0c      	ldr	r5, [sp, #48]	; 0x30
    1550:	9700      	str	r7, [sp, #0]
    1552:	9601      	str	r6, [sp, #4]
    1554:	9502      	str	r5, [sp, #8]
    1556:	9403      	str	r4, [sp, #12]
    1558:	f7ff fdf4 	bl	1144 <system__tasking__restricted__stages__create_restricted_task__2>
    155c:	f240 0324 	movw	r3, #36	; 0x24
    1560:	f6c0 0300 	movt	r3, #2048	; 0x800
    1564:	681a      	ldr	r2, [r3, #0]
    1566:	f8c4 2114 	str.w	r2, [r4, #276]	; 0x114
    156a:	601c      	str	r4, [r3, #0]
    156c:	b005      	add	sp, #20
    156e:	bdf0      	pop	{r4, r5, r6, r7, pc}

00001570 <system__tasking__restricted__stages__finalize_global_tasks>:
    1570:	b508      	push	{r3, lr}
    1572:	4802      	ldr	r0, [pc, #8]	; (157c <system__tasking__restricted__stages__finalize_global_tasks+0xc>)
    1574:	f240 11ad 	movw	r1, #429	; 0x1ad
    1578:	f7ff fd94 	bl	10a4 <__gnat_last_chance_handler>
    157c:	00004edc 	.word	0x00004edc

00001580 <system__tasking__restricted__stages__restricted_terminated>:
    1580:	7a00      	ldrb	r0, [r0, #8]
    1582:	f1a0 0002 	sub.w	r0, r0, #2
    1586:	fab0 f080 	clz	r0, r0
    158a:	0940      	lsrs	r0, r0, #5
    158c:	4770      	bx	lr
    158e:	bf00      	nop

00001590 <system__tasking__restricted__stages___elabb>:
    1590:	f001 bb44 	b.w	2c1c <system__tasking__initialize>

00001594 <system__bb__threads__queues__change_priority>:
    1594:	b570      	push	{r4, r5, r6, lr}
    1596:	4606      	mov	r6, r0
    1598:	460d      	mov	r5, r1
    159a:	f000 fb15 	bl	1bc8 <system__bb__threads__get_cpu>
    159e:	f8c6 50ac 	str.w	r5, [r6, #172]	; 0xac
    15a2:	f8d6 20b8 	ldr.w	r2, [r6, #184]	; 0xb8
    15a6:	b1ea      	cbz	r2, 15e4 <system__bb__threads__queues__change_priority+0x50>
    15a8:	f8d2 30ac 	ldr.w	r3, [r2, #172]	; 0xac
    15ac:	429d      	cmp	r5, r3
    15ae:	da19      	bge.n	15e4 <system__bb__threads__queues__change_priority+0x50>
    15b0:	b243      	sxtb	r3, r0
    15b2:	f103 4380 	add.w	r3, r3, #1073741824	; 0x40000000
    15b6:	f240 012c 	movw	r1, #44	; 0x2c
    15ba:	3b01      	subs	r3, #1
    15bc:	f6c0 0100 	movt	r1, #2048	; 0x800
    15c0:	f841 2023 	str.w	r2, [r1, r3, lsl #2]
    15c4:	f851 2023 	ldr.w	r2, [r1, r3, lsl #2]
    15c8:	e004      	b.n	15d4 <system__bb__threads__queues__change_priority+0x40>
    15ca:	f8d3 40ac 	ldr.w	r4, [r3, #172]	; 0xac
    15ce:	42a5      	cmp	r5, r4
    15d0:	da04      	bge.n	15dc <system__bb__threads__queues__change_priority+0x48>
    15d2:	461a      	mov	r2, r3
    15d4:	f8d2 30b8 	ldr.w	r3, [r2, #184]	; 0xb8
    15d8:	2b00      	cmp	r3, #0
    15da:	d1f6      	bne.n	15ca <system__bb__threads__queues__change_priority+0x36>
    15dc:	f8c6 30b8 	str.w	r3, [r6, #184]	; 0xb8
    15e0:	f8c2 60b8 	str.w	r6, [r2, #184]	; 0xb8
    15e4:	bd70      	pop	{r4, r5, r6, pc}
    15e6:	bf00      	nop

000015e8 <context_switch_needed>:
    15e8:	f240 022c 	movw	r2, #44	; 0x2c
    15ec:	f240 0338 	movw	r3, #56	; 0x38
    15f0:	f6c0 0300 	movt	r3, #2048	; 0x800
    15f4:	f6c0 0200 	movt	r2, #2048	; 0x800
    15f8:	6812      	ldr	r2, [r2, #0]
    15fa:	6818      	ldr	r0, [r3, #0]
    15fc:	1a80      	subs	r0, r0, r2
    15fe:	bf18      	it	ne
    1600:	2001      	movne	r0, #1
    1602:	4770      	bx	lr

00001604 <system__bb__threads__queues__current_priority>:
    1604:	b240      	sxtb	r0, r0
    1606:	f100 4080 	add.w	r0, r0, #1073741824	; 0x40000000
    160a:	f240 0338 	movw	r3, #56	; 0x38
    160e:	3801      	subs	r0, #1
    1610:	f6c0 0300 	movt	r3, #2048	; 0x800
    1614:	f853 3020 	ldr.w	r3, [r3, r0, lsl #2]
    1618:	b12b      	cbz	r3, 1626 <system__bb__threads__queues__current_priority+0x22>
    161a:	f893 20cc 	ldrb.w	r2, [r3, #204]	; 0xcc
    161e:	b912      	cbnz	r2, 1626 <system__bb__threads__queues__current_priority+0x22>
    1620:	f8d3 00ac 	ldr.w	r0, [r3, #172]	; 0xac
    1624:	4770      	bx	lr
    1626:	2000      	movs	r0, #0
    1628:	4770      	bx	lr
    162a:	bf00      	nop

0000162c <system__bb__threads__queues__extract>:
    162c:	b538      	push	{r3, r4, r5, lr}
    162e:	4604      	mov	r4, r0
    1630:	f000 faca 	bl	1bc8 <system__bb__threads__get_cpu>
    1634:	f06f 4240 	mvn.w	r2, #3221225472	; 0xc0000000
    1638:	f240 032c 	movw	r3, #44	; 0x2c
    163c:	2500      	movs	r5, #0
    163e:	f6c0 0300 	movt	r3, #2048	; 0x800
    1642:	f8d4 10b8 	ldr.w	r1, [r4, #184]	; 0xb8
    1646:	f8c4 50b8 	str.w	r5, [r4, #184]	; 0xb8
    164a:	fa42 f080 	sxtab	r0, r2, r0
    164e:	f843 1020 	str.w	r1, [r3, r0, lsl #2]
    1652:	bd38      	pop	{r3, r4, r5, pc}

00001654 <system__bb__threads__queues__extract_first_alarm>:
    1654:	f240 0234 	movw	r2, #52	; 0x34
    1658:	2100      	movs	r1, #0
    165a:	f6c0 0200 	movt	r2, #2048	; 0x800
    165e:	b430      	push	{r4, r5}
    1660:	6813      	ldr	r3, [r2, #0]
    1662:	f04f 34ff 	mov.w	r4, #4294967295
    1666:	f04f 35ff 	mov.w	r5, #4294967295
    166a:	4618      	mov	r0, r3
    166c:	e9c3 4530 	strd	r4, r5, [r3, #192]	; 0xc0
    1670:	f8d3 40c8 	ldr.w	r4, [r3, #200]	; 0xc8
    1674:	6014      	str	r4, [r2, #0]
    1676:	f8c3 10c8 	str.w	r1, [r3, #200]	; 0xc8
    167a:	bc30      	pop	{r4, r5}
    167c:	4770      	bx	lr
    167e:	bf00      	nop

00001680 <system__bb__threads__queues__first_thread>:
    1680:	f240 032c 	movw	r3, #44	; 0x2c
    1684:	f6c0 0300 	movt	r3, #2048	; 0x800
    1688:	6818      	ldr	r0, [r3, #0]
    168a:	4770      	bx	lr

0000168c <system__bb__threads__queues__get_next_alarm_time>:
    168c:	b240      	sxtb	r0, r0
    168e:	f100 4080 	add.w	r0, r0, #1073741824	; 0x40000000
    1692:	f240 0334 	movw	r3, #52	; 0x34
    1696:	3801      	subs	r0, #1
    1698:	f6c0 0300 	movt	r3, #2048	; 0x800
    169c:	f853 3020 	ldr.w	r3, [r3, r0, lsl #2]
    16a0:	b113      	cbz	r3, 16a8 <system__bb__threads__queues__get_next_alarm_time+0x1c>
    16a2:	e9d3 0130 	ldrd	r0, r1, [r3, #192]	; 0xc0
    16a6:	4770      	bx	lr
    16a8:	f04f 30ff 	mov.w	r0, #4294967295
    16ac:	f04f 31ff 	mov.w	r1, #4294967295
    16b0:	4770      	bx	lr
    16b2:	bf00      	nop

000016b4 <system__bb__threads__queues__insert>:
    16b4:	b510      	push	{r4, lr}
    16b6:	4604      	mov	r4, r0
    16b8:	f000 fa86 	bl	1bc8 <system__bb__threads__get_cpu>
    16bc:	f240 032c 	movw	r3, #44	; 0x2c
    16c0:	f6c0 0300 	movt	r3, #2048	; 0x800
    16c4:	b240      	sxtb	r0, r0
    16c6:	f100 4080 	add.w	r0, r0, #1073741824	; 0x40000000
    16ca:	3801      	subs	r0, #1
    16cc:	f853 2020 	ldr.w	r2, [r3, r0, lsl #2]
    16d0:	42a2      	cmp	r2, r4
    16d2:	d01e      	beq.n	1712 <system__bb__threads__queues__insert+0x5e>
    16d4:	f853 2020 	ldr.w	r2, [r3, r0, lsl #2]
    16d8:	b1e2      	cbz	r2, 1714 <system__bb__threads__queues__insert+0x60>
    16da:	f8d4 10ac 	ldr.w	r1, [r4, #172]	; 0xac
    16de:	f853 2020 	ldr.w	r2, [r3, r0, lsl #2]
    16e2:	f8d2 20ac 	ldr.w	r2, [r2, #172]	; 0xac
    16e6:	4291      	cmp	r1, r2
    16e8:	dc14      	bgt.n	1714 <system__bb__threads__queues__insert+0x60>
    16ea:	f853 2020 	ldr.w	r2, [r3, r0, lsl #2]
    16ee:	e008      	b.n	1702 <system__bb__threads__queues__insert+0x4e>
    16f0:	429c      	cmp	r4, r3
    16f2:	d016      	beq.n	1722 <system__bb__threads__queues__insert+0x6e>
    16f4:	f8d3 00ac 	ldr.w	r0, [r3, #172]	; 0xac
    16f8:	f8d4 10ac 	ldr.w	r1, [r4, #172]	; 0xac
    16fc:	4288      	cmp	r0, r1
    16fe:	db04      	blt.n	170a <system__bb__threads__queues__insert+0x56>
    1700:	461a      	mov	r2, r3
    1702:	f8d2 30b8 	ldr.w	r3, [r2, #184]	; 0xb8
    1706:	2b00      	cmp	r3, #0
    1708:	d1f2      	bne.n	16f0 <system__bb__threads__queues__insert+0x3c>
    170a:	f8c4 30b8 	str.w	r3, [r4, #184]	; 0xb8
    170e:	f8c2 40b8 	str.w	r4, [r2, #184]	; 0xb8
    1712:	bd10      	pop	{r4, pc}
    1714:	f853 2020 	ldr.w	r2, [r3, r0, lsl #2]
    1718:	f8c4 20b8 	str.w	r2, [r4, #184]	; 0xb8
    171c:	f843 4020 	str.w	r4, [r3, r0, lsl #2]
    1720:	bd10      	pop	{r4, pc}
    1722:	f8d4 30b8 	ldr.w	r3, [r4, #184]	; 0xb8
    1726:	f8c2 30b8 	str.w	r3, [r2, #184]	; 0xb8
    172a:	2b00      	cmp	r3, #0
    172c:	d0ed      	beq.n	170a <system__bb__threads__queues__insert+0x56>
    172e:	f8d3 00ac 	ldr.w	r0, [r3, #172]	; 0xac
    1732:	f8d4 10ac 	ldr.w	r1, [r4, #172]	; 0xac
    1736:	4288      	cmp	r0, r1
    1738:	dbe7      	blt.n	170a <system__bb__threads__queues__insert+0x56>
    173a:	461a      	mov	r2, r3
    173c:	f8d3 30b8 	ldr.w	r3, [r3, #184]	; 0xb8
    1740:	e7f3      	b.n	172a <system__bb__threads__queues__insert+0x76>
    1742:	bf00      	nop

00001744 <system__bb__threads__queues__insert_alarm>:
    1744:	e92d 43d0 	stmdb	sp!, {r4, r6, r7, r8, r9, lr}
    1748:	4606      	mov	r6, r0
    174a:	4610      	mov	r0, r2
    174c:	4614      	mov	r4, r2
    174e:	460f      	mov	r7, r1
    1750:	f000 fa3a 	bl	1bc8 <system__bb__threads__get_cpu>
    1754:	f240 0234 	movw	r2, #52	; 0x34
    1758:	f6c0 0200 	movt	r2, #2048	; 0x800
    175c:	e9c4 6730 	strd	r6, r7, [r4, #192]	; 0xc0
    1760:	b240      	sxtb	r0, r0
    1762:	f100 4380 	add.w	r3, r0, #1073741824	; 0x40000000
    1766:	3b01      	subs	r3, #1
    1768:	f852 1023 	ldr.w	r1, [r2, r3, lsl #2]
    176c:	b1c1      	cbz	r1, 17a0 <system__bb__threads__queues__insert_alarm+0x5c>
    176e:	e9d1 8930 	ldrd	r8, r9, [r1, #192]	; 0xc0
    1772:	454f      	cmp	r7, r9
    1774:	bf08      	it	eq
    1776:	4546      	cmpeq	r6, r8
    1778:	d207      	bcs.n	178a <system__bb__threads__queues__insert_alarm+0x46>
    177a:	e011      	b.n	17a0 <system__bb__threads__queues__insert_alarm+0x5c>
    177c:	e9d3 8930 	ldrd	r8, r9, [r3, #192]	; 0xc0
    1780:	45b9      	cmp	r9, r7
    1782:	bf08      	it	eq
    1784:	45b0      	cmpeq	r8, r6
    1786:	d204      	bcs.n	1792 <system__bb__threads__queues__insert_alarm+0x4e>
    1788:	4619      	mov	r1, r3
    178a:	f8d1 30c8 	ldr.w	r3, [r1, #200]	; 0xc8
    178e:	2b00      	cmp	r3, #0
    1790:	d1f4      	bne.n	177c <system__bb__threads__queues__insert_alarm+0x38>
    1792:	f8c4 30c8 	str.w	r3, [r4, #200]	; 0xc8
    1796:	2000      	movs	r0, #0
    1798:	f8c1 40c8 	str.w	r4, [r1, #200]	; 0xc8
    179c:	e8bd 83d0 	ldmia.w	sp!, {r4, r6, r7, r8, r9, pc}
    17a0:	f8c4 10c8 	str.w	r1, [r4, #200]	; 0xc8
    17a4:	2001      	movs	r0, #1
    17a6:	f842 4023 	str.w	r4, [r2, r3, lsl #2]
    17aa:	e8bd 83d0 	ldmia.w	sp!, {r4, r6, r7, r8, r9, pc}
    17ae:	bf00      	nop

000017b0 <system__bb__threads__queues__running_thread>:
    17b0:	f240 0338 	movw	r3, #56	; 0x38
    17b4:	f6c0 0300 	movt	r3, #2048	; 0x800
    17b8:	6818      	ldr	r0, [r3, #0]
    17ba:	4770      	bx	lr

000017bc <system__bb__threads__queues__wakeup_expired_alarms>:
    17bc:	e92d 47f0 	stmdb	sp!, {r4, r5, r6, r7, r8, r9, sl, lr}
    17c0:	f240 0a34 	movw	sl, #52	; 0x34
    17c4:	f240 092c 	movw	r9, #44	; 0x2c
    17c8:	4604      	mov	r4, r0
    17ca:	460d      	mov	r5, r1
    17cc:	f6c0 0a00 	movt	sl, #2048	; 0x800
    17d0:	f6c0 0900 	movt	r9, #2048	; 0x800
    17d4:	f04f 36ff 	mov.w	r6, #4294967295
    17d8:	f04f 37ff 	mov.w	r7, #4294967295
    17dc:	f8da 8000 	ldr.w	r8, [sl]
    17e0:	f1b8 0f00 	cmp.w	r8, #0
    17e4:	d043      	beq.n	186e <system__bb__threads__queues__wakeup_expired_alarms+0xb2>
    17e6:	e9d8 2330 	ldrd	r2, r3, [r8, #192]	; 0xc0
    17ea:	429d      	cmp	r5, r3
    17ec:	bf08      	it	eq
    17ee:	4294      	cmpeq	r4, r2
    17f0:	d345      	bcc.n	187e <system__bb__threads__queues__wakeup_expired_alarms+0xc2>
    17f2:	2200      	movs	r2, #0
    17f4:	4640      	mov	r0, r8
    17f6:	f8d8 30c8 	ldr.w	r3, [r8, #200]	; 0xc8
    17fa:	f888 20cc 	strb.w	r2, [r8, #204]	; 0xcc
    17fe:	f8c8 20c8 	str.w	r2, [r8, #200]	; 0xc8
    1802:	e9c8 6730 	strd	r6, r7, [r8, #192]	; 0xc0
    1806:	f8ca 3000 	str.w	r3, [sl]
    180a:	f000 f9dd 	bl	1bc8 <system__bb__threads__get_cpu>
    180e:	f240 022c 	movw	r2, #44	; 0x2c
    1812:	f6c0 0200 	movt	r2, #2048	; 0x800
    1816:	b240      	sxtb	r0, r0
    1818:	f100 4080 	add.w	r0, r0, #1073741824	; 0x40000000
    181c:	3801      	subs	r0, #1
    181e:	f859 3020 	ldr.w	r3, [r9, r0, lsl #2]
    1822:	4598      	cmp	r8, r3
    1824:	d0da      	beq.n	17dc <system__bb__threads__queues__wakeup_expired_alarms+0x20>
    1826:	f852 3020 	ldr.w	r3, [r2, r0, lsl #2]
    182a:	b37b      	cbz	r3, 188c <system__bb__threads__queues__wakeup_expired_alarms+0xd0>
    182c:	f8d8 10ac 	ldr.w	r1, [r8, #172]	; 0xac
    1830:	f852 3020 	ldr.w	r3, [r2, r0, lsl #2]
    1834:	f8d3 30ac 	ldr.w	r3, [r3, #172]	; 0xac
    1838:	4299      	cmp	r1, r3
    183a:	dc27      	bgt.n	188c <system__bb__threads__queues__wakeup_expired_alarms+0xd0>
    183c:	f852 2020 	ldr.w	r2, [r2, r0, lsl #2]
    1840:	e008      	b.n	1854 <system__bb__threads__queues__wakeup_expired_alarms+0x98>
    1842:	4543      	cmp	r3, r8
    1844:	d029      	beq.n	189a <system__bb__threads__queues__wakeup_expired_alarms+0xde>
    1846:	f8d3 00ac 	ldr.w	r0, [r3, #172]	; 0xac
    184a:	f8d8 10ac 	ldr.w	r1, [r8, #172]	; 0xac
    184e:	4288      	cmp	r0, r1
    1850:	db04      	blt.n	185c <system__bb__threads__queues__wakeup_expired_alarms+0xa0>
    1852:	461a      	mov	r2, r3
    1854:	f8d2 30b8 	ldr.w	r3, [r2, #184]	; 0xb8
    1858:	2b00      	cmp	r3, #0
    185a:	d1f2      	bne.n	1842 <system__bb__threads__queues__wakeup_expired_alarms+0x86>
    185c:	f8c8 30b8 	str.w	r3, [r8, #184]	; 0xb8
    1860:	f8c2 80b8 	str.w	r8, [r2, #184]	; 0xb8
    1864:	f8da 8000 	ldr.w	r8, [sl]
    1868:	f1b8 0f00 	cmp.w	r8, #0
    186c:	d1bb      	bne.n	17e6 <system__bb__threads__queues__wakeup_expired_alarms+0x2a>
    186e:	f04f 33ff 	mov.w	r3, #4294967295
    1872:	f04f 32ff 	mov.w	r2, #4294967295
    1876:	429d      	cmp	r5, r3
    1878:	bf08      	it	eq
    187a:	4294      	cmpeq	r4, r2
    187c:	d2b9      	bcs.n	17f2 <system__bb__threads__queues__wakeup_expired_alarms+0x36>
    187e:	2001      	movs	r0, #1
    1880:	f001 fba8 	bl	2fd4 <system__bb__time__get_next_timeout>
    1884:	e8bd 47f0 	ldmia.w	sp!, {r4, r5, r6, r7, r8, r9, sl, lr}
    1888:	f001 bc38 	b.w	30fc <system__bb__time__update_alarm>
    188c:	f852 3020 	ldr.w	r3, [r2, r0, lsl #2]
    1890:	f8c8 30b8 	str.w	r3, [r8, #184]	; 0xb8
    1894:	f842 8020 	str.w	r8, [r2, r0, lsl #2]
    1898:	e7a0      	b.n	17dc <system__bb__threads__queues__wakeup_expired_alarms+0x20>
    189a:	f8d8 30b8 	ldr.w	r3, [r8, #184]	; 0xb8
    189e:	f8c2 30b8 	str.w	r3, [r2, #184]	; 0xb8
    18a2:	2b00      	cmp	r3, #0
    18a4:	d0da      	beq.n	185c <system__bb__threads__queues__wakeup_expired_alarms+0xa0>
    18a6:	f8d3 00ac 	ldr.w	r0, [r3, #172]	; 0xac
    18aa:	f8d8 10ac 	ldr.w	r1, [r8, #172]	; 0xac
    18ae:	4288      	cmp	r0, r1
    18b0:	dbd4      	blt.n	185c <system__bb__threads__queues__wakeup_expired_alarms+0xa0>
    18b2:	461a      	mov	r2, r3
    18b4:	f8d3 30b8 	ldr.w	r3, [r3, #184]	; 0xb8
    18b8:	e7f3      	b.n	18a2 <system__bb__threads__queues__wakeup_expired_alarms+0xe6>
    18ba:	bf00      	nop

000018bc <system__bb__threads__queues__yield>:
    18bc:	b570      	push	{r4, r5, r6, lr}
    18be:	4605      	mov	r5, r0
    18c0:	f8d0 60ac 	ldr.w	r6, [r0, #172]	; 0xac
    18c4:	f000 f980 	bl	1bc8 <system__bb__threads__get_cpu>
    18c8:	f8d5 20b8 	ldr.w	r2, [r5, #184]	; 0xb8
    18cc:	b11a      	cbz	r2, 18d6 <system__bb__threads__queues__yield+0x1a>
    18ce:	f8d2 40ac 	ldr.w	r4, [r2, #172]	; 0xac
    18d2:	42b4      	cmp	r4, r6
    18d4:	d000      	beq.n	18d8 <system__bb__threads__queues__yield+0x1c>
    18d6:	bd70      	pop	{r4, r5, r6, pc}
    18d8:	b243      	sxtb	r3, r0
    18da:	f103 4380 	add.w	r3, r3, #1073741824	; 0x40000000
    18de:	f240 012c 	movw	r1, #44	; 0x2c
    18e2:	3b01      	subs	r3, #1
    18e4:	f6c0 0100 	movt	r1, #2048	; 0x800
    18e8:	f841 2023 	str.w	r2, [r1, r3, lsl #2]
    18ec:	f851 2023 	ldr.w	r2, [r1, r3, lsl #2]
    18f0:	e004      	b.n	18fc <system__bb__threads__queues__yield+0x40>
    18f2:	f8d3 10ac 	ldr.w	r1, [r3, #172]	; 0xac
    18f6:	428c      	cmp	r4, r1
    18f8:	d104      	bne.n	1904 <system__bb__threads__queues__yield+0x48>
    18fa:	461a      	mov	r2, r3
    18fc:	f8d2 30b8 	ldr.w	r3, [r2, #184]	; 0xb8
    1900:	2b00      	cmp	r3, #0
    1902:	d1f6      	bne.n	18f2 <system__bb__threads__queues__yield+0x36>
    1904:	f8c5 30b8 	str.w	r3, [r5, #184]	; 0xb8
    1908:	f8c2 50b8 	str.w	r5, [r2, #184]	; 0xb8
    190c:	bd70      	pop	{r4, r5, r6, pc}
    190e:	bf00      	nop

00001910 <ada__real_time__delays__delay_until>:
    1910:	f240 0338 	movw	r3, #56	; 0x38
    1914:	f6c0 0300 	movt	r3, #2048	; 0x800
    1918:	b510      	push	{r4, lr}
    191a:	681a      	ldr	r2, [r3, #0]
    191c:	f8d2 20a0 	ldr.w	r2, [r2, #160]	; 0xa0
    1920:	6912      	ldr	r2, [r2, #16]
    1922:	2a00      	cmp	r2, #0
    1924:	dc09      	bgt.n	193a <ada__real_time__delays__delay_until+0x2a>
    1926:	681a      	ldr	r2, [r3, #0]
    1928:	2307      	movs	r3, #7
    192a:	f8d2 40a0 	ldr.w	r4, [r2, #160]	; 0xa0
    192e:	7223      	strb	r3, [r4, #8]
    1930:	f001 fc36 	bl	31a0 <system__bb__time__delay_until>
    1934:	2301      	movs	r3, #1
    1936:	7223      	strb	r3, [r4, #8]
    1938:	bd10      	pop	{r4, pc}
    193a:	f644 60f4 	movw	r0, #20212	; 0x4ef4
    193e:	2133      	movs	r1, #51	; 0x33
    1940:	f2c0 0000 	movt	r0, #0
    1944:	f7ff fbae 	bl	10a4 <__gnat_last_chance_handler>

00001948 <ada__real_time__delays__to_duration>:
    1948:	2000      	movs	r0, #0
    194a:	2100      	movs	r1, #0
    194c:	4770      	bx	lr
    194e:	bf00      	nop

00001950 <system__bb__protection__enter_kernel>:
    1950:	b672      	cpsid	i
    1952:	4770      	bx	lr

00001954 <system__bb__protection__leave_kernel>:
    1954:	e92d 4ff0 	stmdb	sp!, {r4, r5, r6, r7, r8, r9, sl, fp, lr}
    1958:	f240 042c 	movw	r4, #44	; 0x2c
    195c:	b083      	sub	sp, #12
    195e:	f6c0 0400 	movt	r4, #2048	; 0x800
    1962:	f240 0138 	movw	r1, #56	; 0x38
    1966:	6823      	ldr	r3, [r4, #0]
    1968:	2b00      	cmp	r3, #0
    196a:	d060      	beq.n	1a2e <system__bb__protection__leave_kernel+0xda>
    196c:	f240 0394 	movw	r3, #148	; 0x94
    1970:	f6c0 0100 	movt	r1, #2048	; 0x800
    1974:	f6c0 0300 	movt	r3, #2048	; 0x800
    1978:	9300      	str	r3, [sp, #0]
    197a:	6822      	ldr	r2, [r4, #0]
    197c:	680b      	ldr	r3, [r1, #0]
    197e:	429a      	cmp	r2, r3
    1980:	d024      	beq.n	19cc <system__bb__protection__leave_kernel+0x78>
    1982:	f240 0390 	movw	r3, #144	; 0x90
    1986:	f6c0 0300 	movt	r3, #2048	; 0x800
    198a:	681b      	ldr	r3, [r3, #0]
    198c:	b113      	cbz	r3, 1994 <system__bb__protection__leave_kernel+0x40>
    198e:	9101      	str	r1, [sp, #4]
    1990:	4798      	blx	r3
    1992:	9901      	ldr	r1, [sp, #4]
    1994:	2300      	movs	r3, #0
    1996:	eee8 3a10 	vmsr	fpexc, r3
    199a:	6823      	ldr	r3, [r4, #0]
    199c:	4618      	mov	r0, r3
    199e:	f20f 0304 	addw	r3, pc, #4
    19a2:	4718      	bx	r3
    19a4:	e10f3000 	mrs	r3, CPSR
    19a8:	e5914000 	ldr	r4, [r1]
    19ac:	f1020013 	cps	#19
    19b0:	e59f21ec 	ldr	r2, [pc, #492]	; 1ba4 <system__bb__protection__leave_kernel+0x250>
    19b4:	e2822001 	add	r2, r2, #1
    19b8:	e8c4600f 	stmia	r4, {r0, r1, r2, r3, sp, lr}^
    19bc:	e5810000 	str	r0, [r1]
    19c0:	e8d0600f 	ldm	r0, {r0, r1, r2, r3, sp, lr}^
    19c4:	e12ff003 	msr	CPSR_fsxc, r3
    19c8:	e12fff12 	bx	r2
    19cc:	680a      	ldr	r2, [r1, #0]
    19ce:	f240 0394 	movw	r3, #148	; 0x94
    19d2:	9900      	ldr	r1, [sp, #0]
    19d4:	7808      	ldrb	r0, [r1, #0]
    19d6:	f6c0 0300 	movt	r3, #2048	; 0x800
    19da:	f8d2 10ac 	ldr.w	r1, [r2, #172]	; 0xac
    19de:	f1a1 02f2 	sub.w	r2, r1, #242	; 0xf2
    19e2:	fab2 f282 	clz	r2, r2
    19e6:	0952      	lsrs	r2, r2, #5
    19e8:	4290      	cmp	r0, r2
    19ea:	d00b      	beq.n	1a04 <system__bb__protection__leave_kernel+0xb0>
    19ec:	b982      	cbnz	r2, 1a10 <system__bb__protection__leave_kernel+0xbc>
    19ee:	f64f 6410 	movw	r4, #65040	; 0xfe10
    19f2:	f64f 6030 	movw	r0, #65072	; 0xfe30
    19f6:	f6cf 74ff 	movt	r4, #65535	; 0xffff
    19fa:	f6cf 70ff 	movt	r0, #65535	; 0xffff
    19fe:	6824      	ldr	r4, [r4, #0]
    1a00:	6004      	str	r4, [r0, #0]
    1a02:	701a      	strb	r2, [r3, #0]
    1a04:	29f0      	cmp	r1, #240	; 0xf0
    1a06:	d800      	bhi.n	1a0a <system__bb__protection__leave_kernel+0xb6>
    1a08:	b662      	cpsie	i
    1a0a:	b003      	add	sp, #12
    1a0c:	e8bd 8ff0 	ldmia.w	sp!, {r4, r5, r6, r7, r8, r9, sl, fp, pc}
    1a10:	f64f 6110 	movw	r1, #65040	; 0xfe10
    1a14:	f64f 6240 	movw	r2, #65088	; 0xfe40
    1a18:	f6cf 71ff 	movt	r1, #65535	; 0xffff
    1a1c:	f6cf 72ff 	movt	r2, #65535	; 0xffff
    1a20:	2001      	movs	r0, #1
    1a22:	6809      	ldr	r1, [r1, #0]
    1a24:	6011      	str	r1, [r2, #0]
    1a26:	7018      	strb	r0, [r3, #0]
    1a28:	b003      	add	sp, #12
    1a2a:	e8bd 8ff0 	ldmia.w	sp!, {r4, r5, r6, r7, r8, r9, sl, fp, pc}
    1a2e:	f6c0 0100 	movt	r1, #2048	; 0x800
    1a32:	680a      	ldr	r2, [r1, #0]
    1a34:	f892 30a4 	ldrb.w	r3, [r2, #164]	; 0xa4
    1a38:	2b00      	cmp	r3, #0
    1a3a:	f000 8091 	beq.w	1b60 <system__bb__protection__leave_kernel+0x20c>
    1a3e:	b25b      	sxtb	r3, r3
    1a40:	f103 4380 	add.w	r3, r3, #1073741824	; 0x40000000
    1a44:	3b01      	subs	r3, #1
    1a46:	f240 002c 	movw	r0, #44	; 0x2c
    1a4a:	f6c0 0000 	movt	r0, #2048	; 0x800
    1a4e:	f854 5023 	ldr.w	r5, [r4, r3, lsl #2]
    1a52:	42aa      	cmp	r2, r5
    1a54:	d020      	beq.n	1a98 <system__bb__protection__leave_kernel+0x144>
    1a56:	f850 5023 	ldr.w	r5, [r0, r3, lsl #2]
    1a5a:	2d00      	cmp	r5, #0
    1a5c:	f000 8082 	beq.w	1b64 <system__bb__protection__leave_kernel+0x210>
    1a60:	f8d2 60ac 	ldr.w	r6, [r2, #172]	; 0xac
    1a64:	f850 5023 	ldr.w	r5, [r0, r3, lsl #2]
    1a68:	f8d5 50ac 	ldr.w	r5, [r5, #172]	; 0xac
    1a6c:	42ae      	cmp	r6, r5
    1a6e:	dc79      	bgt.n	1b64 <system__bb__protection__leave_kernel+0x210>
    1a70:	f850 0023 	ldr.w	r0, [r0, r3, lsl #2]
    1a74:	e008      	b.n	1a88 <system__bb__protection__leave_kernel+0x134>
    1a76:	429a      	cmp	r2, r3
    1a78:	d07d      	beq.n	1b76 <system__bb__protection__leave_kernel+0x222>
    1a7a:	f8d3 60ac 	ldr.w	r6, [r3, #172]	; 0xac
    1a7e:	f8d2 50ac 	ldr.w	r5, [r2, #172]	; 0xac
    1a82:	42ae      	cmp	r6, r5
    1a84:	db04      	blt.n	1a90 <system__bb__protection__leave_kernel+0x13c>
    1a86:	4618      	mov	r0, r3
    1a88:	f8d0 30b8 	ldr.w	r3, [r0, #184]	; 0xb8
    1a8c:	2b00      	cmp	r3, #0
    1a8e:	d1f2      	bne.n	1a76 <system__bb__protection__leave_kernel+0x122>
    1a90:	f8c2 30b8 	str.w	r3, [r2, #184]	; 0xb8
    1a94:	f8c0 20b8 	str.w	r2, [r0, #184]	; 0xb8
    1a98:	f240 0390 	movw	r3, #144	; 0x90
    1a9c:	f6c0 0300 	movt	r3, #2048	; 0x800
    1aa0:	681b      	ldr	r3, [r3, #0]
    1aa2:	b113      	cbz	r3, 1aaa <system__bb__protection__leave_kernel+0x156>
    1aa4:	9100      	str	r1, [sp, #0]
    1aa6:	4798      	blx	r3
    1aa8:	9900      	ldr	r1, [sp, #0]
    1aaa:	f240 0338 	movw	r3, #56	; 0x38
    1aae:	680a      	ldr	r2, [r1, #0]
    1ab0:	f6c0 0300 	movt	r3, #2048	; 0x800
    1ab4:	f892 20cc 	ldrb.w	r2, [r2, #204]	; 0xcc
    1ab8:	2a00      	cmp	r2, #0
    1aba:	d06c      	beq.n	1b96 <system__bb__protection__leave_kernel+0x242>
    1abc:	681b      	ldr	r3, [r3, #0]
    1abe:	f8d3 30b8 	ldr.w	r3, [r3, #184]	; 0xb8
    1ac2:	2b00      	cmp	r3, #0
    1ac4:	d167      	bne.n	1b96 <system__bb__protection__leave_kernel+0x242>
    1ac6:	f240 0394 	movw	r3, #148	; 0x94
    1aca:	f240 0578 	movw	r5, #120	; 0x78
    1ace:	f6c0 0300 	movt	r3, #2048	; 0x800
    1ad2:	f64f 6810 	movw	r8, #65040	; 0xfe10
    1ad6:	f64f 6630 	movw	r6, #65072	; 0xfe30
    1ada:	4699      	mov	r9, r3
    1adc:	f6c0 0500 	movt	r5, #2048	; 0x800
    1ae0:	f6cf 78ff 	movt	r8, #65535	; 0xffff
    1ae4:	f6cf 76ff 	movt	r6, #65535	; 0xffff
    1ae8:	468a      	mov	sl, r1
    1aea:	469b      	mov	fp, r3
    1aec:	e003      	b.n	1af6 <system__bb__protection__leave_kernel+0x1a2>
    1aee:	681b      	ldr	r3, [r3, #0]
    1af0:	f8d3 30b8 	ldr.w	r3, [r3, #184]	; 0xb8
    1af4:	b9bb      	cbnz	r3, 1b26 <system__bb__protection__leave_kernel+0x1d2>
    1af6:	682b      	ldr	r3, [r5, #0]
    1af8:	b103      	cbz	r3, 1afc <system__bb__protection__leave_kernel+0x1a8>
    1afa:	4798      	blx	r3
    1afc:	2200      	movs	r2, #0
    1afe:	f89b 3000 	ldrb.w	r3, [fp]
    1b02:	b123      	cbz	r3, 1b0e <system__bb__protection__leave_kernel+0x1ba>
    1b04:	f8d8 3000 	ldr.w	r3, [r8]
    1b08:	6033      	str	r3, [r6, #0]
    1b0a:	f889 2000 	strb.w	r2, [r9]
    1b0e:	b662      	cpsie	i
    1b10:	b672      	cpsid	i
    1b12:	f240 0338 	movw	r3, #56	; 0x38
    1b16:	f8da 2000 	ldr.w	r2, [sl]
    1b1a:	f6c0 0300 	movt	r3, #2048	; 0x800
    1b1e:	f892 20cc 	ldrb.w	r2, [r2, #204]	; 0xcc
    1b22:	2a00      	cmp	r2, #0
    1b24:	d1e3      	bne.n	1aee <system__bb__protection__leave_kernel+0x19a>
    1b26:	4651      	mov	r1, sl
    1b28:	f8cd b000 	str.w	fp, [sp]
    1b2c:	f240 0338 	movw	r3, #56	; 0x38
    1b30:	680a      	ldr	r2, [r1, #0]
    1b32:	f6c0 0300 	movt	r3, #2048	; 0x800
    1b36:	f892 20cc 	ldrb.w	r2, [r2, #204]	; 0xcc
    1b3a:	2a00      	cmp	r2, #0
    1b3c:	f43f af1d 	beq.w	197a <system__bb__protection__leave_kernel+0x26>
    1b40:	681a      	ldr	r2, [r3, #0]
    1b42:	f892 30a4 	ldrb.w	r3, [r2, #164]	; 0xa4
    1b46:	b1a3      	cbz	r3, 1b72 <system__bb__protection__leave_kernel+0x21e>
    1b48:	b25b      	sxtb	r3, r3
    1b4a:	f103 4380 	add.w	r3, r3, #1073741824	; 0x40000000
    1b4e:	3b01      	subs	r3, #1
    1b50:	2500      	movs	r5, #0
    1b52:	f8d2 60b8 	ldr.w	r6, [r2, #184]	; 0xb8
    1b56:	f844 6023 	str.w	r6, [r4, r3, lsl #2]
    1b5a:	f8c2 50b8 	str.w	r5, [r2, #184]	; 0xb8
    1b5e:	e70c      	b.n	197a <system__bb__protection__leave_kernel+0x26>
    1b60:	2301      	movs	r3, #1
    1b62:	e76d      	b.n	1a40 <system__bb__protection__leave_kernel+0xec>
    1b64:	f854 0023 	ldr.w	r0, [r4, r3, lsl #2]
    1b68:	f8c2 00b8 	str.w	r0, [r2, #184]	; 0xb8
    1b6c:	f844 2023 	str.w	r2, [r4, r3, lsl #2]
    1b70:	e792      	b.n	1a98 <system__bb__protection__leave_kernel+0x144>
    1b72:	2301      	movs	r3, #1
    1b74:	e7e9      	b.n	1b4a <system__bb__protection__leave_kernel+0x1f6>
    1b76:	f8d2 30b8 	ldr.w	r3, [r2, #184]	; 0xb8
    1b7a:	f8c0 30b8 	str.w	r3, [r0, #184]	; 0xb8
    1b7e:	2b00      	cmp	r3, #0
    1b80:	d086      	beq.n	1a90 <system__bb__protection__leave_kernel+0x13c>
    1b82:	f8d3 60ac 	ldr.w	r6, [r3, #172]	; 0xac
    1b86:	f8d2 50ac 	ldr.w	r5, [r2, #172]	; 0xac
    1b8a:	42ae      	cmp	r6, r5
    1b8c:	db80      	blt.n	1a90 <system__bb__protection__leave_kernel+0x13c>
    1b8e:	4618      	mov	r0, r3
    1b90:	f8d3 30b8 	ldr.w	r3, [r3, #184]	; 0xb8
    1b94:	e7f3      	b.n	1b7e <system__bb__protection__leave_kernel+0x22a>
    1b96:	f240 0394 	movw	r3, #148	; 0x94
    1b9a:	f6c0 0300 	movt	r3, #2048	; 0x800
    1b9e:	9300      	str	r3, [sp, #0]
    1ba0:	e7c4      	b.n	1b2c <system__bb__protection__leave_kernel+0x1d8>
    1ba2:	0000      	.short	0x0000
    1ba4:	000019cc 	.word	0x000019cc

00001ba8 <system__bb__threads__thread_descriptorIP>:
    1ba8:	2300      	movs	r3, #0
    1baa:	f8c0 30b8 	str.w	r3, [r0, #184]	; 0xb8
    1bae:	f8c0 30c8 	str.w	r3, [r0, #200]	; 0xc8
    1bb2:	f8c0 30d0 	str.w	r3, [r0, #208]	; 0xd0
    1bb6:	4770      	bx	lr

00001bb8 <system__bb__threads__Tslave_stacksBIP>:
    1bb8:	4770      	bx	lr
    1bba:	bf00      	nop

00001bbc <system__bb__threads__Tslave_stacks_tableBIP>:
    1bbc:	4770      	bx	lr
    1bbe:	bf00      	nop

00001bc0 <system__bb__threads__get_affinity>:
    1bc0:	f890 00a4 	ldrb.w	r0, [r0, #164]	; 0xa4
    1bc4:	4770      	bx	lr
    1bc6:	bf00      	nop

00001bc8 <system__bb__threads__get_cpu>:
    1bc8:	f890 00a4 	ldrb.w	r0, [r0, #164]	; 0xa4
    1bcc:	2800      	cmp	r0, #0
    1bce:	bf08      	it	eq
    1bd0:	2001      	moveq	r0, #1
    1bd2:	4770      	bx	lr

00001bd4 <system__bb__threads__get_atcb>:
    1bd4:	f240 0338 	movw	r3, #56	; 0x38
    1bd8:	f6c0 0300 	movt	r3, #2048	; 0x800
    1bdc:	681b      	ldr	r3, [r3, #0]
    1bde:	f8d3 00a0 	ldr.w	r0, [r3, #160]	; 0xa0
    1be2:	4770      	bx	lr

00001be4 <system__bb__threads__get_priority>:
    1be4:	f8d0 00ac 	ldr.w	r0, [r0, #172]	; 0xac
    1be8:	4770      	bx	lr
    1bea:	bf00      	nop

00001bec <system__bb__threads__initialize>:
    1bec:	e92d 43f8 	stmdb	sp!, {r3, r4, r5, r6, r7, r8, r9, lr}
    1bf0:	4604      	mov	r4, r0
    1bf2:	4689      	mov	r9, r1
    1bf4:	f001 fbe2 	bl	33bc <system__bb__board_support__initialize_board>
    1bf8:	f000 fc62 	bl	24c0 <system__bb__interrupts__initialize_interrupts>
    1bfc:	f001 fa1c 	bl	3038 <system__bb__time__initialize_timers>
    1c00:	b672      	cpsid	i
    1c02:	f240 0e38 	movw	lr, #56	; 0x38
    1c06:	f240 022c 	movw	r2, #44	; 0x2c
    1c0a:	f240 0630 	movw	r6, #48	; 0x30
    1c0e:	f647 6338 	movw	r3, #32312	; 0x7e38
    1c12:	f648 6738 	movw	r7, #36408	; 0x8e38
    1c16:	2500      	movs	r5, #0
    1c18:	f6c0 0e00 	movt	lr, #2048	; 0x800
    1c1c:	f6c0 0200 	movt	r2, #2048	; 0x800
    1c20:	f6c0 0600 	movt	r6, #2048	; 0x800
    1c24:	f6c0 0300 	movt	r3, #2048	; 0x800
    1c28:	f04f 30ff 	mov.w	r0, #4294967295
    1c2c:	f04f 31ff 	mov.w	r1, #4294967295
    1c30:	f04f 0801 	mov.w	r8, #1
    1c34:	f6c0 0700 	movt	r7, #2048	; 0x800
    1c38:	f8c4 90ac 	str.w	r9, [r4, #172]	; 0xac
    1c3c:	f8c4 90a8 	str.w	r9, [r4, #168]	; 0xa8
    1c40:	f8ce 4000 	str.w	r4, [lr]
    1c44:	6034      	str	r4, [r6, #0]
    1c46:	6014      	str	r4, [r2, #0]
    1c48:	f8c4 30b4 	str.w	r3, [r4, #180]	; 0xb4
    1c4c:	e9c4 0130 	strd	r0, r1, [r4, #192]	; 0xc0
    1c50:	f884 80a4 	strb.w	r8, [r4, #164]	; 0xa4
    1c54:	f8c4 50b8 	str.w	r5, [r4, #184]	; 0xb8
    1c58:	f8c4 50d0 	str.w	r5, [r4, #208]	; 0xd0
    1c5c:	f884 50cc 	strb.w	r5, [r4, #204]	; 0xcc
    1c60:	f884 50cd 	strb.w	r5, [r4, #205]	; 0xcd
    1c64:	f884 50ce 	strb.w	r5, [r4, #206]	; 0xce
    1c68:	f8c4 50c8 	str.w	r5, [r4, #200]	; 0xc8
    1c6c:	f8c4 50d4 	str.w	r5, [r4, #212]	; 0xd4
    1c70:	f8c4 50d8 	str.w	r5, [r4, #216]	; 0xd8
    1c74:	f8c4 70b0 	str.w	r7, [r4, #176]	; 0xb0
    1c78:	f3ef 8300 	mrs	r3, CPSR
    1c7c:	f64f 76e0 	movw	r6, #65504	; 0xffe0
    1c80:	4620      	mov	r0, r4
    1c82:	f2c0 76f0 	movt	r6, #2032	; 0x7f0
    1c86:	4629      	mov	r1, r5
    1c88:	401e      	ands	r6, r3
    1c8a:	361f      	adds	r6, #31
    1c8c:	22a0      	movs	r2, #160	; 0xa0
    1c8e:	f002 fc1f 	bl	44d0 <memset>
    1c92:	6127      	str	r7, [r4, #16]
    1c94:	60e6      	str	r6, [r4, #12]
    1c96:	eee8 5a10 	vmsr	fpexc, r5
    1c9a:	f240 0344 	movw	r3, #68	; 0x44
    1c9e:	f6c0 0300 	movt	r3, #2048	; 0x800
    1ca2:	f883 8000 	strb.w	r8, [r3]
    1ca6:	e8bd 43f8 	ldmia.w	sp!, {r3, r4, r5, r6, r7, r8, r9, lr}
    1caa:	f7ff be53 	b.w	1954 <system__bb__protection__leave_kernel>
    1cae:	bf00      	nop

00001cb0 <system__bb__threads__initialize_slave_environment>:
    1cb0:	f644 7004 	movw	r0, #20228	; 0x4f04
    1cb4:	f240 1119 	movw	r1, #281	; 0x119
    1cb8:	b508      	push	{r3, lr}
    1cba:	f2c0 0000 	movt	r0, #0
    1cbe:	f7ff f9f1 	bl	10a4 <__gnat_last_chance_handler>
    1cc2:	bf00      	nop

00001cc4 <system__bb__threads__set_atcb>:
    1cc4:	f240 0338 	movw	r3, #56	; 0x38
    1cc8:	f6c0 0300 	movt	r3, #2048	; 0x800
    1ccc:	681b      	ldr	r3, [r3, #0]
    1cce:	f8c3 00a0 	str.w	r0, [r3, #160]	; 0xa0
    1cd2:	4770      	bx	lr

00001cd4 <system__bb__threads__set_priority>:
    1cd4:	b410      	push	{r4}
    1cd6:	b672      	cpsid	i
    1cd8:	f240 0338 	movw	r3, #56	; 0x38
    1cdc:	f6c0 0300 	movt	r3, #2048	; 0x800
    1ce0:	681c      	ldr	r4, [r3, #0]
    1ce2:	f894 30a4 	ldrb.w	r3, [r4, #164]	; 0xa4
    1ce6:	2b00      	cmp	r3, #0
    1ce8:	f8c4 00ac 	str.w	r0, [r4, #172]	; 0xac
    1cec:	bf08      	it	eq
    1cee:	2301      	moveq	r3, #1
    1cf0:	f8d4 20b8 	ldr.w	r2, [r4, #184]	; 0xb8
    1cf4:	b1ea      	cbz	r2, 1d32 <system__bb__threads__set_priority+0x5e>
    1cf6:	f8d2 10ac 	ldr.w	r1, [r2, #172]	; 0xac
    1cfa:	4288      	cmp	r0, r1
    1cfc:	da19      	bge.n	1d32 <system__bb__threads__set_priority+0x5e>
    1cfe:	b25b      	sxtb	r3, r3
    1d00:	f103 4380 	add.w	r3, r3, #1073741824	; 0x40000000
    1d04:	f240 012c 	movw	r1, #44	; 0x2c
    1d08:	3b01      	subs	r3, #1
    1d0a:	f6c0 0100 	movt	r1, #2048	; 0x800
    1d0e:	f841 2023 	str.w	r2, [r1, r3, lsl #2]
    1d12:	f851 2023 	ldr.w	r2, [r1, r3, lsl #2]
    1d16:	e004      	b.n	1d22 <system__bb__threads__set_priority+0x4e>
    1d18:	f8d3 10ac 	ldr.w	r1, [r3, #172]	; 0xac
    1d1c:	4288      	cmp	r0, r1
    1d1e:	da04      	bge.n	1d2a <system__bb__threads__set_priority+0x56>
    1d20:	461a      	mov	r2, r3
    1d22:	f8d2 30b8 	ldr.w	r3, [r2, #184]	; 0xb8
    1d26:	2b00      	cmp	r3, #0
    1d28:	d1f6      	bne.n	1d18 <system__bb__threads__set_priority+0x44>
    1d2a:	f8c4 30b8 	str.w	r3, [r4, #184]	; 0xb8
    1d2e:	f8c2 40b8 	str.w	r4, [r2, #184]	; 0xb8
    1d32:	f85d 4b04 	ldr.w	r4, [sp], #4
    1d36:	f7ff be0d 	b.w	1954 <system__bb__protection__leave_kernel>
    1d3a:	bf00      	nop

00001d3c <system__bb__threads__sleep>:
    1d3c:	f240 0338 	movw	r3, #56	; 0x38
    1d40:	f6c0 0300 	movt	r3, #2048	; 0x800
    1d44:	681a      	ldr	r2, [r3, #0]
    1d46:	b672      	cpsid	i
    1d48:	f892 30ce 	ldrb.w	r3, [r2, #206]	; 0xce
    1d4c:	b9d3      	cbnz	r3, 1d84 <system__bb__threads__sleep+0x48>
    1d4e:	2301      	movs	r3, #1
    1d50:	f892 10a4 	ldrb.w	r1, [r2, #164]	; 0xa4
    1d54:	b410      	push	{r4}
    1d56:	f882 30cc 	strb.w	r3, [r2, #204]	; 0xcc
    1d5a:	b989      	cbnz	r1, 1d80 <system__bb__threads__sleep+0x44>
    1d5c:	f103 4380 	add.w	r3, r3, #1073741824	; 0x40000000
    1d60:	f240 012c 	movw	r1, #44	; 0x2c
    1d64:	3b01      	subs	r3, #1
    1d66:	f6c0 0100 	movt	r1, #2048	; 0x800
    1d6a:	2000      	movs	r0, #0
    1d6c:	f8d2 40b8 	ldr.w	r4, [r2, #184]	; 0xb8
    1d70:	f841 4023 	str.w	r4, [r1, r3, lsl #2]
    1d74:	f8c2 00b8 	str.w	r0, [r2, #184]	; 0xb8
    1d78:	f85d 4b04 	ldr.w	r4, [sp], #4
    1d7c:	f7ff bdea 	b.w	1954 <system__bb__protection__leave_kernel>
    1d80:	b24b      	sxtb	r3, r1
    1d82:	e7eb      	b.n	1d5c <system__bb__threads__sleep+0x20>
    1d84:	2300      	movs	r3, #0
    1d86:	f882 30ce 	strb.w	r3, [r2, #206]	; 0xce
    1d8a:	f7ff bde3 	b.w	1954 <system__bb__protection__leave_kernel>
    1d8e:	bf00      	nop

00001d90 <system__bb__threads__thread_create>:
    1d90:	e92d 43f8 	stmdb	sp!, {r3, r4, r5, r6, r7, r8, r9, lr}
    1d94:	f8dd e024 	ldr.w	lr, [sp, #36]	; 0x24
    1d98:	4604      	mov	r4, r0
    1d9a:	460d      	mov	r5, r1
    1d9c:	4616      	mov	r6, r2
    1d9e:	f89d 0020 	ldrb.w	r0, [sp, #32]
    1da2:	9f0a      	ldr	r7, [sp, #40]	; 0x28
    1da4:	b672      	cpsid	i
    1da6:	f240 0230 	movw	r2, #48	; 0x30
    1daa:	f6c0 0200 	movt	r2, #2048	; 0x800
    1dae:	f8c4 30a8 	str.w	r3, [r4, #168]	; 0xa8
    1db2:	f8c4 30ac 	str.w	r3, [r4, #172]	; 0xac
    1db6:	b243      	sxtb	r3, r0
    1db8:	6811      	ldr	r1, [r2, #0]
    1dba:	f884 00a4 	strb.w	r0, [r4, #164]	; 0xa4
    1dbe:	f8c4 10d0 	str.w	r1, [r4, #208]	; 0xd0
    1dc2:	6014      	str	r4, [r2, #0]
    1dc4:	b900      	cbnz	r0, 1dc8 <system__bb__threads__thread_create+0x38>
    1dc6:	2301      	movs	r3, #1
    1dc8:	f103 4380 	add.w	r3, r3, #1073741824	; 0x40000000
    1dcc:	f240 022c 	movw	r2, #44	; 0x2c
    1dd0:	3b01      	subs	r3, #1
    1dd2:	f6c0 0200 	movt	r2, #2048	; 0x800
    1dd6:	f852 1023 	ldr.w	r1, [r2, r3, lsl #2]
    1dda:	428c      	cmp	r4, r1
    1ddc:	d01f      	beq.n	1e1e <system__bb__threads__thread_create+0x8e>
    1dde:	f852 1023 	ldr.w	r1, [r2, r3, lsl #2]
    1de2:	2900      	cmp	r1, #0
    1de4:	d04e      	beq.n	1e84 <system__bb__threads__thread_create+0xf4>
    1de6:	f8d4 00ac 	ldr.w	r0, [r4, #172]	; 0xac
    1dea:	f852 1023 	ldr.w	r1, [r2, r3, lsl #2]
    1dee:	f8d1 10ac 	ldr.w	r1, [r1, #172]	; 0xac
    1df2:	4288      	cmp	r0, r1
    1df4:	dc46      	bgt.n	1e84 <system__bb__threads__thread_create+0xf4>
    1df6:	f852 0023 	ldr.w	r0, [r2, r3, lsl #2]
    1dfa:	e008      	b.n	1e0e <system__bb__threads__thread_create+0x7e>
    1dfc:	429c      	cmp	r4, r3
    1dfe:	d048      	beq.n	1e92 <system__bb__threads__thread_create+0x102>
    1e00:	f8d3 10ac 	ldr.w	r1, [r3, #172]	; 0xac
    1e04:	f8d4 20ac 	ldr.w	r2, [r4, #172]	; 0xac
    1e08:	4291      	cmp	r1, r2
    1e0a:	db04      	blt.n	1e16 <system__bb__threads__thread_create+0x86>
    1e0c:	4618      	mov	r0, r3
    1e0e:	f8d0 30b8 	ldr.w	r3, [r0, #184]	; 0xb8
    1e12:	2b00      	cmp	r3, #0
    1e14:	d1f2      	bne.n	1dfc <system__bb__threads__thread_create+0x6c>
    1e16:	f8c4 30b8 	str.w	r3, [r4, #184]	; 0xb8
    1e1a:	f8c0 40b8 	str.w	r4, [r0, #184]	; 0xb8
    1e1e:	eb0e 0807 	add.w	r8, lr, r7
    1e22:	f028 0807 	bic.w	r8, r8, #7
    1e26:	2700      	movs	r7, #0
    1e28:	f8c4 80b0 	str.w	r8, [r4, #176]	; 0xb0
    1e2c:	f8c4 e0b4 	str.w	lr, [r4, #180]	; 0xb4
    1e30:	f884 70cc 	strb.w	r7, [r4, #204]	; 0xcc
    1e34:	f884 70cd 	strb.w	r7, [r4, #205]	; 0xcd
    1e38:	f884 70ce 	strb.w	r7, [r4, #206]	; 0xce
    1e3c:	f3ef 8300 	mrs	r3, CPSR
    1e40:	f64f 79e0 	movw	r9, #65504	; 0xffe0
    1e44:	4639      	mov	r1, r7
    1e46:	f2c0 79f0 	movt	r9, #2032	; 0x7f0
    1e4a:	4620      	mov	r0, r4
    1e4c:	ea03 0909 	and.w	r9, r3, r9
    1e50:	22a0      	movs	r2, #160	; 0xa0
    1e52:	f002 fb3d 	bl	44d0 <memset>
    1e56:	f109 031f 	add.w	r3, r9, #31
    1e5a:	f04f 30ff 	mov.w	r0, #4294967295
    1e5e:	f04f 31ff 	mov.w	r1, #4294967295
    1e62:	60e3      	str	r3, [r4, #12]
    1e64:	6026      	str	r6, [r4, #0]
    1e66:	60a5      	str	r5, [r4, #8]
    1e68:	f8c4 8010 	str.w	r8, [r4, #16]
    1e6c:	f8c4 70c8 	str.w	r7, [r4, #200]	; 0xc8
    1e70:	f8c4 70d4 	str.w	r7, [r4, #212]	; 0xd4
    1e74:	f8c4 70d8 	str.w	r7, [r4, #216]	; 0xd8
    1e78:	e9c4 0130 	strd	r0, r1, [r4, #192]	; 0xc0
    1e7c:	e8bd 43f8 	ldmia.w	sp!, {r3, r4, r5, r6, r7, r8, r9, lr}
    1e80:	f7ff bd68 	b.w	1954 <system__bb__protection__leave_kernel>
    1e84:	f852 1023 	ldr.w	r1, [r2, r3, lsl #2]
    1e88:	f8c4 10b8 	str.w	r1, [r4, #184]	; 0xb8
    1e8c:	f842 4023 	str.w	r4, [r2, r3, lsl #2]
    1e90:	e7c5      	b.n	1e1e <system__bb__threads__thread_create+0x8e>
    1e92:	f8d4 30b8 	ldr.w	r3, [r4, #184]	; 0xb8
    1e96:	f8c0 30b8 	str.w	r3, [r0, #184]	; 0xb8
    1e9a:	2b00      	cmp	r3, #0
    1e9c:	d0bb      	beq.n	1e16 <system__bb__threads__thread_create+0x86>
    1e9e:	f8d3 10ac 	ldr.w	r1, [r3, #172]	; 0xac
    1ea2:	f8d4 20ac 	ldr.w	r2, [r4, #172]	; 0xac
    1ea6:	4291      	cmp	r1, r2
    1ea8:	dbb5      	blt.n	1e16 <system__bb__threads__thread_create+0x86>
    1eaa:	4618      	mov	r0, r3
    1eac:	f8d3 30b8 	ldr.w	r3, [r3, #184]	; 0xb8
    1eb0:	e7f3      	b.n	1e9a <system__bb__threads__thread_create+0x10a>
    1eb2:	bf00      	nop

00001eb4 <system__bb__threads__thread_self>:
    1eb4:	f240 0338 	movw	r3, #56	; 0x38
    1eb8:	f6c0 0300 	movt	r3, #2048	; 0x800
    1ebc:	6818      	ldr	r0, [r3, #0]
    1ebe:	4770      	bx	lr

00001ec0 <system__bb__threads__wakeup>:
    1ec0:	b672      	cpsid	i
    1ec2:	f890 30cc 	ldrb.w	r3, [r0, #204]	; 0xcc
    1ec6:	2b01      	cmp	r3, #1
    1ec8:	bf1c      	itt	ne
    1eca:	2301      	movne	r3, #1
    1ecc:	f880 30ce 	strbne.w	r3, [r0, #206]	; 0xce
    1ed0:	d001      	beq.n	1ed6 <system__bb__threads__wakeup+0x16>
    1ed2:	f7ff bd3f 	b.w	1954 <system__bb__protection__leave_kernel>
    1ed6:	2100      	movs	r1, #0
    1ed8:	f890 20a4 	ldrb.w	r2, [r0, #164]	; 0xa4
    1edc:	f880 10cc 	strb.w	r1, [r0, #204]	; 0xcc
    1ee0:	bb5a      	cbnz	r2, 1f3a <system__bb__threads__wakeup+0x7a>
    1ee2:	f103 4380 	add.w	r3, r3, #1073741824	; 0x40000000
    1ee6:	f240 022c 	movw	r2, #44	; 0x2c
    1eea:	3b01      	subs	r3, #1
    1eec:	f6c0 0200 	movt	r2, #2048	; 0x800
    1ef0:	f852 1023 	ldr.w	r1, [r2, r3, lsl #2]
    1ef4:	4288      	cmp	r0, r1
    1ef6:	d0ec      	beq.n	1ed2 <system__bb__threads__wakeup+0x12>
    1ef8:	f852 1023 	ldr.w	r1, [r2, r3, lsl #2]
    1efc:	b3c9      	cbz	r1, 1f72 <system__bb__threads__wakeup+0xb2>
    1efe:	b410      	push	{r4}
    1f00:	f8d0 40ac 	ldr.w	r4, [r0, #172]	; 0xac
    1f04:	f852 1023 	ldr.w	r1, [r2, r3, lsl #2]
    1f08:	f8d1 10ac 	ldr.w	r1, [r1, #172]	; 0xac
    1f0c:	428c      	cmp	r4, r1
    1f0e:	dc16      	bgt.n	1f3e <system__bb__threads__wakeup+0x7e>
    1f10:	f852 2023 	ldr.w	r2, [r2, r3, lsl #2]
    1f14:	e008      	b.n	1f28 <system__bb__threads__wakeup+0x68>
    1f16:	4298      	cmp	r0, r3
    1f18:	d01b      	beq.n	1f52 <system__bb__threads__wakeup+0x92>
    1f1a:	f8d3 40ac 	ldr.w	r4, [r3, #172]	; 0xac
    1f1e:	f8d0 10ac 	ldr.w	r1, [r0, #172]	; 0xac
    1f22:	428c      	cmp	r4, r1
    1f24:	db04      	blt.n	1f30 <system__bb__threads__wakeup+0x70>
    1f26:	461a      	mov	r2, r3
    1f28:	f8d2 30b8 	ldr.w	r3, [r2, #184]	; 0xb8
    1f2c:	2b00      	cmp	r3, #0
    1f2e:	d1f2      	bne.n	1f16 <system__bb__threads__wakeup+0x56>
    1f30:	f8c0 30b8 	str.w	r3, [r0, #184]	; 0xb8
    1f34:	f8c2 00b8 	str.w	r0, [r2, #184]	; 0xb8
    1f38:	e007      	b.n	1f4a <system__bb__threads__wakeup+0x8a>
    1f3a:	b253      	sxtb	r3, r2
    1f3c:	e7d1      	b.n	1ee2 <system__bb__threads__wakeup+0x22>
    1f3e:	f852 1023 	ldr.w	r1, [r2, r3, lsl #2]
    1f42:	f8c0 10b8 	str.w	r1, [r0, #184]	; 0xb8
    1f46:	f842 0023 	str.w	r0, [r2, r3, lsl #2]
    1f4a:	f85d 4b04 	ldr.w	r4, [sp], #4
    1f4e:	f7ff bd01 	b.w	1954 <system__bb__protection__leave_kernel>
    1f52:	f8d0 30b8 	ldr.w	r3, [r0, #184]	; 0xb8
    1f56:	f8c2 30b8 	str.w	r3, [r2, #184]	; 0xb8
    1f5a:	2b00      	cmp	r3, #0
    1f5c:	d0e8      	beq.n	1f30 <system__bb__threads__wakeup+0x70>
    1f5e:	f8d3 40ac 	ldr.w	r4, [r3, #172]	; 0xac
    1f62:	f8d0 10ac 	ldr.w	r1, [r0, #172]	; 0xac
    1f66:	428c      	cmp	r4, r1
    1f68:	dbe2      	blt.n	1f30 <system__bb__threads__wakeup+0x70>
    1f6a:	461a      	mov	r2, r3
    1f6c:	f8d3 30b8 	ldr.w	r3, [r3, #184]	; 0xb8
    1f70:	e7f3      	b.n	1f5a <system__bb__threads__wakeup+0x9a>
    1f72:	f852 1023 	ldr.w	r1, [r2, r3, lsl #2]
    1f76:	f8c0 10b8 	str.w	r1, [r0, #184]	; 0xb8
    1f7a:	f842 0023 	str.w	r0, [r2, r3, lsl #2]
    1f7e:	e7a8      	b.n	1ed2 <system__bb__threads__wakeup+0x12>

00001f80 <system__tasking__debug__add_task_id>:
    1f80:	b480      	push	{r7}
    1f82:	b083      	sub	sp, #12
    1f84:	af00      	add	r7, sp, #0
    1f86:	6078      	str	r0, [r7, #4]
    1f88:	f240 034c 	movw	r3, #76	; 0x4c
    1f8c:	f6c0 0300 	movt	r3, #2048	; 0x800
    1f90:	681b      	ldr	r3, [r3, #0]
    1f92:	2b00      	cmp	r3, #0
    1f94:	d008      	beq.n	1fa8 <system__tasking__debug__add_task_id+0x28>
    1f96:	f240 034c 	movw	r3, #76	; 0x4c
    1f9a:	f6c0 0300 	movt	r3, #2048	; 0x800
    1f9e:	681b      	ldr	r3, [r3, #0]
    1fa0:	687a      	ldr	r2, [r7, #4]
    1fa2:	f8c3 2114 	str.w	r2, [r3, #276]	; 0x114
    1fa6:	e005      	b.n	1fb4 <system__tasking__debug__add_task_id+0x34>
    1fa8:	f240 0348 	movw	r3, #72	; 0x48
    1fac:	f6c0 0300 	movt	r3, #2048	; 0x800
    1fb0:	687a      	ldr	r2, [r7, #4]
    1fb2:	601a      	str	r2, [r3, #0]
    1fb4:	f240 034c 	movw	r3, #76	; 0x4c
    1fb8:	f6c0 0300 	movt	r3, #2048	; 0x800
    1fbc:	687a      	ldr	r2, [r7, #4]
    1fbe:	601a      	str	r2, [r3, #0]
    1fc0:	370c      	adds	r7, #12
    1fc2:	46bd      	mov	sp, r7
    1fc4:	f85d 7b04 	ldr.w	r7, [sp], #4
    1fc8:	4770      	bx	lr
    1fca:	bf00      	nop

00001fcc <ada__synchronous_task_control__suspension_objectIP>:
    1fcc:	2300      	movs	r3, #0
    1fce:	7003      	strb	r3, [r0, #0]
    1fd0:	6043      	str	r3, [r0, #4]
    1fd2:	4770      	bx	lr

00001fd4 <ada__synchronous_task_control__current_state>:
    1fd4:	7800      	ldrb	r0, [r0, #0]
    1fd6:	4770      	bx	lr

00001fd8 <ada__synchronous_task_control__set_false>:
    1fd8:	2300      	movs	r3, #0
    1fda:	7003      	strb	r3, [r0, #0]
    1fdc:	4770      	bx	lr
    1fde:	bf00      	nop

00001fe0 <ada__synchronous_task_control__set_true>:
    1fe0:	b570      	push	{r4, r5, r6, lr}
    1fe2:	4605      	mov	r5, r0
    1fe4:	f000 ffa6 	bl	2f34 <system__tasking__self>
    1fe8:	f8d0 30f8 	ldr.w	r3, [r0, #248]	; 0xf8
    1fec:	f8d3 40ac 	ldr.w	r4, [r3, #172]	; 0xac
    1ff0:	b672      	cpsid	i
    1ff2:	f240 0638 	movw	r6, #56	; 0x38
    1ff6:	22f2      	movs	r2, #242	; 0xf2
    1ff8:	f6c0 0600 	movt	r6, #2048	; 0x800
    1ffc:	6830      	ldr	r0, [r6, #0]
    1ffe:	f890 30a4 	ldrb.w	r3, [r0, #164]	; 0xa4
    2002:	f8c0 20ac 	str.w	r2, [r0, #172]	; 0xac
    2006:	2b00      	cmp	r3, #0
    2008:	bf08      	it	eq
    200a:	2301      	moveq	r3, #1
    200c:	f8d0 20b8 	ldr.w	r2, [r0, #184]	; 0xb8
    2010:	b1ea      	cbz	r2, 204e <ada__synchronous_task_control__set_true+0x6e>
    2012:	f8d2 10ac 	ldr.w	r1, [r2, #172]	; 0xac
    2016:	29f2      	cmp	r1, #242	; 0xf2
    2018:	dd19      	ble.n	204e <ada__synchronous_task_control__set_true+0x6e>
    201a:	b25b      	sxtb	r3, r3
    201c:	f103 4380 	add.w	r3, r3, #1073741824	; 0x40000000
    2020:	f240 012c 	movw	r1, #44	; 0x2c
    2024:	3b01      	subs	r3, #1
    2026:	f6c0 0100 	movt	r1, #2048	; 0x800
    202a:	f841 2023 	str.w	r2, [r1, r3, lsl #2]
    202e:	f851 2023 	ldr.w	r2, [r1, r3, lsl #2]
    2032:	e004      	b.n	203e <ada__synchronous_task_control__set_true+0x5e>
    2034:	f8d3 10ac 	ldr.w	r1, [r3, #172]	; 0xac
    2038:	29f2      	cmp	r1, #242	; 0xf2
    203a:	dd04      	ble.n	2046 <ada__synchronous_task_control__set_true+0x66>
    203c:	461a      	mov	r2, r3
    203e:	f8d2 30b8 	ldr.w	r3, [r2, #184]	; 0xb8
    2042:	2b00      	cmp	r3, #0
    2044:	d1f6      	bne.n	2034 <ada__synchronous_task_control__set_true+0x54>
    2046:	f8c0 30b8 	str.w	r3, [r0, #184]	; 0xb8
    204a:	f8c2 00b8 	str.w	r0, [r2, #184]	; 0xb8
    204e:	f7ff fc81 	bl	1954 <system__bb__protection__leave_kernel>
    2052:	686b      	ldr	r3, [r5, #4]
    2054:	b3a3      	cbz	r3, 20c0 <ada__synchronous_task_control__set_true+0xe0>
    2056:	2200      	movs	r2, #0
    2058:	702a      	strb	r2, [r5, #0]
    205a:	606a      	str	r2, [r5, #4]
    205c:	f8d3 00f8 	ldr.w	r0, [r3, #248]	; 0xf8
    2060:	f7ff ff2e 	bl	1ec0 <system__bb__threads__wakeup>
    2064:	b672      	cpsid	i
    2066:	6830      	ldr	r0, [r6, #0]
    2068:	f890 30a4 	ldrb.w	r3, [r0, #164]	; 0xa4
    206c:	2b00      	cmp	r3, #0
    206e:	f8c0 40ac 	str.w	r4, [r0, #172]	; 0xac
    2072:	bf08      	it	eq
    2074:	2301      	moveq	r3, #1
    2076:	f8d0 20b8 	ldr.w	r2, [r0, #184]	; 0xb8
    207a:	b1ea      	cbz	r2, 20b8 <ada__synchronous_task_control__set_true+0xd8>
    207c:	f8d2 10ac 	ldr.w	r1, [r2, #172]	; 0xac
    2080:	428c      	cmp	r4, r1
    2082:	da19      	bge.n	20b8 <ada__synchronous_task_control__set_true+0xd8>
    2084:	b25b      	sxtb	r3, r3
    2086:	f103 4380 	add.w	r3, r3, #1073741824	; 0x40000000
    208a:	f240 012c 	movw	r1, #44	; 0x2c
    208e:	3b01      	subs	r3, #1
    2090:	f6c0 0100 	movt	r1, #2048	; 0x800
    2094:	f841 2023 	str.w	r2, [r1, r3, lsl #2]
    2098:	f851 2023 	ldr.w	r2, [r1, r3, lsl #2]
    209c:	e004      	b.n	20a8 <ada__synchronous_task_control__set_true+0xc8>
    209e:	f8d3 10ac 	ldr.w	r1, [r3, #172]	; 0xac
    20a2:	428c      	cmp	r4, r1
    20a4:	da04      	bge.n	20b0 <ada__synchronous_task_control__set_true+0xd0>
    20a6:	461a      	mov	r2, r3
    20a8:	f8d2 30b8 	ldr.w	r3, [r2, #184]	; 0xb8
    20ac:	2b00      	cmp	r3, #0
    20ae:	d1f6      	bne.n	209e <ada__synchronous_task_control__set_true+0xbe>
    20b0:	f8c0 30b8 	str.w	r3, [r0, #184]	; 0xb8
    20b4:	f8c2 00b8 	str.w	r0, [r2, #184]	; 0xb8
    20b8:	e8bd 4070 	ldmia.w	sp!, {r4, r5, r6, lr}
    20bc:	f7ff bc4a 	b.w	1954 <system__bb__protection__leave_kernel>
    20c0:	2301      	movs	r3, #1
    20c2:	702b      	strb	r3, [r5, #0]
    20c4:	e7ce      	b.n	2064 <ada__synchronous_task_control__set_true+0x84>
    20c6:	bf00      	nop

000020c8 <ada__synchronous_task_control__suspend_until_true>:
    20c8:	e92d 41f0 	stmdb	sp!, {r4, r5, r6, r7, r8, lr}
    20cc:	4680      	mov	r8, r0
    20ce:	f000 ff31 	bl	2f34 <system__tasking__self>
    20d2:	f8d0 30f8 	ldr.w	r3, [r0, #248]	; 0xf8
    20d6:	4606      	mov	r6, r0
    20d8:	f8d3 40ac 	ldr.w	r4, [r3, #172]	; 0xac
    20dc:	6903      	ldr	r3, [r0, #16]
    20de:	2b00      	cmp	r3, #0
    20e0:	f300 80a8 	bgt.w	2234 <ada__synchronous_task_control__suspend_until_true+0x16c>
    20e4:	b672      	cpsid	i
    20e6:	f240 0738 	movw	r7, #56	; 0x38
    20ea:	22f2      	movs	r2, #242	; 0xf2
    20ec:	f6c0 0700 	movt	r7, #2048	; 0x800
    20f0:	683d      	ldr	r5, [r7, #0]
    20f2:	f895 30a4 	ldrb.w	r3, [r5, #164]	; 0xa4
    20f6:	f8c5 20ac 	str.w	r2, [r5, #172]	; 0xac
    20fa:	2b00      	cmp	r3, #0
    20fc:	bf08      	it	eq
    20fe:	2301      	moveq	r3, #1
    2100:	f8d5 20b8 	ldr.w	r2, [r5, #184]	; 0xb8
    2104:	b1ea      	cbz	r2, 2142 <ada__synchronous_task_control__suspend_until_true+0x7a>
    2106:	f8d2 10ac 	ldr.w	r1, [r2, #172]	; 0xac
    210a:	29f2      	cmp	r1, #242	; 0xf2
    210c:	dd19      	ble.n	2142 <ada__synchronous_task_control__suspend_until_true+0x7a>
    210e:	b25b      	sxtb	r3, r3
    2110:	f103 4380 	add.w	r3, r3, #1073741824	; 0x40000000
    2114:	f240 012c 	movw	r1, #44	; 0x2c
    2118:	3b01      	subs	r3, #1
    211a:	f6c0 0100 	movt	r1, #2048	; 0x800
    211e:	f841 2023 	str.w	r2, [r1, r3, lsl #2]
    2122:	f851 2023 	ldr.w	r2, [r1, r3, lsl #2]
    2126:	e004      	b.n	2132 <ada__synchronous_task_control__suspend_until_true+0x6a>
    2128:	f8d3 10ac 	ldr.w	r1, [r3, #172]	; 0xac
    212c:	29f2      	cmp	r1, #242	; 0xf2
    212e:	dd04      	ble.n	213a <ada__synchronous_task_control__suspend_until_true+0x72>
    2130:	461a      	mov	r2, r3
    2132:	f8d2 30b8 	ldr.w	r3, [r2, #184]	; 0xb8
    2136:	2b00      	cmp	r3, #0
    2138:	d1f6      	bne.n	2128 <ada__synchronous_task_control__suspend_until_true+0x60>
    213a:	f8c5 30b8 	str.w	r3, [r5, #184]	; 0xb8
    213e:	f8c2 50b8 	str.w	r5, [r2, #184]	; 0xb8
    2142:	f7ff fc07 	bl	1954 <system__bb__protection__leave_kernel>
    2146:	f8d8 3004 	ldr.w	r3, [r8, #4]
    214a:	2b00      	cmp	r3, #0
    214c:	d168      	bne.n	2220 <ada__synchronous_task_control__suspend_until_true+0x158>
    214e:	f898 2000 	ldrb.w	r2, [r8]
    2152:	bbaa      	cbnz	r2, 21c0 <ada__synchronous_task_control__suspend_until_true+0xf8>
    2154:	f8c8 6004 	str.w	r6, [r8, #4]
    2158:	b672      	cpsid	i
    215a:	6838      	ldr	r0, [r7, #0]
    215c:	f890 30a4 	ldrb.w	r3, [r0, #164]	; 0xa4
    2160:	2b00      	cmp	r3, #0
    2162:	f8c0 40ac 	str.w	r4, [r0, #172]	; 0xac
    2166:	bf08      	it	eq
    2168:	2301      	moveq	r3, #1
    216a:	f8d0 20b8 	ldr.w	r2, [r0, #184]	; 0xb8
    216e:	b1ea      	cbz	r2, 21ac <ada__synchronous_task_control__suspend_until_true+0xe4>
    2170:	f8d2 10ac 	ldr.w	r1, [r2, #172]	; 0xac
    2174:	428c      	cmp	r4, r1
    2176:	da19      	bge.n	21ac <ada__synchronous_task_control__suspend_until_true+0xe4>
    2178:	b25b      	sxtb	r3, r3
    217a:	f103 4380 	add.w	r3, r3, #1073741824	; 0x40000000
    217e:	f240 012c 	movw	r1, #44	; 0x2c
    2182:	3b01      	subs	r3, #1
    2184:	f6c0 0100 	movt	r1, #2048	; 0x800
    2188:	f841 2023 	str.w	r2, [r1, r3, lsl #2]
    218c:	f851 2023 	ldr.w	r2, [r1, r3, lsl #2]
    2190:	e004      	b.n	219c <ada__synchronous_task_control__suspend_until_true+0xd4>
    2192:	f8d3 10ac 	ldr.w	r1, [r3, #172]	; 0xac
    2196:	428c      	cmp	r4, r1
    2198:	da04      	bge.n	21a4 <ada__synchronous_task_control__suspend_until_true+0xdc>
    219a:	461a      	mov	r2, r3
    219c:	f8d2 30b8 	ldr.w	r3, [r2, #184]	; 0xb8
    21a0:	2b00      	cmp	r3, #0
    21a2:	d1f6      	bne.n	2192 <ada__synchronous_task_control__suspend_until_true+0xca>
    21a4:	f8c0 30b8 	str.w	r3, [r0, #184]	; 0xb8
    21a8:	f8c2 00b8 	str.w	r0, [r2, #184]	; 0xb8
    21ac:	f7ff fbd2 	bl	1954 <system__bb__protection__leave_kernel>
    21b0:	2305      	movs	r3, #5
    21b2:	7233      	strb	r3, [r6, #8]
    21b4:	f7ff fdc2 	bl	1d3c <system__bb__threads__sleep>
    21b8:	2301      	movs	r3, #1
    21ba:	7233      	strb	r3, [r6, #8]
    21bc:	e8bd 81f0 	ldmia.w	sp!, {r4, r5, r6, r7, r8, pc}
    21c0:	f888 3000 	strb.w	r3, [r8]
    21c4:	b672      	cpsid	i
    21c6:	6838      	ldr	r0, [r7, #0]
    21c8:	f890 30a4 	ldrb.w	r3, [r0, #164]	; 0xa4
    21cc:	2b00      	cmp	r3, #0
    21ce:	f8c0 40ac 	str.w	r4, [r0, #172]	; 0xac
    21d2:	bf08      	it	eq
    21d4:	2301      	moveq	r3, #1
    21d6:	f8d0 20b8 	ldr.w	r2, [r0, #184]	; 0xb8
    21da:	b1ea      	cbz	r2, 2218 <ada__synchronous_task_control__suspend_until_true+0x150>
    21dc:	f8d2 10ac 	ldr.w	r1, [r2, #172]	; 0xac
    21e0:	428c      	cmp	r4, r1
    21e2:	da19      	bge.n	2218 <ada__synchronous_task_control__suspend_until_true+0x150>
    21e4:	b25b      	sxtb	r3, r3
    21e6:	f103 4380 	add.w	r3, r3, #1073741824	; 0x40000000
    21ea:	f240 012c 	movw	r1, #44	; 0x2c
    21ee:	3b01      	subs	r3, #1
    21f0:	f6c0 0100 	movt	r1, #2048	; 0x800
    21f4:	f841 2023 	str.w	r2, [r1, r3, lsl #2]
    21f8:	f851 2023 	ldr.w	r2, [r1, r3, lsl #2]
    21fc:	e004      	b.n	2208 <ada__synchronous_task_control__suspend_until_true+0x140>
    21fe:	f8d3 10ac 	ldr.w	r1, [r3, #172]	; 0xac
    2202:	428c      	cmp	r4, r1
    2204:	da04      	bge.n	2210 <ada__synchronous_task_control__suspend_until_true+0x148>
    2206:	461a      	mov	r2, r3
    2208:	f8d2 30b8 	ldr.w	r3, [r2, #184]	; 0xb8
    220c:	2b00      	cmp	r3, #0
    220e:	d1f6      	bne.n	21fe <ada__synchronous_task_control__suspend_until_true+0x136>
    2210:	f8c0 30b8 	str.w	r3, [r0, #184]	; 0xb8
    2214:	f8c2 00b8 	str.w	r0, [r2, #184]	; 0xb8
    2218:	e8bd 41f0 	ldmia.w	sp!, {r4, r5, r6, r7, r8, lr}
    221c:	f7ff bb9a 	b.w	1954 <system__bb__protection__leave_kernel>
    2220:	4620      	mov	r0, r4
    2222:	f7ff fd57 	bl	1cd4 <system__bb__threads__set_priority>
    2226:	f644 701c 	movw	r0, #20252	; 0x4f1c
    222a:	f2c0 0000 	movt	r0, #0
    222e:	21a5      	movs	r1, #165	; 0xa5
    2230:	f7fe ff38 	bl	10a4 <__gnat_last_chance_handler>
    2234:	f644 701c 	movw	r0, #20252	; 0x4f1c
    2238:	2175      	movs	r1, #117	; 0x75
    223a:	f2c0 0000 	movt	r0, #0
    223e:	f7fe ff31 	bl	10a4 <__gnat_last_chance_handler>
    2242:	bf00      	nop

00002244 <system__bb__interrupts__interrupt_wrapper>:
    2244:	f240 0338 	movw	r3, #56	; 0x38
    2248:	b240      	sxtb	r0, r0
    224a:	f6c0 0300 	movt	r3, #2048	; 0x800
    224e:	2805      	cmp	r0, #5
    2250:	e92d 4ff0 	stmdb	sp!, {r4, r5, r6, r7, r8, r9, sl, fp, lr}
    2254:	681c      	ldr	r4, [r3, #0]
    2256:	b083      	sub	sp, #12
    2258:	f8d4 80ac 	ldr.w	r8, [r4, #172]	; 0xac
    225c:	d033      	beq.n	22c6 <system__bb__interrupts__interrupt_wrapper+0x82>
    225e:	2806      	cmp	r0, #6
    2260:	d115      	bne.n	228e <system__bb__interrupts__interrupt_wrapper+0x4a>
    2262:	f64f 6304 	movw	r3, #65028	; 0xfe04
    2266:	f6cf 73ff 	movt	r3, #65535	; 0xffff
    226a:	681d      	ldr	r5, [r3, #0]
    226c:	2d01      	cmp	r5, #1
    226e:	d031      	beq.n	22d4 <system__bb__interrupts__interrupt_wrapper+0x90>
    2270:	d30d      	bcc.n	228e <system__bb__interrupts__interrupt_wrapper+0x4a>
    2272:	2d16      	cmp	r5, #22
    2274:	d130      	bne.n	22d8 <system__bb__interrupts__interrupt_wrapper+0x94>
    2276:	f06f 0307 	mvn.w	r3, #7
    227a:	681d      	ldr	r5, [r3, #0]
    227c:	f015 0501 	ands.w	r5, r5, #1
    2280:	f000 80c1 	beq.w	2406 <system__bb__interrupts__interrupt_wrapper+0x1c2>
    2284:	f06f 030b 	mvn.w	r3, #11
    2288:	681d      	ldr	r5, [r3, #0]
    228a:	0a2d      	lsrs	r5, r5, #8
    228c:	e025      	b.n	22da <system__bb__interrupts__interrupt_wrapper+0x96>
    228e:	2201      	movs	r2, #1
    2290:	2500      	movs	r5, #0
    2292:	f64f 6310 	movw	r3, #65040	; 0xfe10
    2296:	f6cf 73ff 	movt	r3, #65535	; 0xffff
    229a:	681b      	ldr	r3, [r3, #0]
    229c:	f240 0954 	movw	r9, #84	; 0x54
    22a0:	421a      	tst	r2, r3
    22a2:	f6c0 0900 	movt	r9, #2048	; 0x800
    22a6:	bf14      	ite	ne
    22a8:	f04f 0af2 	movne.w	sl, #242	; 0xf2
    22ac:	f04f 0af1 	moveq.w	sl, #241	; 0xf1
    22b0:	f8d9 7000 	ldr.w	r7, [r9]
    22b4:	f894 60cd 	ldrb.w	r6, [r4, #205]	; 0xcd
    22b8:	b2f6      	uxtb	r6, r6
    22ba:	2d00      	cmp	r5, #0
    22bc:	f040 80a5 	bne.w	240a <system__bb__interrupts__interrupt_wrapper+0x1c6>
    22c0:	b003      	add	sp, #12
    22c2:	e8bd 8ff0 	ldmia.w	sp!, {r4, r5, r6, r7, r8, r9, sl, fp, pc}
    22c6:	f44f 437e 	mov.w	r3, #65024	; 0xfe00
    22ca:	f6cf 73ff 	movt	r3, #65535	; 0xffff
    22ce:	681d      	ldr	r5, [r3, #0]
    22d0:	2d01      	cmp	r5, #1
    22d2:	d1cd      	bne.n	2270 <system__bb__interrupts__interrupt_wrapper+0x2c>
    22d4:	2202      	movs	r2, #2
    22d6:	e7dc      	b.n	2292 <system__bb__interrupts__interrupt_wrapper+0x4e>
    22d8:	3d01      	subs	r5, #1
    22da:	2d1f      	cmp	r5, #31
    22dc:	f340 80a6 	ble.w	242c <system__bb__interrupts__interrupt_wrapper+0x1e8>
    22e0:	f240 0954 	movw	r9, #84	; 0x54
    22e4:	2000      	movs	r0, #0
    22e6:	f6c0 0900 	movt	r9, #2048	; 0x800
    22ea:	f04f 0af1 	mov.w	sl, #241	; 0xf1
    22ee:	f8d9 7000 	ldr.w	r7, [r9]
    22f2:	f894 60cd 	ldrb.w	r6, [r4, #205]	; 0xcd
    22f6:	b2f6      	uxtb	r6, r6
    22f8:	f240 0b90 	movw	fp, #144	; 0x90
    22fc:	f6c0 0b00 	movt	fp, #2048	; 0x800
    2300:	f8db 3000 	ldr.w	r3, [fp]
    2304:	b113      	cbz	r3, 230c <system__bb__interrupts__interrupt_wrapper+0xc8>
    2306:	9001      	str	r0, [sp, #4]
    2308:	4798      	blx	r3
    230a:	9801      	ldr	r0, [sp, #4]
    230c:	f8d4 20b8 	ldr.w	r2, [r4, #184]	; 0xb8
    2310:	2101      	movs	r1, #1
    2312:	f894 30a4 	ldrb.w	r3, [r4, #164]	; 0xa4
    2316:	2b00      	cmp	r3, #0
    2318:	f8c9 5000 	str.w	r5, [r9]
    231c:	bf08      	it	eq
    231e:	460b      	moveq	r3, r1
    2320:	f884 10cd 	strb.w	r1, [r4, #205]	; 0xcd
    2324:	f8c4 a0ac 	str.w	sl, [r4, #172]	; 0xac
    2328:	b1ea      	cbz	r2, 2366 <system__bb__interrupts__interrupt_wrapper+0x122>
    232a:	f8d2 10ac 	ldr.w	r1, [r2, #172]	; 0xac
    232e:	458a      	cmp	sl, r1
    2330:	da19      	bge.n	2366 <system__bb__interrupts__interrupt_wrapper+0x122>
    2332:	b25b      	sxtb	r3, r3
    2334:	f103 4380 	add.w	r3, r3, #1073741824	; 0x40000000
    2338:	f240 012c 	movw	r1, #44	; 0x2c
    233c:	3b01      	subs	r3, #1
    233e:	f6c0 0100 	movt	r1, #2048	; 0x800
    2342:	f841 2023 	str.w	r2, [r1, r3, lsl #2]
    2346:	f851 2023 	ldr.w	r2, [r1, r3, lsl #2]
    234a:	e004      	b.n	2356 <system__bb__interrupts__interrupt_wrapper+0x112>
    234c:	f8d3 10ac 	ldr.w	r1, [r3, #172]	; 0xac
    2350:	458a      	cmp	sl, r1
    2352:	da04      	bge.n	235e <system__bb__interrupts__interrupt_wrapper+0x11a>
    2354:	461a      	mov	r2, r3
    2356:	f8d2 30b8 	ldr.w	r3, [r2, #184]	; 0xb8
    235a:	2b00      	cmp	r3, #0
    235c:	d1f6      	bne.n	234c <system__bb__interrupts__interrupt_wrapper+0x108>
    235e:	f8c4 30b8 	str.w	r3, [r4, #184]	; 0xb8
    2362:	f8c2 40b8 	str.w	r4, [r2, #184]	; 0xb8
    2366:	f240 0394 	movw	r3, #148	; 0x94
    236a:	f6c0 0300 	movt	r3, #2048	; 0x800
    236e:	781a      	ldrb	r2, [r3, #0]
    2370:	4282      	cmp	r2, r0
    2372:	d00c      	beq.n	238e <system__bb__interrupts__interrupt_wrapper+0x14a>
    2374:	f64f 6110 	movw	r1, #65040	; 0xfe10
    2378:	2800      	cmp	r0, #0
    237a:	d14c      	bne.n	2416 <system__bb__interrupts__interrupt_wrapper+0x1d2>
    237c:	f6cf 71ff 	movt	r1, #65535	; 0xffff
    2380:	f64f 6230 	movw	r2, #65072	; 0xfe30
    2384:	f6cf 72ff 	movt	r2, #65535	; 0xffff
    2388:	6809      	ldr	r1, [r1, #0]
    238a:	6011      	str	r1, [r2, #0]
    238c:	7018      	strb	r0, [r3, #0]
    238e:	f242 3354 	movw	r3, #9044	; 0x2354
    2392:	4628      	mov	r0, r5
    2394:	f6c0 0300 	movt	r3, #2048	; 0x800
    2398:	f853 3025 	ldr.w	r3, [r3, r5, lsl #2]
    239c:	4798      	blx	r3
    239e:	b672      	cpsid	i
    23a0:	f8db 3000 	ldr.w	r3, [fp]
    23a4:	b103      	cbz	r3, 23a8 <system__bb__interrupts__interrupt_wrapper+0x164>
    23a6:	4798      	blx	r3
    23a8:	f8d4 20b8 	ldr.w	r2, [r4, #184]	; 0xb8
    23ac:	f894 30a4 	ldrb.w	r3, [r4, #164]	; 0xa4
    23b0:	2b00      	cmp	r3, #0
    23b2:	f8c4 80ac 	str.w	r8, [r4, #172]	; 0xac
    23b6:	bf08      	it	eq
    23b8:	2301      	moveq	r3, #1
    23ba:	b1ea      	cbz	r2, 23f8 <system__bb__interrupts__interrupt_wrapper+0x1b4>
    23bc:	f8d2 10ac 	ldr.w	r1, [r2, #172]	; 0xac
    23c0:	4588      	cmp	r8, r1
    23c2:	da19      	bge.n	23f8 <system__bb__interrupts__interrupt_wrapper+0x1b4>
    23c4:	b25b      	sxtb	r3, r3
    23c6:	f103 4380 	add.w	r3, r3, #1073741824	; 0x40000000
    23ca:	f240 012c 	movw	r1, #44	; 0x2c
    23ce:	3b01      	subs	r3, #1
    23d0:	f6c0 0100 	movt	r1, #2048	; 0x800
    23d4:	f841 2023 	str.w	r2, [r1, r3, lsl #2]
    23d8:	f851 2023 	ldr.w	r2, [r1, r3, lsl #2]
    23dc:	e004      	b.n	23e8 <system__bb__interrupts__interrupt_wrapper+0x1a4>
    23de:	f8d3 10ac 	ldr.w	r1, [r3, #172]	; 0xac
    23e2:	4588      	cmp	r8, r1
    23e4:	da04      	bge.n	23f0 <system__bb__interrupts__interrupt_wrapper+0x1ac>
    23e6:	461a      	mov	r2, r3
    23e8:	f8d2 30b8 	ldr.w	r3, [r2, #184]	; 0xb8
    23ec:	2b00      	cmp	r3, #0
    23ee:	d1f6      	bne.n	23de <system__bb__interrupts__interrupt_wrapper+0x19a>
    23f0:	f8c4 30b8 	str.w	r3, [r4, #184]	; 0xb8
    23f4:	f8c2 40b8 	str.w	r4, [r2, #184]	; 0xb8
    23f8:	f8c9 7000 	str.w	r7, [r9]
    23fc:	f884 60cd 	strb.w	r6, [r4, #205]	; 0xcd
    2400:	b003      	add	sp, #12
    2402:	e8bd 8ff0 	ldmia.w	sp!, {r4, r5, r6, r7, r8, r9, sl, fp, pc}
    2406:	2201      	movs	r2, #1
    2408:	e743      	b.n	2292 <system__bb__interrupts__interrupt_wrapper+0x4e>
    240a:	f1aa 00f2 	sub.w	r0, sl, #242	; 0xf2
    240e:	fab0 f080 	clz	r0, r0
    2412:	0940      	lsrs	r0, r0, #5
    2414:	e770      	b.n	22f8 <system__bb__interrupts__interrupt_wrapper+0xb4>
    2416:	f6cf 71ff 	movt	r1, #65535	; 0xffff
    241a:	f64f 6240 	movw	r2, #65088	; 0xfe40
    241e:	f6cf 72ff 	movt	r2, #65535	; 0xffff
    2422:	2001      	movs	r0, #1
    2424:	6809      	ldr	r1, [r1, #0]
    2426:	6011      	str	r1, [r2, #0]
    2428:	7018      	strb	r0, [r3, #0]
    242a:	e7b0      	b.n	238e <system__bb__interrupts__interrupt_wrapper+0x14a>
    242c:	f64f 6310 	movw	r3, #65040	; 0xfe10
    2430:	2201      	movs	r2, #1
    2432:	f6cf 73ff 	movt	r3, #65535	; 0xffff
    2436:	40aa      	lsls	r2, r5
    2438:	681b      	ldr	r3, [r3, #0]
    243a:	e72f      	b.n	229c <system__bb__interrupts__interrupt_wrapper+0x58>

0000243c <system__bb__interrupts__Tinterrupt_stacksBIP>:
    243c:	4770      	bx	lr
    243e:	bf00      	nop

00002440 <system__bb__interrupts__Tinterrupt_stack_tableBIP>:
    2440:	4770      	bx	lr
    2442:	bf00      	nop

00002444 <system__bb__interrupts__attach_handler>:
    2444:	f242 3354 	movw	r3, #9044	; 0x2354
    2448:	f6c0 0300 	movt	r3, #2048	; 0x800
    244c:	f843 0021 	str.w	r0, [r3, r1, lsl #2]
    2450:	f242 2045 	movw	r0, #8773	; 0x2245
    2454:	f2c0 0000 	movt	r0, #0
    2458:	f001 b886 	b.w	3568 <system__bb__board_support__install_interrupt_handler>

0000245c <system__bb__interrupts__current_interrupt>:
    245c:	f240 0254 	movw	r2, #84	; 0x54
    2460:	f240 0338 	movw	r3, #56	; 0x38
    2464:	f6c0 0200 	movt	r2, #2048	; 0x800
    2468:	f6c0 0300 	movt	r3, #2048	; 0x800
    246c:	6810      	ldr	r0, [r2, #0]
    246e:	681b      	ldr	r3, [r3, #0]
    2470:	f893 30cd 	ldrb.w	r3, [r3, #205]	; 0xcd
    2474:	2b00      	cmp	r3, #0
    2476:	bf08      	it	eq
    2478:	2000      	moveq	r0, #0
    247a:	4770      	bx	lr

0000247c <system__bb__interrupts__within_interrupt_stack>:
    247c:	f240 0254 	movw	r2, #84	; 0x54
    2480:	f240 0338 	movw	r3, #56	; 0x38
    2484:	f6c0 0200 	movt	r2, #2048	; 0x800
    2488:	f6c0 0300 	movt	r3, #2048	; 0x800
    248c:	6811      	ldr	r1, [r2, #0]
    248e:	681b      	ldr	r3, [r3, #0]
    2490:	f893 20cd 	ldrb.w	r2, [r3, #205]	; 0xcd
    2494:	f002 03ff 	and.w	r3, r2, #255	; 0xff
    2498:	b10a      	cbz	r2, 249e <system__bb__interrupts__within_interrupt_stack+0x22>
    249a:	b911      	cbnz	r1, 24a2 <system__bb__interrupts__within_interrupt_stack+0x26>
    249c:	2300      	movs	r3, #0
    249e:	4618      	mov	r0, r3
    24a0:	4770      	bx	lr
    24a2:	f644 6338 	movw	r3, #20024	; 0x4e38
    24a6:	f6c0 0300 	movt	r3, #2048	; 0x800
    24aa:	4283      	cmp	r3, r0
    24ac:	d8f6      	bhi.n	249c <system__bb__interrupts__within_interrupt_stack+0x20>
    24ae:	4b03      	ldr	r3, [pc, #12]	; (24bc <system__bb__interrupts__within_interrupt_stack+0x40>)
    24b0:	4283      	cmp	r3, r0
    24b2:	bf34      	ite	cc
    24b4:	2300      	movcc	r3, #0
    24b6:	2301      	movcs	r3, #1
    24b8:	4618      	mov	r0, r3
    24ba:	4770      	bx	lr
    24bc:	08006e37 	.word	0x08006e37

000024c0 <system__bb__interrupts__initialize_interrupts>:
    24c0:	f644 6338 	movw	r3, #20024	; 0x4e38
    24c4:	f242 42d4 	movw	r2, #9428	; 0x24d4
    24c8:	f6c0 0300 	movt	r3, #2048	; 0x800
    24cc:	f6c0 0200 	movt	r2, #2048	; 0x800
    24d0:	f503 51ff 	add.w	r1, r3, #8160	; 0x1fe0
    24d4:	3118      	adds	r1, #24
    24d6:	f603 73f8 	addw	r3, r3, #4088	; 0xff8
    24da:	6013      	str	r3, [r2, #0]
    24dc:	6051      	str	r1, [r2, #4]
    24de:	4770      	bx	lr

000024e0 <ada__real_time__Omultiply>:
    24e0:	2801      	cmp	r0, #1
    24e2:	f171 0300 	sbcs.w	r3, r1, #0
    24e6:	ea4f 73d2 	mov.w	r3, r2, lsr #31
    24ea:	f003 0301 	and.w	r3, r3, #1
    24ee:	bfb8      	it	lt
    24f0:	2300      	movlt	r3, #0
    24f2:	e92d 47f0 	stmdb	sp!, {r4, r5, r6, r7, r8, r9, sl, lr}
    24f6:	4604      	mov	r4, r0
    24f8:	b082      	sub	sp, #8
    24fa:	460d      	mov	r5, r1
    24fc:	4692      	mov	sl, r2
    24fe:	2b00      	cmp	r3, #0
    2500:	d136      	bne.n	2570 <ada__real_time__Omultiply+0x90>
    2502:	2a00      	cmp	r2, #0
    2504:	bfd4      	ite	le
    2506:	2300      	movle	r3, #0
    2508:	2301      	movgt	r3, #1
    250a:	ea13 73d1 	ands.w	r3, r3, r1, lsr #31
    250e:	bf07      	ittee	eq
    2510:	f04f 32ff 	moveq.w	r2, #4294967295
    2514:	f06f 4300 	mvneq.w	r3, #2147483648	; 0x80000000
    2518:	2200      	movne	r2, #0
    251a:	f04f 4300 	movne.w	r3, #2147483648	; 0x80000000
    251e:	f1b1 4f00 	cmp.w	r1, #2147483648	; 0x80000000
    2522:	bf08      	it	eq
    2524:	2800      	cmpeq	r0, #0
    2526:	e9cd 2300 	strd	r2, r3, [sp]
    252a:	bf04      	itt	eq
    252c:	4680      	moveq	r8, r0
    252e:	4689      	moveq	r9, r1
    2530:	d123      	bne.n	257a <ada__real_time__Omultiply+0x9a>
    2532:	4656      	mov	r6, sl
    2534:	17f7      	asrs	r7, r6, #31
    2536:	17f8      	asrs	r0, r7, #31
    2538:	ea80 020a 	eor.w	r2, r0, sl
    253c:	1a12      	subs	r2, r2, r0
    253e:	ea80 0307 	eor.w	r3, r0, r7
    2542:	eb63 0300 	sbc.w	r3, r3, r0
    2546:	ea52 0103 	orrs.w	r1, r2, r3
    254a:	d007      	beq.n	255c <ada__real_time__Omultiply+0x7c>
    254c:	e9dd 0100 	ldrd	r0, r1, [sp]
    2550:	f002 f938 	bl	47c4 <__aeabi_uldivmod>
    2554:	4549      	cmp	r1, r9
    2556:	bf08      	it	eq
    2558:	4540      	cmpeq	r0, r8
    255a:	d318      	bcc.n	258e <ada__real_time__Omultiply+0xae>
    255c:	fb04 f307 	mul.w	r3, r4, r7
    2560:	fba4 010a 	umull	r0, r1, r4, sl
    2564:	fb0a 3a05 	mla	sl, sl, r5, r3
    2568:	4451      	add	r1, sl
    256a:	b002      	add	sp, #8
    256c:	e8bd 87f0 	ldmia.w	sp!, {r4, r5, r6, r7, r8, r9, sl, pc}
    2570:	2200      	movs	r2, #0
    2572:	f04f 4300 	mov.w	r3, #2147483648	; 0x80000000
    2576:	e9cd 2300 	strd	r2, r3, [sp]
    257a:	17ea      	asrs	r2, r5, #31
    257c:	ea82 0804 	eor.w	r8, r2, r4
    2580:	ea82 0905 	eor.w	r9, r2, r5
    2584:	ebb8 0802 	subs.w	r8, r8, r2
    2588:	eb69 0902 	sbc.w	r9, r9, r2
    258c:	e7d1      	b.n	2532 <ada__real_time__Omultiply+0x52>
    258e:	f644 7030 	movw	r0, #20272	; 0x4f30
    2592:	218c      	movs	r1, #140	; 0x8c
    2594:	f2c0 0000 	movt	r0, #0
    2598:	f7fe fd84 	bl	10a4 <__gnat_last_chance_handler>

0000259c <ada__real_time__Omultiply__2>:
    259c:	b410      	push	{r4}
    259e:	4604      	mov	r4, r0
    25a0:	4619      	mov	r1, r3
    25a2:	4610      	mov	r0, r2
    25a4:	4622      	mov	r2, r4
    25a6:	f85d 4b04 	ldr.w	r4, [sp], #4
    25aa:	f7ff bf99 	b.w	24e0 <ada__real_time__Omultiply>
    25ae:	bf00      	nop

000025b0 <ada__real_time__Oadd>:
    25b0:	2a00      	cmp	r2, #0
    25b2:	b5f8      	push	{r3, r4, r5, r6, r7, lr}
    25b4:	f173 0400 	sbcs.w	r4, r3, #0
    25b8:	db05      	blt.n	25c6 <ada__real_time__Oadd+0x16>
    25ba:	43cd      	mvns	r5, r1
    25bc:	43c4      	mvns	r4, r0
    25be:	429d      	cmp	r5, r3
    25c0:	bf08      	it	eq
    25c2:	4294      	cmpeq	r4, r2
    25c4:	d21f      	bcs.n	2606 <ada__real_time__Oadd+0x56>
    25c6:	f1b3 4f00 	cmp.w	r3, #2147483648	; 0x80000000
    25ca:	bf06      	itte	eq
    25cc:	2a00      	cmpeq	r2, #0
    25ce:	2401      	moveq	r4, #1
    25d0:	2400      	movne	r4, #0
    25d2:	ea14 74d1 	ands.w	r4, r4, r1, lsr #31
    25d6:	d119      	bne.n	260c <ada__real_time__Oadd+0x5c>
    25d8:	f112 34ff 	adds.w	r4, r2, #4294967295
    25dc:	f163 4500 	sbc.w	r5, r3, #2147483648	; 0x80000000
    25e0:	f06f 4700 	mvn.w	r7, #2147483648	; 0x80000000
    25e4:	f06f 0601 	mvn.w	r6, #1
    25e8:	42af      	cmp	r7, r5
    25ea:	bf08      	it	eq
    25ec:	42a6      	cmpeq	r6, r4
    25ee:	d311      	bcc.n	2614 <ada__real_time__Oadd+0x64>
    25f0:	4252      	negs	r2, r2
    25f2:	eb63 0343 	sbc.w	r3, r3, r3, lsl #1
    25f6:	4299      	cmp	r1, r3
    25f8:	bf08      	it	eq
    25fa:	4290      	cmpeq	r0, r2
    25fc:	d30a      	bcc.n	2614 <ada__real_time__Oadd+0x64>
    25fe:	1a80      	subs	r0, r0, r2
    2600:	eb61 0103 	sbc.w	r1, r1, r3
    2604:	bdf8      	pop	{r3, r4, r5, r6, r7, pc}
    2606:	1880      	adds	r0, r0, r2
    2608:	4159      	adcs	r1, r3
    260a:	bdf8      	pop	{r3, r4, r5, r6, r7, pc}
    260c:	3000      	adds	r0, #0
    260e:	f141 4100 	adc.w	r1, r1, #2147483648	; 0x80000000
    2612:	bdf8      	pop	{r3, r4, r5, r6, r7, pc}
    2614:	f644 7030 	movw	r0, #20272	; 0x4f30
    2618:	21b4      	movs	r1, #180	; 0xb4
    261a:	f2c0 0000 	movt	r0, #0
    261e:	f7fe fd41 	bl	10a4 <__gnat_last_chance_handler>
    2622:	bf00      	nop

00002624 <ada__real_time__Oadd__2>:
    2624:	b430      	push	{r4, r5}
    2626:	4604      	mov	r4, r0
    2628:	460d      	mov	r5, r1
    262a:	4610      	mov	r0, r2
    262c:	4619      	mov	r1, r3
    262e:	4622      	mov	r2, r4
    2630:	462b      	mov	r3, r5
    2632:	bc30      	pop	{r4, r5}
    2634:	f7ff bfbc 	b.w	25b0 <ada__real_time__Oadd>

00002638 <ada__real_time__Oadd__3>:
    2638:	b538      	push	{r3, r4, r5, lr}
    263a:	4604      	mov	r4, r0
    263c:	1810      	adds	r0, r2, r0
    263e:	460d      	mov	r5, r1
    2640:	eb43 0101 	adc.w	r1, r3, r1
    2644:	42a0      	cmp	r0, r4
    2646:	eb71 0405 	sbcs.w	r4, r1, r5
    264a:	bfb4      	ite	lt
    264c:	2201      	movlt	r2, #1
    264e:	2200      	movge	r2, #0
    2650:	ebb2 7fd3 	cmp.w	r2, r3, lsr #31
    2654:	d100      	bne.n	2658 <ada__real_time__Oadd__3+0x20>
    2656:	bd38      	pop	{r3, r4, r5, pc}
    2658:	f644 7030 	movw	r0, #20272	; 0x4f30
    265c:	21bb      	movs	r1, #187	; 0xbb
    265e:	f2c0 0000 	movt	r0, #0
    2662:	f7fe fd1f 	bl	10a4 <__gnat_last_chance_handler>
    2666:	bf00      	nop

00002668 <ada__real_time__Osubtract>:
    2668:	4299      	cmp	r1, r3
    266a:	bf08      	it	eq
    266c:	4290      	cmpeq	r0, r2
    266e:	b5f8      	push	{r3, r4, r5, r6, r7, lr}
    2670:	bf2c      	ite	cs
    2672:	2401      	movcs	r4, #1
    2674:	2400      	movcc	r4, #0
    2676:	2b00      	cmp	r3, #0
    2678:	bfb4      	ite	lt
    267a:	2400      	movlt	r4, #0
    267c:	f004 0401 	andge.w	r4, r4, #1
    2680:	bb3c      	cbnz	r4, 26d2 <ada__real_time__Osubtract+0x6a>
    2682:	f1b3 4f00 	cmp.w	r3, #2147483648	; 0x80000000
    2686:	bf06      	itte	eq
    2688:	2a00      	cmpeq	r2, #0
    268a:	2401      	moveq	r4, #1
    268c:	2400      	movne	r4, #0
    268e:	2900      	cmp	r1, #0
    2690:	bfb4      	ite	lt
    2692:	2400      	movlt	r4, #0
    2694:	f004 0401 	andge.w	r4, r4, #1
    2698:	b9bc      	cbnz	r4, 26ca <ada__real_time__Osubtract+0x62>
    269a:	f112 34ff 	adds.w	r4, r2, #4294967295
    269e:	f163 4500 	sbc.w	r5, r3, #2147483648	; 0x80000000
    26a2:	f06f 4700 	mvn.w	r7, #2147483648	; 0x80000000
    26a6:	f06f 0601 	mvn.w	r6, #1
    26aa:	42af      	cmp	r7, r5
    26ac:	bf08      	it	eq
    26ae:	42a6      	cmpeq	r6, r4
    26b0:	d313      	bcc.n	26da <ada__real_time__Osubtract+0x72>
    26b2:	4252      	negs	r2, r2
    26b4:	eb63 0343 	sbc.w	r3, r3, r3, lsl #1
    26b8:	43cd      	mvns	r5, r1
    26ba:	43c4      	mvns	r4, r0
    26bc:	429d      	cmp	r5, r3
    26be:	bf08      	it	eq
    26c0:	4294      	cmpeq	r4, r2
    26c2:	d30a      	bcc.n	26da <ada__real_time__Osubtract+0x72>
    26c4:	1880      	adds	r0, r0, r2
    26c6:	4159      	adcs	r1, r3
    26c8:	bdf8      	pop	{r3, r4, r5, r6, r7, pc}
    26ca:	3000      	adds	r0, #0
    26cc:	f141 4100 	adc.w	r1, r1, #2147483648	; 0x80000000
    26d0:	bdf8      	pop	{r3, r4, r5, r6, r7, pc}
    26d2:	1a80      	subs	r0, r0, r2
    26d4:	eb61 0103 	sbc.w	r1, r1, r3
    26d8:	bdf8      	pop	{r3, r4, r5, r6, r7, pc}
    26da:	f644 7030 	movw	r0, #20272	; 0x4f30
    26de:	21db      	movs	r1, #219	; 0xdb
    26e0:	f2c0 0000 	movt	r0, #0
    26e4:	f7fe fcde 	bl	10a4 <__gnat_last_chance_handler>

000026e8 <ada__real_time__Osubtract__2>:
    26e8:	4299      	cmp	r1, r3
    26ea:	bf08      	it	eq
    26ec:	4290      	cmpeq	r0, r2
    26ee:	b508      	push	{r3, lr}
    26f0:	d309      	bcc.n	2706 <ada__real_time__Osubtract__2+0x1e>
    26f2:	1a82      	subs	r2, r0, r2
    26f4:	eb61 0303 	sbc.w	r3, r1, r3
    26f8:	2a00      	cmp	r2, #0
    26fa:	f173 0100 	sbcs.w	r1, r3, #0
    26fe:	db0e      	blt.n	271e <ada__real_time__Osubtract__2+0x36>
    2700:	4610      	mov	r0, r2
    2702:	4619      	mov	r1, r3
    2704:	bd08      	pop	{r3, pc}
    2706:	1a12      	subs	r2, r2, r0
    2708:	eb63 0301 	sbc.w	r3, r3, r1
    270c:	f1b3 4f00 	cmp.w	r3, #2147483648	; 0x80000000
    2710:	bf08      	it	eq
    2712:	2a01      	cmpeq	r2, #1
    2714:	d203      	bcs.n	271e <ada__real_time__Osubtract__2+0x36>
    2716:	4250      	negs	r0, r2
    2718:	eb63 0143 	sbc.w	r1, r3, r3, lsl #1
    271c:	bd08      	pop	{r3, pc}
    271e:	f644 7030 	movw	r0, #20272	; 0x4f30
    2722:	21f1      	movs	r1, #241	; 0xf1
    2724:	f2c0 0000 	movt	r0, #0
    2728:	f7fe fcbc 	bl	10a4 <__gnat_last_chance_handler>

0000272c <ada__real_time__Osubtract__3>:
    272c:	b538      	push	{r3, r4, r5, lr}
    272e:	4604      	mov	r4, r0
    2730:	1a80      	subs	r0, r0, r2
    2732:	460d      	mov	r5, r1
    2734:	eb61 0103 	sbc.w	r1, r1, r3
    2738:	4284      	cmp	r4, r0
    273a:	eb75 0401 	sbcs.w	r4, r5, r1
    273e:	bfb4      	ite	lt
    2740:	2201      	movlt	r2, #1
    2742:	2200      	movge	r2, #0
    2744:	ebb2 7fd3 	cmp.w	r2, r3, lsr #31
    2748:	d100      	bne.n	274c <ada__real_time__Osubtract__3+0x20>
    274a:	bd38      	pop	{r3, r4, r5, pc}
    274c:	f644 7030 	movw	r0, #20272	; 0x4f30
    2750:	21f8      	movs	r1, #248	; 0xf8
    2752:	f2c0 0000 	movt	r0, #0
    2756:	f7fe fca5 	bl	10a4 <__gnat_last_chance_handler>
    275a:	bf00      	nop

0000275c <ada__real_time__Osubtract__4>:
    275c:	f1b1 4f00 	cmp.w	r1, #2147483648	; 0x80000000
    2760:	bf08      	it	eq
    2762:	2800      	cmpeq	r0, #0
    2764:	d003      	beq.n	276e <ada__real_time__Osubtract__4+0x12>
    2766:	4240      	negs	r0, r0
    2768:	eb61 0141 	sbc.w	r1, r1, r1, lsl #1
    276c:	4770      	bx	lr
    276e:	f644 7030 	movw	r0, #20272	; 0x4f30
    2772:	21fe      	movs	r1, #254	; 0xfe
    2774:	b508      	push	{r3, lr}
    2776:	f2c0 0000 	movt	r0, #0
    277a:	f7fe fc93 	bl	10a4 <__gnat_last_chance_handler>
    277e:	bf00      	nop

00002780 <ada__real_time__Odivide>:
    2780:	b5f8      	push	{r3, r4, r5, r6, r7, lr}
    2782:	4614      	mov	r4, r2
    2784:	461d      	mov	r5, r3
    2786:	ea54 0e05 	orrs.w	lr, r4, r5
    278a:	d01a      	beq.n	27c2 <ada__real_time__Odivide+0x42>
    278c:	f1b1 4f00 	cmp.w	r1, #2147483648	; 0x80000000
    2790:	bf08      	it	eq
    2792:	2800      	cmpeq	r0, #0
    2794:	ea04 0403 	and.w	r4, r4, r3
    2798:	bf0c      	ite	eq
    279a:	2501      	moveq	r5, #1
    279c:	2500      	movne	r5, #0
    279e:	f1b4 3fff 	cmp.w	r4, #4294967295
    27a2:	bf14      	ite	ne
    27a4:	2400      	movne	r4, #0
    27a6:	f005 0401 	andeq.w	r4, r5, #1
    27aa:	b954      	cbnz	r4, 27c2 <ada__real_time__Odivide+0x42>
    27ac:	f001 ffee 	bl	478c <__aeabi_ldivmod>
    27b0:	f110 4200 	adds.w	r2, r0, #2147483648	; 0x80000000
    27b4:	f141 0300 	adc.w	r3, r1, #0
    27b8:	2b01      	cmp	r3, #1
    27ba:	bf08      	it	eq
    27bc:	2a00      	cmpeq	r2, #0
    27be:	d200      	bcs.n	27c2 <ada__real_time__Odivide+0x42>
    27c0:	bdf8      	pop	{r3, r4, r5, r6, r7, pc}
    27c2:	f644 7030 	movw	r0, #20272	; 0x4f30
    27c6:	f240 1109 	movw	r1, #265	; 0x109
    27ca:	f2c0 0000 	movt	r0, #0
    27ce:	f7fe fc69 	bl	10a4 <__gnat_last_chance_handler>
    27d2:	bf00      	nop

000027d4 <ada__real_time__Odivide__2>:
    27d4:	b538      	push	{r3, r4, r5, lr}
    27d6:	b182      	cbz	r2, 27fa <ada__real_time__Odivide__2+0x26>
    27d8:	f1b1 4f00 	cmp.w	r1, #2147483648	; 0x80000000
    27dc:	bf06      	itte	eq
    27de:	2800      	cmpeq	r0, #0
    27e0:	2301      	moveq	r3, #1
    27e2:	2300      	movne	r3, #0
    27e4:	f1b2 3fff 	cmp.w	r2, #4294967295
    27e8:	bf14      	ite	ne
    27ea:	2300      	movne	r3, #0
    27ec:	f003 0301 	andeq.w	r3, r3, #1
    27f0:	b91b      	cbnz	r3, 27fa <ada__real_time__Odivide__2+0x26>
    27f2:	17d3      	asrs	r3, r2, #31
    27f4:	f001 ffca 	bl	478c <__aeabi_ldivmod>
    27f8:	bd38      	pop	{r3, r4, r5, pc}
    27fa:	f644 7030 	movw	r0, #20272	; 0x4f30
    27fe:	f44f 7188 	mov.w	r1, #272	; 0x110
    2802:	f2c0 0000 	movt	r0, #0
    2806:	f7fe fc4d 	bl	10a4 <__gnat_last_chance_handler>
    280a:	bf00      	nop

0000280c <ada__real_time__clock>:
    280c:	e92d 43f8 	stmdb	sp!, {r3, r4, r5, r6, r7, r8, r9, lr}
    2810:	f240 0680 	movw	r6, #128	; 0x80
    2814:	2400      	movs	r4, #0
    2816:	f6c0 0600 	movt	r6, #2048	; 0x800
    281a:	1d37      	adds	r7, r6, #4
    281c:	f64f 4030 	movw	r0, #64560	; 0xfc30
    2820:	3401      	adds	r4, #1
    2822:	f6cf 70ff 	movt	r0, #65535	; 0xffff
    2826:	6835      	ldr	r5, [r6, #0]
    2828:	f8d7 9000 	ldr.w	r9, [r7]
    282c:	f000 fdbc 	bl	33a8 <system__bb__board_support__read>
    2830:	6832      	ldr	r2, [r6, #0]
    2832:	ebc8 0305 	rsb	r3, r8, r5
    2836:	4295      	cmp	r5, r2
    2838:	d012      	beq.n	2860 <ada__real_time__clock+0x54>
    283a:	2c01      	cmp	r4, #1
    283c:	d00e      	beq.n	285c <ada__real_time__clock+0x50>
    283e:	2b01      	cmp	r3, #1
    2840:	bf8c      	ite	hi
    2842:	2300      	movhi	r3, #0
    2844:	2301      	movls	r3, #1
    2846:	2c03      	cmp	r4, #3
    2848:	bf08      	it	eq
    284a:	2300      	moveq	r3, #0
    284c:	2b00      	cmp	r3, #0
    284e:	d1e5      	bne.n	281c <ada__real_time__clock+0x10>
    2850:	462f      	mov	r7, r5
    2852:	461e      	mov	r6, r3
    2854:	4630      	mov	r0, r6
    2856:	4639      	mov	r1, r7
    2858:	e8bd 83f8 	ldmia.w	sp!, {r3, r4, r5, r6, r7, r8, r9, pc}
    285c:	46a8      	mov	r8, r5
    285e:	e7dd      	b.n	281c <ada__real_time__clock+0x10>
    2860:	2600      	movs	r6, #0
    2862:	4581      	cmp	r9, r0
    2864:	bf94      	ite	ls
    2866:	462f      	movls	r7, r5
    2868:	1c6f      	addhi	r7, r5, #1
    286a:	1836      	adds	r6, r6, r0
    286c:	f147 0700 	adc.w	r7, r7, #0
    2870:	e7f0      	b.n	2854 <ada__real_time__clock+0x48>
    2872:	bf00      	nop

00002874 <ada__real_time__microseconds>:
    2874:	f249 6180 	movw	r1, #38528	; 0x9680
    2878:	f244 2240 	movw	r2, #16960	; 0x4240
    287c:	f2c0 0198 	movt	r1, #152	; 0x98
    2880:	f2c0 020f 	movt	r2, #15
    2884:	b508      	push	{r3, lr}
    2886:	fb80 0101 	smull	r0, r1, r0, r1
    288a:	2300      	movs	r3, #0
    288c:	f001 ff7e 	bl	478c <__aeabi_ldivmod>
    2890:	bd08      	pop	{r3, pc}
    2892:	bf00      	nop

00002894 <ada__real_time__milliseconds>:
    2894:	f249 6180 	movw	r1, #38528	; 0x9680
    2898:	f44f 727a 	mov.w	r2, #1000	; 0x3e8
    289c:	f2c0 0198 	movt	r1, #152	; 0x98
    28a0:	b508      	push	{r3, lr}
    28a2:	fb80 0101 	smull	r0, r1, r0, r1
    28a6:	2300      	movs	r3, #0
    28a8:	f001 ff70 	bl	478c <__aeabi_ldivmod>
    28ac:	bd08      	pop	{r3, pc}
    28ae:	bf00      	nop

000028b0 <ada__real_time__minutes>:
    28b0:	223c      	movs	r2, #60	; 0x3c
    28b2:	b410      	push	{r4}
    28b4:	fb80 2302 	smull	r2, r3, r0, r2
    28b8:	f249 6480 	movw	r4, #38528	; 0x9680
    28bc:	f2c0 0498 	movt	r4, #152	; 0x98
    28c0:	fba2 0104 	umull	r0, r1, r2, r4
    28c4:	fb04 1103 	mla	r1, r4, r3, r1
    28c8:	f85d 4b04 	ldr.w	r4, [sp], #4
    28cc:	4770      	bx	lr
    28ce:	bf00      	nop

000028d0 <ada__real_time__nanoseconds>:
    28d0:	f249 6180 	movw	r1, #38528	; 0x9680
    28d4:	f2c0 0198 	movt	r1, #152	; 0x98
    28d8:	b508      	push	{r3, lr}
    28da:	fb80 0101 	smull	r0, r1, r0, r1
    28de:	a304      	add	r3, pc, #16	; (adr r3, 28f0 <ada__real_time__nanoseconds+0x20>)
    28e0:	e9d3 2300 	ldrd	r2, r3, [r3]
    28e4:	f001 ff52 	bl	478c <__aeabi_ldivmod>
    28e8:	bd08      	pop	{r3, pc}
    28ea:	bf00      	nop
    28ec:	f3af 8000 	nop.w
    28f0:	3b9aca00 	.word	0x3b9aca00
    28f4:	00000000 	.word	0x00000000

000028f8 <ada__real_time__seconds>:
    28f8:	f249 6380 	movw	r3, #38528	; 0x9680
    28fc:	f2c0 0398 	movt	r3, #152	; 0x98
    2900:	fb80 0103 	smull	r0, r1, r0, r3
    2904:	4770      	bx	lr
    2906:	bf00      	nop

00002908 <ada__real_time__split>:
    2908:	e92d 43f8 	stmdb	sp!, {r3, r4, r5, r6, r7, r8, r9, lr}
    290c:	4690      	mov	r8, r2
    290e:	4699      	mov	r9, r3
    2910:	f249 6280 	movw	r2, #38528	; 0x9680
    2914:	4604      	mov	r4, r0
    2916:	f2c0 0298 	movt	r2, #152	; 0x98
    291a:	2300      	movs	r3, #0
    291c:	4640      	mov	r0, r8
    291e:	4649      	mov	r1, r9
    2920:	f001 ff50 	bl	47c4 <__aeabi_uldivmod>
    2924:	f249 6580 	movw	r5, #38528	; 0x9680
    2928:	f2c0 0598 	movt	r5, #152	; 0x98
    292c:	4607      	mov	r7, r0
    292e:	460e      	mov	r6, r1
    2930:	4640      	mov	r0, r8
    2932:	4649      	mov	r1, r9
    2934:	fba7 2305 	umull	r2, r3, r7, r5
    2938:	fb05 3306 	mla	r3, r5, r6, r3
    293c:	f7ff fed4 	bl	26e8 <ada__real_time__Osubtract__2>
    2940:	6027      	str	r7, [r4, #0]
    2942:	6066      	str	r6, [r4, #4]
    2944:	e9c4 0102 	strd	r0, r1, [r4, #8]
    2948:	4620      	mov	r0, r4
    294a:	e8bd 83f8 	ldmia.w	sp!, {r3, r4, r5, r6, r7, r8, r9, pc}
    294e:	bf00      	nop

00002950 <ada__real_time__time_of>:
    2950:	2a00      	cmp	r2, #0
    2952:	e92d 47f0 	stmdb	sp!, {r4, r5, r6, r7, r8, r9, sl, lr}
    2956:	460d      	mov	r5, r1
    2958:	f173 0100 	sbcs.w	r1, r3, #0
    295c:	4690      	mov	r8, r2
    295e:	4699      	mov	r9, r3
    2960:	4604      	mov	r4, r0
    2962:	db12      	blt.n	298a <ada__real_time__time_of+0x3a>
    2964:	a13c      	add	r1, pc, #240	; (adr r1, 2a58 <ada__real_time__time_of+0x108>)
    2966:	e9d1 0100 	ldrd	r0, r1, [r1]
    296a:	42a9      	cmp	r1, r5
    296c:	bf08      	it	eq
    296e:	42a0      	cmpeq	r0, r4
    2970:	d35b      	bcc.n	2a2a <ada__real_time__time_of+0xda>
    2972:	f249 6680 	movw	r6, #38528	; 0x9680
    2976:	f2c0 0698 	movt	r6, #152	; 0x98
    297a:	fba4 0106 	umull	r0, r1, r4, r6
    297e:	fb06 1105 	mla	r1, r6, r5, r1
    2982:	e8bd 47f0 	ldmia.w	sp!, {r4, r5, r6, r7, r8, r9, sl, lr}
    2986:	f7ff be13 	b.w	25b0 <ada__real_time__Oadd>
    298a:	4610      	mov	r0, r2
    298c:	f249 6280 	movw	r2, #38528	; 0x9680
    2990:	4619      	mov	r1, r3
    2992:	f2c0 0298 	movt	r2, #152	; 0x98
    2996:	2300      	movs	r3, #0
    2998:	f249 6a80 	movw	sl, #38528	; 0x9680
    299c:	f001 fef6 	bl	478c <__aeabi_ldivmod>
    29a0:	4640      	mov	r0, r8
    29a2:	4649      	mov	r1, r9
    29a4:	2700      	movs	r7, #0
    29a6:	f2c0 0a98 	movt	sl, #152	; 0x98
    29aa:	4313      	orrs	r3, r2
    29ac:	f249 6280 	movw	r2, #38528	; 0x9680
    29b0:	f04f 0300 	mov.w	r3, #0
    29b4:	f2c0 0298 	movt	r2, #152	; 0x98
    29b8:	bf14      	ite	ne
    29ba:	2601      	movne	r6, #1
    29bc:	2600      	moveq	r6, #0
    29be:	f001 fee5 	bl	478c <__aeabi_ldivmod>
    29c2:	1a36      	subs	r6, r6, r0
    29c4:	eb67 0701 	sbc.w	r7, r7, r1
    29c8:	f116 32ff 	adds.w	r2, r6, #4294967295
    29cc:	f147 33ff 	adc.w	r3, r7, #4294967295
    29d0:	fba2 010a 	umull	r0, r1, r2, sl
    29d4:	eb10 0208 	adds.w	r2, r0, r8
    29d8:	fb0a 1103 	mla	r1, sl, r3, r1
    29dc:	eb41 0309 	adc.w	r3, r1, r9
    29e0:	4542      	cmp	r2, r8
    29e2:	eb73 0e09 	sbcs.w	lr, r3, r9
    29e6:	bfb4      	ite	lt
    29e8:	2001      	movlt	r0, #1
    29ea:	2000      	movge	r0, #0
    29ec:	ebb0 7fd1 	cmp.w	r0, r1, lsr #31
    29f0:	d12b      	bne.n	2a4a <ada__real_time__time_of+0xfa>
    29f2:	f249 6080 	movw	r0, #38528	; 0x9680
    29f6:	2100      	movs	r1, #0
    29f8:	f2c0 0098 	movt	r0, #152	; 0x98
    29fc:	f7ff fdd8 	bl	25b0 <ada__real_time__Oadd>
    2a00:	42b4      	cmp	r4, r6
    2a02:	eb75 0307 	sbcs.w	r3, r5, r7
    2a06:	db18      	blt.n	2a3a <ada__real_time__time_of+0xea>
    2a08:	a313      	add	r3, pc, #76	; (adr r3, 2a58 <ada__real_time__time_of+0x108>)
    2a0a:	e9d3 2300 	ldrd	r2, r3, [r3]
    2a0e:	1ba4      	subs	r4, r4, r6
    2a10:	eb65 0507 	sbc.w	r5, r5, r7
    2a14:	42a2      	cmp	r2, r4
    2a16:	41ab      	sbcs	r3, r5
    2a18:	db0f      	blt.n	2a3a <ada__real_time__time_of+0xea>
    2a1a:	fba4 230a 	umull	r2, r3, r4, sl
    2a1e:	1880      	adds	r0, r0, r2
    2a20:	fb0a 3305 	mla	r3, sl, r5, r3
    2a24:	4159      	adcs	r1, r3
    2a26:	e8bd 87f0 	ldmia.w	sp!, {r4, r5, r6, r7, r8, r9, sl, pc}
    2a2a:	f644 7030 	movw	r0, #20272	; 0x4f30
    2a2e:	f44f 71d1 	mov.w	r1, #418	; 0x1a2
    2a32:	f2c0 0000 	movt	r0, #0
    2a36:	f7fe fb35 	bl	10a4 <__gnat_last_chance_handler>
    2a3a:	f644 7030 	movw	r0, #20272	; 0x4f30
    2a3e:	f240 1199 	movw	r1, #409	; 0x199
    2a42:	f2c0 0000 	movt	r0, #0
    2a46:	f7fe fb2d 	bl	10a4 <__gnat_last_chance_handler>
    2a4a:	f644 7030 	movw	r0, #20272	; 0x4f30
    2a4e:	21bb      	movs	r1, #187	; 0xbb
    2a50:	f2c0 0000 	movt	r0, #0
    2a54:	f7fe fb26 	bl	10a4 <__gnat_last_chance_handler>
    2a58:	7f29abca 	.word	0x7f29abca
    2a5c:	000001ad 	.word	0x000001ad

00002a60 <ada__real_time__mul_div>:
    2a60:	e92d 4ff0 	stmdb	sp!, {r4, r5, r6, r7, r8, r9, sl, fp, lr}
    2a64:	fba0 8902 	umull	r8, r9, r0, r2
    2a68:	4617      	mov	r7, r2
    2a6a:	f04f 0b00 	mov.w	fp, #0
    2a6e:	461a      	mov	r2, r3
    2a70:	461e      	mov	r6, r3
    2a72:	fb07 930b 	mla	r3, r7, fp, r9
    2a76:	2500      	movs	r5, #0
    2a78:	461c      	mov	r4, r3
    2a7a:	46c2      	mov	sl, r8
    2a7c:	46a9      	mov	r9, r5
    2a7e:	46a0      	mov	r8, r4
    2a80:	b083      	sub	sp, #12
    2a82:	f04f 0b00 	mov.w	fp, #0
    2a86:	462b      	mov	r3, r5
    2a88:	fbe7 8901 	umlal	r8, r9, r7, r1
    2a8c:	4640      	mov	r0, r8
    2a8e:	4649      	mov	r1, r9
    2a90:	e9cd ab00 	strd	sl, fp, [sp]
    2a94:	f001 fe96 	bl	47c4 <__aeabi_uldivmod>
    2a98:	2900      	cmp	r1, #0
    2a9a:	bf08      	it	eq
    2a9c:	f1b0 4f00 	cmpeq.w	r0, #2147483648	; 0x80000000
    2aa0:	d229      	bcs.n	2af6 <ada__real_time__mul_div+0x96>
    2aa2:	fba0 2306 	umull	r2, r3, r0, r6
    2aa6:	eb06 71d6 	add.w	r1, r6, r6, lsr #31
    2aaa:	ebc2 0b08 	rsb	fp, r2, r8
    2aae:	e9dd 8900 	ldrd	r8, r9, [sp]
    2ab2:	104b      	asrs	r3, r1, #1
    2ab4:	4632      	mov	r2, r6
    2ab6:	eb18 0803 	adds.w	r8, r8, r3
    2aba:	eb49 79e3 	adc.w	r9, r9, r3, asr #31
    2abe:	462b      	mov	r3, r5
    2ac0:	e9cd 8900 	strd	r8, r9, [sp]
    2ac4:	4681      	mov	r9, r0
    2ac6:	e9dd 0100 	ldrd	r0, r1, [sp]
    2aca:	1940      	adds	r0, r0, r5
    2acc:	eb41 010b 	adc.w	r1, r1, fp
    2ad0:	f001 fe78 	bl	47c4 <__aeabi_uldivmod>
    2ad4:	f04f 32ff 	mov.w	r2, #4294967295
    2ad8:	1b52      	subs	r2, r2, r5
    2ada:	f06f 4300 	mvn.w	r3, #2147483648	; 0x80000000
    2ade:	eb63 0309 	sbc.w	r3, r3, r9
    2ae2:	428b      	cmp	r3, r1
    2ae4:	bf08      	it	eq
    2ae6:	4282      	cmpeq	r2, r0
    2ae8:	d30d      	bcc.n	2b06 <ada__real_time__mul_div+0xa6>
    2aea:	1940      	adds	r0, r0, r5
    2aec:	eb41 0109 	adc.w	r1, r1, r9
    2af0:	b003      	add	sp, #12
    2af2:	e8bd 8ff0 	ldmia.w	sp!, {r4, r5, r6, r7, r8, r9, sl, fp, pc}
    2af6:	f644 7030 	movw	r0, #20272	; 0x4f30
    2afa:	f240 11df 	movw	r1, #479	; 0x1df
    2afe:	f2c0 0000 	movt	r0, #0
    2b02:	f7fe facf 	bl	10a4 <__gnat_last_chance_handler>
    2b06:	f644 7030 	movw	r0, #20272	; 0x4f30
    2b0a:	f240 11ef 	movw	r1, #495	; 0x1ef
    2b0e:	f2c0 0000 	movt	r0, #0
    2b12:	f7fe fac7 	bl	10a4 <__gnat_last_chance_handler>
    2b16:	bf00      	nop

00002b18 <ada__real_time__to_duration>:
    2b18:	f1b1 4f00 	cmp.w	r1, #2147483648	; 0x80000000
    2b1c:	bf08      	it	eq
    2b1e:	2800      	cmpeq	r0, #0
    2b20:	b5f8      	push	{r3, r4, r5, r6, r7, lr}
    2b22:	460f      	mov	r7, r1
    2b24:	d01a      	beq.n	2b5c <ada__real_time__to_duration+0x44>
    2b26:	17cc      	asrs	r4, r1, #31
    2b28:	4060      	eors	r0, r4
    2b2a:	1b00      	subs	r0, r0, r4
    2b2c:	ea84 0101 	eor.w	r1, r4, r1
    2b30:	f44f 424a 	mov.w	r2, #51712	; 0xca00
    2b34:	f249 6380 	movw	r3, #38528	; 0x9680
    2b38:	f6c3 329a 	movt	r2, #15258	; 0x3b9a
    2b3c:	f2c0 0398 	movt	r3, #152	; 0x98
    2b40:	eb61 0104 	sbc.w	r1, r1, r4
    2b44:	f7ff ff8c 	bl	2a60 <ada__real_time__mul_div>
    2b48:	0ffa      	lsrs	r2, r7, #31
    2b4a:	2300      	movs	r3, #0
    2b4c:	4254      	negs	r4, r2
    2b4e:	eb63 0543 	sbc.w	r5, r3, r3, lsl #1
    2b52:	4060      	eors	r0, r4
    2b54:	4069      	eors	r1, r5
    2b56:	1880      	adds	r0, r0, r2
    2b58:	4159      	adcs	r1, r3
    2b5a:	bdf8      	pop	{r3, r4, r5, r6, r7, pc}
    2b5c:	f644 7030 	movw	r0, #20272	; 0x4f30
    2b60:	f240 11df 	movw	r1, #479	; 0x1df
    2b64:	f2c0 0000 	movt	r0, #0
    2b68:	f7fe fa9c 	bl	10a4 <__gnat_last_chance_handler>

00002b6c <ada__real_time__to_time_span>:
    2b6c:	b5f8      	push	{r3, r4, r5, r6, r7, lr}
    2b6e:	17cc      	asrs	r4, r1, #31
    2b70:	4060      	eors	r0, r4
    2b72:	460f      	mov	r7, r1
    2b74:	1b00      	subs	r0, r0, r4
    2b76:	ea84 0101 	eor.w	r1, r4, r1
    2b7a:	f249 6280 	movw	r2, #38528	; 0x9680
    2b7e:	f44f 434a 	mov.w	r3, #51712	; 0xca00
    2b82:	f2c0 0298 	movt	r2, #152	; 0x98
    2b86:	f6c3 339a 	movt	r3, #15258	; 0x3b9a
    2b8a:	eb61 0104 	sbc.w	r1, r1, r4
    2b8e:	f7ff ff67 	bl	2a60 <ada__real_time__mul_div>
    2b92:	0ffa      	lsrs	r2, r7, #31
    2b94:	2300      	movs	r3, #0
    2b96:	4254      	negs	r4, r2
    2b98:	eb63 0543 	sbc.w	r5, r3, r3, lsl #1
    2b9c:	4060      	eors	r0, r4
    2b9e:	4069      	eors	r1, r5
    2ba0:	1880      	adds	r0, r0, r2
    2ba2:	4159      	adcs	r1, r3
    2ba4:	bdf8      	pop	{r3, r4, r5, r6, r7, pc}
    2ba6:	bf00      	nop

00002ba8 <ada__real_time___elabb>:
    2ba8:	f000 b838 	b.w	2c1c <system__tasking__initialize>

00002bac <ada__real_time___elabs>:
    2bac:	f242 43e0 	movw	r3, #9440	; 0x24e0
    2bb0:	2064      	movs	r0, #100	; 0x64
    2bb2:	2100      	movs	r1, #0
    2bb4:	f6c0 0300 	movt	r3, #2048	; 0x800
    2bb8:	e9c3 0100 	strd	r0, r1, [r3]
    2bbc:	4770      	bx	lr
    2bbe:	bf00      	nop

00002bc0 <system__tasking__E5sIP>:
    2bc0:	2300      	movs	r3, #0
    2bc2:	6043      	str	r3, [r0, #4]
    2bc4:	4770      	bx	lr
    2bc6:	bf00      	nop

00002bc8 <system__tasking__activation_chainIP>:
    2bc8:	2300      	movs	r3, #0
    2bca:	6003      	str	r3, [r0, #0]
    2bcc:	4770      	bx	lr
    2bce:	bf00      	nop

00002bd0 <system__tasking__Tenvironment_taskBIP>:
    2bd0:	4770      	bx	lr
    2bd2:	bf00      	nop

00002bd4 <__gnat_get_secondary_stack>:
    2bd4:	f240 0338 	movw	r3, #56	; 0x38
    2bd8:	f6c0 0300 	movt	r3, #2048	; 0x800
    2bdc:	681b      	ldr	r3, [r3, #0]
    2bde:	f8d3 30a0 	ldr.w	r3, [r3, #160]	; 0xa0
    2be2:	f8d3 0110 	ldr.w	r0, [r3, #272]	; 0x110
    2be6:	4770      	bx	lr

00002be8 <system__tasking__initialize_atcb>:
    2be8:	b5f8      	push	{r3, r4, r5, r6, r7, lr}
    2bea:	f89d 7018 	ldrb.w	r7, [sp, #24]
    2bee:	2500      	movs	r5, #0
    2bf0:	9c09      	ldr	r4, [sp, #36]	; 0x24
    2bf2:	9e07      	ldr	r6, [sp, #28]
    2bf4:	7225      	strb	r5, [r4, #8]
    2bf6:	60e2      	str	r2, [r4, #12]
    2bf8:	7263      	strb	r3, [r4, #9]
    2bfa:	6125      	str	r5, [r4, #16]
    2bfc:	f8c4 0104 	str.w	r0, [r4, #260]	; 0x104
    2c00:	f8c4 1100 	str.w	r1, [r4, #256]	; 0x100
    2c04:	f884 7118 	strb.w	r7, [r4, #280]	; 0x118
    2c08:	f8c4 6108 	str.w	r6, [r4, #264]	; 0x108
    2c0c:	9808      	ldr	r0, [sp, #32]
    2c0e:	f001 fc95 	bl	453c <system__parameters__adjust_storage_size>
    2c12:	f8c4 010c 	str.w	r0, [r4, #268]	; 0x10c
    2c16:	2001      	movs	r0, #1
    2c18:	bdf8      	pop	{r3, r4, r5, r6, r7, pc}
    2c1a:	bf00      	nop

00002c1c <system__tasking__initialize>:
    2c1c:	f240 0360 	movw	r3, #96	; 0x60
    2c20:	f6c0 0300 	movt	r3, #2048	; 0x800
    2c24:	781a      	ldrb	r2, [r3, #0]
    2c26:	2a00      	cmp	r2, #0
    2c28:	f040 80c2 	bne.w	2db0 <system__tasking__initialize+0x194>
    2c2c:	f240 026c 	movw	r2, #108	; 0x6c
    2c30:	2101      	movs	r1, #1
    2c32:	f6c0 0200 	movt	r2, #2048	; 0x800
    2c36:	e92d 43f0 	stmdb	sp!, {r4, r5, r6, r7, r8, r9, lr}
    2c3a:	7019      	strb	r1, [r3, #0]
    2c3c:	b085      	sub	sp, #20
    2c3e:	6813      	ldr	r3, [r2, #0]
    2c40:	3301      	adds	r3, #1
    2c42:	f000 80a4 	beq.w	2d8e <system__tasking__initialize+0x172>
    2c46:	6813      	ldr	r3, [r2, #0]
    2c48:	2b00      	cmp	r3, #0
    2c4a:	db03      	blt.n	2c54 <system__tasking__initialize+0x38>
    2c4c:	6813      	ldr	r3, [r2, #0]
    2c4e:	428b      	cmp	r3, r1
    2c50:	f340 809d 	ble.w	2d8e <system__tasking__initialize+0x172>
    2c54:	2501      	movs	r5, #1
    2c56:	4628      	mov	r0, r5
    2c58:	462e      	mov	r6, r5
    2c5a:	462b      	mov	r3, r5
    2c5c:	f240 015c 	movw	r1, #92	; 0x5c
    2c60:	ea4f 08c5 	mov.w	r8, r5, lsl #3
    2c64:	f6c0 0100 	movt	r1, #2048	; 0x800
    2c68:	eb08 0405 	add.w	r4, r8, r5
    2c6c:	6010      	str	r0, [r2, #0]
    2c6e:	f242 47e8 	movw	r7, #9448	; 0x24e8
    2c72:	eb05 0444 	add.w	r4, r5, r4, lsl #1
    2c76:	680a      	ldr	r2, [r1, #0]
    2c78:	f6c0 0700 	movt	r7, #2048	; 0x800
    2c7c:	eb07 1404 	add.w	r4, r7, r4, lsl #4
    2c80:	3201      	adds	r2, #1
    2c82:	f5a4 7498 	sub.w	r4, r4, #304	; 0x130
    2c86:	f04f 0900 	mov.w	r9, #0
    2c8a:	bf0c      	ite	eq
    2c8c:	2278      	moveq	r2, #120	; 0x78
    2c8e:	680a      	ldrne	r2, [r1, #0]
    2c90:	2102      	movs	r1, #2
    2c92:	9403      	str	r4, [sp, #12]
    2c94:	4648      	mov	r0, r9
    2c96:	9100      	str	r1, [sp, #0]
    2c98:	4649      	mov	r1, r9
    2c9a:	f8cd 9004 	str.w	r9, [sp, #4]
    2c9e:	f8cd 9008 	str.w	r9, [sp, #8]
    2ca2:	f7ff ffa1 	bl	2be8 <system__tasking__initialize_atcb>
    2ca6:	f104 0318 	add.w	r3, r4, #24
    2caa:	f8c4 30f8 	str.w	r3, [r4, #248]	; 0xf8
    2cae:	f8c4 9114 	str.w	r9, [r4, #276]	; 0x114
    2cb2:	f8d4 00f8 	ldr.w	r0, [r4, #248]	; 0xf8
    2cb6:	68e1      	ldr	r1, [r4, #12]
    2cb8:	f7fe ff98 	bl	1bec <system__bb__threads__initialize>
    2cbc:	f240 024c 	movw	r2, #76	; 0x4c
    2cc0:	f6c0 0200 	movt	r2, #2048	; 0x800
    2cc4:	f240 0338 	movw	r3, #56	; 0x38
    2cc8:	f6c0 0300 	movt	r3, #2048	; 0x800
    2ccc:	6811      	ldr	r1, [r2, #0]
    2cce:	6818      	ldr	r0, [r3, #0]
    2cd0:	f8c0 40a0 	str.w	r4, [r0, #160]	; 0xa0
    2cd4:	f8c4 90fc 	str.w	r9, [r4, #252]	; 0xfc
    2cd8:	2900      	cmp	r1, #0
    2cda:	d06f      	beq.n	2dbc <system__tasking__initialize+0x1a0>
    2cdc:	f8c1 4114 	str.w	r4, [r1, #276]	; 0x114
    2ce0:	6014      	str	r4, [r2, #0]
    2ce2:	68e0      	ldr	r0, [r4, #12]
    2ce4:	b672      	cpsid	i
    2ce6:	f8d3 e000 	ldr.w	lr, [r3]
    2cea:	f89e 30a4 	ldrb.w	r3, [lr, #164]	; 0xa4
    2cee:	2b00      	cmp	r3, #0
    2cf0:	f8ce 00ac 	str.w	r0, [lr, #172]	; 0xac
    2cf4:	bf08      	it	eq
    2cf6:	2301      	moveq	r3, #1
    2cf8:	f8de 20b8 	ldr.w	r2, [lr, #184]	; 0xb8
    2cfc:	b1ea      	cbz	r2, 2d3a <system__tasking__initialize+0x11e>
    2cfe:	f8d2 10ac 	ldr.w	r1, [r2, #172]	; 0xac
    2d02:	4288      	cmp	r0, r1
    2d04:	da19      	bge.n	2d3a <system__tasking__initialize+0x11e>
    2d06:	b25b      	sxtb	r3, r3
    2d08:	f103 4380 	add.w	r3, r3, #1073741824	; 0x40000000
    2d0c:	f240 012c 	movw	r1, #44	; 0x2c
    2d10:	3b01      	subs	r3, #1
    2d12:	f6c0 0100 	movt	r1, #2048	; 0x800
    2d16:	f841 2023 	str.w	r2, [r1, r3, lsl #2]
    2d1a:	f851 2023 	ldr.w	r2, [r1, r3, lsl #2]
    2d1e:	e004      	b.n	2d2a <system__tasking__initialize+0x10e>
    2d20:	f8d3 10ac 	ldr.w	r1, [r3, #172]	; 0xac
    2d24:	4288      	cmp	r0, r1
    2d26:	da04      	bge.n	2d32 <system__tasking__initialize+0x116>
    2d28:	461a      	mov	r2, r3
    2d2a:	f8d2 30b8 	ldr.w	r3, [r2, #184]	; 0xb8
    2d2e:	2b00      	cmp	r3, #0
    2d30:	d1f6      	bne.n	2d20 <system__tasking__initialize+0x104>
    2d32:	f8ce 30b8 	str.w	r3, [lr, #184]	; 0xb8
    2d36:	f8c2 e0b8 	str.w	lr, [r2, #184]	; 0xb8
    2d3a:	44a8      	add	r8, r5
    2d3c:	f7fe fe0a 	bl	1954 <system__bb__protection__leave_kernel>
    2d40:	f240 0298 	movw	r2, #152	; 0x98
    2d44:	f242 6318 	movw	r3, #9752	; 0x2618
    2d48:	eb05 0548 	add.w	r5, r5, r8, lsl #1
    2d4c:	f6c0 0300 	movt	r3, #2048	; 0x800
    2d50:	f04f 0c01 	mov.w	ip, #1
    2d54:	012d      	lsls	r5, r5, #4
    2d56:	f5a5 7e94 	sub.w	lr, r5, #296	; 0x128
    2d5a:	f6c0 0200 	movt	r2, #2048	; 0x800
    2d5e:	443d      	add	r5, r7
    2d60:	f44f 5120 	mov.w	r1, #10240	; 0x2800
    2d64:	4618      	mov	r0, r3
    2d66:	6014      	str	r4, [r2, #0]
    2d68:	f807 c00e 	strb.w	ip, [r7, lr]
    2d6c:	f845 3c20 	str.w	r3, [r5, #-32]
    2d70:	f845 4c10 	str.w	r4, [r5, #-16]
    2d74:	f001 fbd0 	bl	4518 <system__secondary_stack__ss_init>
    2d78:	f240 0364 	movw	r3, #100	; 0x64
    2d7c:	2100      	movs	r1, #0
    2d7e:	f6c0 0300 	movt	r3, #2048	; 0x800
    2d82:	6019      	str	r1, [r3, #0]
    2d84:	6059      	str	r1, [r3, #4]
    2d86:	b9fe      	cbnz	r6, 2dc8 <system__tasking__initialize+0x1ac>
    2d88:	b005      	add	sp, #20
    2d8a:	e8bd 83f0 	ldmia.w	sp!, {r4, r5, r6, r7, r8, r9, pc}
    2d8e:	6811      	ldr	r1, [r2, #0]
    2d90:	f240 036c 	movw	r3, #108	; 0x6c
    2d94:	f6c0 0300 	movt	r3, #2048	; 0x800
    2d98:	3101      	adds	r1, #1
    2d9a:	d00a      	beq.n	2db2 <system__tasking__initialize+0x196>
    2d9c:	6819      	ldr	r1, [r3, #0]
    2d9e:	f011 0fff 	tst.w	r1, #255	; 0xff
    2da2:	d006      	beq.n	2db2 <system__tasking__initialize+0x196>
    2da4:	681d      	ldr	r5, [r3, #0]
    2da6:	2600      	movs	r6, #0
    2da8:	b2eb      	uxtb	r3, r5
    2daa:	4618      	mov	r0, r3
    2dac:	b26d      	sxtb	r5, r5
    2dae:	e755      	b.n	2c5c <system__tasking__initialize+0x40>
    2db0:	4770      	bx	lr
    2db2:	2501      	movs	r5, #1
    2db4:	2600      	movs	r6, #0
    2db6:	4628      	mov	r0, r5
    2db8:	462b      	mov	r3, r5
    2dba:	e74f      	b.n	2c5c <system__tasking__initialize+0x40>
    2dbc:	f240 0148 	movw	r1, #72	; 0x48
    2dc0:	f6c0 0100 	movt	r1, #2048	; 0x800
    2dc4:	600c      	str	r4, [r1, #0]
    2dc6:	e78b      	b.n	2ce0 <system__tasking__initialize+0xc4>
    2dc8:	f644 7078 	movw	r0, #20344	; 0x4f78
    2dcc:	f2c0 0000 	movt	r0, #0
    2dd0:	f7fe f968 	bl	10a4 <__gnat_last_chance_handler>

00002dd4 <__gnat_initialize_slave>:
    2dd4:	e92d 43f0 	stmdb	sp!, {r4, r5, r6, r7, r8, r9, lr}
    2dd8:	b245      	sxtb	r5, r0
    2dda:	f242 46e8 	movw	r6, #9448	; 0x24e8
    2dde:	f04f 0900 	mov.w	r9, #0
    2de2:	00ef      	lsls	r7, r5, #3
    2de4:	197c      	adds	r4, r7, r5
    2de6:	f6c0 0600 	movt	r6, #2048	; 0x800
    2dea:	b085      	sub	sp, #20
    2dec:	eb05 0444 	add.w	r4, r5, r4, lsl #1
    2df0:	2202      	movs	r2, #2
    2df2:	4603      	mov	r3, r0
    2df4:	eb06 1404 	add.w	r4, r6, r4, lsl #4
    2df8:	f5a4 7498 	sub.w	r4, r4, #304	; 0x130
    2dfc:	9200      	str	r2, [sp, #0]
    2dfe:	4649      	mov	r1, r9
    2e00:	464a      	mov	r2, r9
    2e02:	4648      	mov	r0, r9
    2e04:	f8cd 9004 	str.w	r9, [sp, #4]
    2e08:	f240 0838 	movw	r8, #56	; 0x38
    2e0c:	f8cd 9008 	str.w	r9, [sp, #8]
    2e10:	f6c0 0800 	movt	r8, #2048	; 0x800
    2e14:	9403      	str	r4, [sp, #12]
    2e16:	f7ff fee7 	bl	2be8 <system__tasking__initialize_atcb>
    2e1a:	f104 0318 	add.w	r3, r4, #24
    2e1e:	f8c4 30f8 	str.w	r3, [r4, #248]	; 0xf8
    2e22:	f8c4 9114 	str.w	r9, [r4, #276]	; 0x114
    2e26:	f8d4 00f8 	ldr.w	r0, [r4, #248]	; 0xf8
    2e2a:	f7fe ff41 	bl	1cb0 <system__bb__threads__initialize_slave_environment>
    2e2e:	f240 034c 	movw	r3, #76	; 0x4c
    2e32:	f6c0 0300 	movt	r3, #2048	; 0x800
    2e36:	f8d8 2000 	ldr.w	r2, [r8]
    2e3a:	f8c2 40a0 	str.w	r4, [r2, #160]	; 0xa0
    2e3e:	681a      	ldr	r2, [r3, #0]
    2e40:	f8c4 90fc 	str.w	r9, [r4, #252]	; 0xfc
    2e44:	2a00      	cmp	r2, #0
    2e46:	d06e      	beq.n	2f26 <__gnat_initialize_slave+0x152>
    2e48:	f8c2 4114 	str.w	r4, [r2, #276]	; 0x114
    2e4c:	601c      	str	r4, [r3, #0]
    2e4e:	68e0      	ldr	r0, [r4, #12]
    2e50:	b672      	cpsid	i
    2e52:	f8d8 e000 	ldr.w	lr, [r8]
    2e56:	f89e 30a4 	ldrb.w	r3, [lr, #164]	; 0xa4
    2e5a:	2b00      	cmp	r3, #0
    2e5c:	f8ce 00ac 	str.w	r0, [lr, #172]	; 0xac
    2e60:	bf08      	it	eq
    2e62:	2301      	moveq	r3, #1
    2e64:	f8de 20b8 	ldr.w	r2, [lr, #184]	; 0xb8
    2e68:	b1ea      	cbz	r2, 2ea6 <__gnat_initialize_slave+0xd2>
    2e6a:	f8d2 10ac 	ldr.w	r1, [r2, #172]	; 0xac
    2e6e:	4288      	cmp	r0, r1
    2e70:	da19      	bge.n	2ea6 <__gnat_initialize_slave+0xd2>
    2e72:	b25b      	sxtb	r3, r3
    2e74:	f103 4380 	add.w	r3, r3, #1073741824	; 0x40000000
    2e78:	f240 012c 	movw	r1, #44	; 0x2c
    2e7c:	3b01      	subs	r3, #1
    2e7e:	f6c0 0100 	movt	r1, #2048	; 0x800
    2e82:	f841 2023 	str.w	r2, [r1, r3, lsl #2]
    2e86:	f851 2023 	ldr.w	r2, [r1, r3, lsl #2]
    2e8a:	e004      	b.n	2e96 <__gnat_initialize_slave+0xc2>
    2e8c:	f8d3 10ac 	ldr.w	r1, [r3, #172]	; 0xac
    2e90:	4288      	cmp	r0, r1
    2e92:	da04      	bge.n	2e9e <__gnat_initialize_slave+0xca>
    2e94:	461a      	mov	r2, r3
    2e96:	f8d2 30b8 	ldr.w	r3, [r2, #184]	; 0xb8
    2e9a:	2b00      	cmp	r3, #0
    2e9c:	d1f6      	bne.n	2e8c <__gnat_initialize_slave+0xb8>
    2e9e:	f8ce 30b8 	str.w	r3, [lr, #184]	; 0xb8
    2ea2:	f8c2 e0b8 	str.w	lr, [r2, #184]	; 0xb8
    2ea6:	f7fe fd55 	bl	1954 <system__bb__protection__leave_kernel>
    2eaa:	b672      	cpsid	i
    2eac:	f8d8 0000 	ldr.w	r0, [r8]
    2eb0:	2200      	movs	r2, #0
    2eb2:	f890 30a4 	ldrb.w	r3, [r0, #164]	; 0xa4
    2eb6:	4293      	cmp	r3, r2
    2eb8:	f8c0 20ac 	str.w	r2, [r0, #172]	; 0xac
    2ebc:	bf08      	it	eq
    2ebe:	2301      	moveq	r3, #1
    2ec0:	f8d0 20b8 	ldr.w	r2, [r0, #184]	; 0xb8
    2ec4:	b1ea      	cbz	r2, 2f02 <__gnat_initialize_slave+0x12e>
    2ec6:	f8d2 10ac 	ldr.w	r1, [r2, #172]	; 0xac
    2eca:	2900      	cmp	r1, #0
    2ecc:	dd19      	ble.n	2f02 <__gnat_initialize_slave+0x12e>
    2ece:	b25b      	sxtb	r3, r3
    2ed0:	f103 4380 	add.w	r3, r3, #1073741824	; 0x40000000
    2ed4:	f240 012c 	movw	r1, #44	; 0x2c
    2ed8:	3b01      	subs	r3, #1
    2eda:	f6c0 0100 	movt	r1, #2048	; 0x800
    2ede:	f841 2023 	str.w	r2, [r1, r3, lsl #2]
    2ee2:	f851 2023 	ldr.w	r2, [r1, r3, lsl #2]
    2ee6:	e004      	b.n	2ef2 <__gnat_initialize_slave+0x11e>
    2ee8:	f8d3 10ac 	ldr.w	r1, [r3, #172]	; 0xac
    2eec:	2900      	cmp	r1, #0
    2eee:	dd04      	ble.n	2efa <__gnat_initialize_slave+0x126>
    2ef0:	461a      	mov	r2, r3
    2ef2:	f8d2 30b8 	ldr.w	r3, [r2, #184]	; 0xb8
    2ef6:	2b00      	cmp	r3, #0
    2ef8:	d1f6      	bne.n	2ee8 <__gnat_initialize_slave+0x114>
    2efa:	f8c0 30b8 	str.w	r3, [r0, #184]	; 0xb8
    2efe:	f8c2 00b8 	str.w	r0, [r2, #184]	; 0xb8
    2f02:	f7fe fd27 	bl	1954 <system__bb__protection__leave_kernel>
    2f06:	442f      	add	r7, r5
    2f08:	2300      	movs	r3, #0
    2f0a:	eb05 0547 	add.w	r5, r5, r7, lsl #1
    2f0e:	012d      	lsls	r5, r5, #4
    2f10:	1972      	adds	r2, r6, r5
    2f12:	f5a5 7594 	sub.w	r5, r5, #296	; 0x128
    2f16:	f842 4c10 	str.w	r4, [r2, #-16]
    2f1a:	5573      	strb	r3, [r6, r5]
    2f1c:	b005      	add	sp, #20
    2f1e:	e8bd 43f0 	ldmia.w	sp!, {r4, r5, r6, r7, r8, r9, lr}
    2f22:	f7fe bf0b 	b.w	1d3c <system__bb__threads__sleep>
    2f26:	f240 0248 	movw	r2, #72	; 0x48
    2f2a:	f6c0 0200 	movt	r2, #2048	; 0x800
    2f2e:	6014      	str	r4, [r2, #0]
    2f30:	e78c      	b.n	2e4c <__gnat_initialize_slave+0x78>
    2f32:	bf00      	nop

00002f34 <system__tasking__self>:
    2f34:	f240 0338 	movw	r3, #56	; 0x38
    2f38:	f6c0 0300 	movt	r3, #2048	; 0x800
    2f3c:	681b      	ldr	r3, [r3, #0]
    2f3e:	f8d3 00a0 	ldr.w	r0, [r3, #160]	; 0xa0
    2f42:	4770      	bx	lr

00002f44 <system__tasking__set_sec_stack>:
    2f44:	f240 0338 	movw	r3, #56	; 0x38
    2f48:	f6c0 0300 	movt	r3, #2048	; 0x800
    2f4c:	681b      	ldr	r3, [r3, #0]
    2f4e:	f8d3 30a0 	ldr.w	r3, [r3, #160]	; 0xa0
    2f52:	f8c3 0110 	str.w	r0, [r3, #272]	; 0x110
    2f56:	4770      	bx	lr

00002f58 <system__tasking__storage_size>:
    2f58:	f8d0 010c 	ldr.w	r0, [r0, #268]	; 0x10c
    2f5c:	4770      	bx	lr
    2f5e:	bf00      	nop

00002f60 <system__bb__time__composite_execution_timeIP>:
    2f60:	4770      	bx	lr
    2f62:	bf00      	nop

00002f64 <system__bb__time__composite_timeIP>:
    2f64:	2201      	movs	r2, #1
    2f66:	2300      	movs	r3, #0
    2f68:	6002      	str	r2, [r0, #0]
    2f6a:	6043      	str	r3, [r0, #4]
    2f6c:	4770      	bx	lr
    2f6e:	bf00      	nop

00002f70 <system__bb__time__clock>:
    2f70:	e92d 41f0 	stmdb	sp!, {r4, r5, r6, r7, r8, lr}
    2f74:	f240 0480 	movw	r4, #128	; 0x80
    2f78:	2500      	movs	r5, #0
    2f7a:	f6c0 0400 	movt	r4, #2048	; 0x800
    2f7e:	6826      	ldr	r6, [r4, #0]
    2f80:	3501      	adds	r5, #1
    2f82:	6867      	ldr	r7, [r4, #4]
    2f84:	f000 faa8 	bl	34d8 <system__bb__board_support__read_clock>
    2f88:	6822      	ldr	r2, [r4, #0]
    2f8a:	ebc8 0306 	rsb	r3, r8, r6
    2f8e:	4296      	cmp	r6, r2
    2f90:	d012      	beq.n	2fb8 <system__bb__time__clock+0x48>
    2f92:	2d01      	cmp	r5, #1
    2f94:	d00e      	beq.n	2fb4 <system__bb__time__clock+0x44>
    2f96:	2b01      	cmp	r3, #1
    2f98:	bf8c      	ite	hi
    2f9a:	2300      	movhi	r3, #0
    2f9c:	2301      	movls	r3, #1
    2f9e:	2d03      	cmp	r5, #3
    2fa0:	bf08      	it	eq
    2fa2:	2300      	moveq	r3, #0
    2fa4:	2b00      	cmp	r3, #0
    2fa6:	d1ea      	bne.n	2f7e <system__bb__time__clock+0xe>
    2fa8:	4635      	mov	r5, r6
    2faa:	461c      	mov	r4, r3
    2fac:	4620      	mov	r0, r4
    2fae:	4629      	mov	r1, r5
    2fb0:	e8bd 81f0 	ldmia.w	sp!, {r4, r5, r6, r7, r8, pc}
    2fb4:	46b0      	mov	r8, r6
    2fb6:	e7e2      	b.n	2f7e <system__bb__time__clock+0xe>
    2fb8:	2400      	movs	r4, #0
    2fba:	4287      	cmp	r7, r0
    2fbc:	bf94      	ite	ls
    2fbe:	4635      	movls	r5, r6
    2fc0:	1c75      	addhi	r5, r6, #1
    2fc2:	1824      	adds	r4, r4, r0
    2fc4:	f145 0500 	adc.w	r5, r5, #0
    2fc8:	e7f0      	b.n	2fac <system__bb__time__clock+0x3c>
    2fca:	bf00      	nop

00002fcc <system__bb__time__epoch>:
    2fcc:	2000      	movs	r0, #0
    2fce:	2101      	movs	r1, #1
    2fd0:	4770      	bx	lr
    2fd2:	bf00      	nop

00002fd4 <system__bb__time__get_next_timeout>:
    2fd4:	b240      	sxtb	r0, r0
    2fd6:	f100 4080 	add.w	r0, r0, #1073741824	; 0x40000000
    2fda:	f240 0334 	movw	r3, #52	; 0x34
    2fde:	3801      	subs	r0, #1
    2fe0:	f6c0 0300 	movt	r3, #2048	; 0x800
    2fe4:	b430      	push	{r4, r5}
    2fe6:	f853 3020 	ldr.w	r3, [r3, r0, lsl #2]
    2fea:	b1a3      	cbz	r3, 3016 <system__bb__time__get_next_timeout+0x42>
    2fec:	e9d3 4530 	ldrd	r4, r5, [r3, #192]	; 0xc0
    2ff0:	f240 039c 	movw	r3, #156	; 0x9c
    2ff4:	f6c0 0300 	movt	r3, #2048	; 0x800
    2ff8:	f853 3020 	ldr.w	r3, [r3, r0, lsl #2]
    2ffc:	b1bb      	cbz	r3, 302e <system__bb__time__get_next_timeout+0x5a>
    2ffe:	689a      	ldr	r2, [r3, #8]
    3000:	68db      	ldr	r3, [r3, #12]
    3002:	429d      	cmp	r5, r3
    3004:	bf08      	it	eq
    3006:	4294      	cmpeq	r4, r2
    3008:	4610      	mov	r0, r2
    300a:	4619      	mov	r1, r3
    300c:	bf3c      	itt	cc
    300e:	4620      	movcc	r0, r4
    3010:	4629      	movcc	r1, r5
    3012:	bc30      	pop	{r4, r5}
    3014:	4770      	bx	lr
    3016:	f240 039c 	movw	r3, #156	; 0x9c
    301a:	f04f 34ff 	mov.w	r4, #4294967295
    301e:	f6c0 0300 	movt	r3, #2048	; 0x800
    3022:	f04f 35ff 	mov.w	r5, #4294967295
    3026:	f853 3020 	ldr.w	r3, [r3, r0, lsl #2]
    302a:	2b00      	cmp	r3, #0
    302c:	d1e7      	bne.n	2ffe <system__bb__time__get_next_timeout+0x2a>
    302e:	f04f 32ff 	mov.w	r2, #4294967295
    3032:	4613      	mov	r3, r2
    3034:	e7e5      	b.n	3002 <system__bb__time__get_next_timeout+0x2e>
    3036:	bf00      	nop

00003038 <system__bb__time__initialize_timers>:
    3038:	f64f 6210 	movw	r2, #65040	; 0xfe10
    303c:	f64f 70f9 	movw	r0, #65529	; 0xfff9
    3040:	e92d 43f8 	stmdb	sp!, {r3, r4, r5, r6, r7, r8, r9, lr}
    3044:	f6cf 72ff 	movt	r2, #65535	; 0xffff
    3048:	f240 0788 	movw	r7, #136	; 0x88
    304c:	f6cd 70ff 	movt	r0, #57343	; 0xdfff
    3050:	2100      	movs	r1, #0
    3052:	f6c0 0700 	movt	r7, #2048	; 0x800
    3056:	f242 3354 	movw	r3, #9044	; 0x2354
    305a:	f243 25d9 	movw	r5, #13017	; 0x32d9
    305e:	f6c0 0300 	movt	r3, #2048	; 0x800
    3062:	e9c7 0100 	strd	r0, r1, [r7]
    3066:	f2c0 0500 	movt	r5, #0
    306a:	6812      	ldr	r2, [r2, #0]
    306c:	f242 2045 	movw	r0, #8773	; 0x2245
    3070:	2105      	movs	r1, #5
    3072:	f2c0 0000 	movt	r0, #0
    3076:	f012 0f20 	tst.w	r2, #32
    307a:	bf14      	ite	ne
    307c:	22f2      	movne	r2, #242	; 0xf2
    307e:	22f1      	moveq	r2, #241	; 0xf1
    3080:	615d      	str	r5, [r3, #20]
    3082:	f000 fa71 	bl	3568 <system__bb__board_support__install_interrupt_handler>
    3086:	f000 fa27 	bl	34d8 <system__bb__board_support__read_clock>
    308a:	f240 0480 	movw	r4, #128	; 0x80
    308e:	f6c0 0400 	movt	r4, #2048	; 0x800
    3092:	2500      	movs	r5, #0
    3094:	6060      	str	r0, [r4, #4]
    3096:	6826      	ldr	r6, [r4, #0]
    3098:	3501      	adds	r5, #1
    309a:	f8d4 9004 	ldr.w	r9, [r4, #4]
    309e:	f000 fa1b 	bl	34d8 <system__bb__board_support__read_clock>
    30a2:	6822      	ldr	r2, [r4, #0]
    30a4:	ebc8 0306 	rsb	r3, r8, r6
    30a8:	4296      	cmp	r6, r2
    30aa:	d01d      	beq.n	30e8 <system__bb__time__initialize_timers+0xb0>
    30ac:	2d01      	cmp	r5, #1
    30ae:	d019      	beq.n	30e4 <system__bb__time__initialize_timers+0xac>
    30b0:	2b01      	cmp	r3, #1
    30b2:	bf8c      	ite	hi
    30b4:	2300      	movhi	r3, #0
    30b6:	2301      	movls	r3, #1
    30b8:	2d03      	cmp	r5, #3
    30ba:	bf08      	it	eq
    30bc:	2300      	moveq	r3, #0
    30be:	2b00      	cmp	r3, #0
    30c0:	d1e9      	bne.n	3096 <system__bb__time__initialize_timers+0x5e>
    30c2:	4635      	mov	r5, r6
    30c4:	461c      	mov	r4, r3
    30c6:	e9d7 2300 	ldrd	r2, r3, [r7]
    30ca:	f240 0170 	movw	r1, #112	; 0x70
    30ce:	4610      	mov	r0, r2
    30d0:	f6c0 0100 	movt	r1, #2048	; 0x800
    30d4:	1912      	adds	r2, r2, r4
    30d6:	416b      	adcs	r3, r5
    30d8:	e9c1 2300 	strd	r2, r3, [r1]
    30dc:	e8bd 43f8 	ldmia.w	sp!, {r3, r4, r5, r6, r7, r8, r9, lr}
    30e0:	f000 b9da 	b.w	3498 <system__bb__board_support__set_alarm>
    30e4:	46b0      	mov	r8, r6
    30e6:	e7d6      	b.n	3096 <system__bb__time__initialize_timers+0x5e>
    30e8:	2200      	movs	r2, #0
    30ea:	4581      	cmp	r9, r0
    30ec:	bf94      	ite	ls
    30ee:	4633      	movls	r3, r6
    30f0:	1c73      	addhi	r3, r6, #1
    30f2:	1814      	adds	r4, r2, r0
    30f4:	f143 0500 	adc.w	r5, r3, #0
    30f8:	e7e5      	b.n	30c6 <system__bb__time__initialize_timers+0x8e>
    30fa:	bf00      	nop

000030fc <system__bb__time__update_alarm>:
    30fc:	e92d 47f0 	stmdb	sp!, {r4, r5, r6, r7, r8, r9, sl, lr}
    3100:	f240 0480 	movw	r4, #128	; 0x80
    3104:	4680      	mov	r8, r0
    3106:	4689      	mov	r9, r1
    3108:	f6c0 0400 	movt	r4, #2048	; 0x800
    310c:	2500      	movs	r5, #0
    310e:	6826      	ldr	r6, [r4, #0]
    3110:	3501      	adds	r5, #1
    3112:	f8d4 a004 	ldr.w	sl, [r4, #4]
    3116:	f000 f9df 	bl	34d8 <system__bb__board_support__read_clock>
    311a:	6822      	ldr	r2, [r4, #0]
    311c:	1bf3      	subs	r3, r6, r7
    311e:	4296      	cmp	r6, r2
    3120:	d034      	beq.n	318c <system__bb__time__update_alarm+0x90>
    3122:	2d01      	cmp	r5, #1
    3124:	d030      	beq.n	3188 <system__bb__time__update_alarm+0x8c>
    3126:	2b01      	cmp	r3, #1
    3128:	bf8c      	ite	hi
    312a:	2300      	movhi	r3, #0
    312c:	2301      	movls	r3, #1
    312e:	2d03      	cmp	r5, #3
    3130:	bf08      	it	eq
    3132:	2300      	moveq	r3, #0
    3134:	2b00      	cmp	r3, #0
    3136:	d1ea      	bne.n	310e <system__bb__time__update_alarm+0x12>
    3138:	4635      	mov	r5, r6
    313a:	461c      	mov	r4, r3
    313c:	454d      	cmp	r5, r9
    313e:	bf08      	it	eq
    3140:	4544      	cmpeq	r4, r8
    3142:	bf24      	itt	cs
    3144:	2001      	movcs	r0, #1
    3146:	2100      	movcs	r1, #0
    3148:	d203      	bcs.n	3152 <system__bb__time__update_alarm+0x56>
    314a:	ebb8 0004 	subs.w	r0, r8, r4
    314e:	eb69 0105 	sbc.w	r1, r9, r5
    3152:	f240 0570 	movw	r5, #112	; 0x70
    3156:	f240 0488 	movw	r4, #136	; 0x88
    315a:	f6c0 0500 	movt	r5, #2048	; 0x800
    315e:	f6c0 0400 	movt	r4, #2048	; 0x800
    3162:	e9d5 2300 	ldrd	r2, r3, [r5]
    3166:	e9d4 6700 	ldrd	r6, r7, [r4]
    316a:	4599      	cmp	r9, r3
    316c:	bf08      	it	eq
    316e:	4590      	cmpeq	r8, r2
    3170:	d208      	bcs.n	3184 <system__bb__time__update_alarm+0x88>
    3172:	428f      	cmp	r7, r1
    3174:	bf08      	it	eq
    3176:	4286      	cmpeq	r6, r0
    3178:	bf38      	it	cc
    317a:	4630      	movcc	r0, r6
    317c:	f000 f98c 	bl	3498 <system__bb__board_support__set_alarm>
    3180:	e9c5 8900 	strd	r8, r9, [r5]
    3184:	e8bd 87f0 	ldmia.w	sp!, {r4, r5, r6, r7, r8, r9, sl, pc}
    3188:	4637      	mov	r7, r6
    318a:	e7c0      	b.n	310e <system__bb__time__update_alarm+0x12>
    318c:	2400      	movs	r4, #0
    318e:	4550      	cmp	r0, sl
    3190:	bf2c      	ite	cs
    3192:	4635      	movcs	r5, r6
    3194:	1c75      	addcc	r5, r6, #1
    3196:	1824      	adds	r4, r4, r0
    3198:	f145 0500 	adc.w	r5, r5, #0
    319c:	e7ce      	b.n	313c <system__bb__time__update_alarm+0x40>
    319e:	bf00      	nop

000031a0 <system__bb__time__delay_until>:
    31a0:	e92d 4ff8 	stmdb	sp!, {r3, r4, r5, r6, r7, r8, r9, sl, fp, lr}
    31a4:	4680      	mov	r8, r0
    31a6:	4689      	mov	r9, r1
    31a8:	b672      	cpsid	i
    31aa:	f240 0480 	movw	r4, #128	; 0x80
    31ae:	2500      	movs	r5, #0
    31b0:	f6c0 0400 	movt	r4, #2048	; 0x800
    31b4:	6826      	ldr	r6, [r4, #0]
    31b6:	3501      	adds	r5, #1
    31b8:	f8d4 a004 	ldr.w	sl, [r4, #4]
    31bc:	f000 f98c 	bl	34d8 <system__bb__board_support__read_clock>
    31c0:	6822      	ldr	r2, [r4, #0]
    31c2:	1bf3      	subs	r3, r6, r7
    31c4:	4296      	cmp	r6, r2
    31c6:	d059      	beq.n	327c <system__bb__time__delay_until+0xdc>
    31c8:	2d01      	cmp	r5, #1
    31ca:	d04c      	beq.n	3266 <system__bb__time__delay_until+0xc6>
    31cc:	2b01      	cmp	r3, #1
    31ce:	bf8c      	ite	hi
    31d0:	2300      	movhi	r3, #0
    31d2:	2301      	movls	r3, #1
    31d4:	2d03      	cmp	r5, #3
    31d6:	bf08      	it	eq
    31d8:	2300      	moveq	r3, #0
    31da:	2b00      	cmp	r3, #0
    31dc:	d1ea      	bne.n	31b4 <system__bb__time__delay_until+0x14>
    31de:	46b3      	mov	fp, r6
    31e0:	469a      	mov	sl, r3
    31e2:	f240 0338 	movw	r3, #56	; 0x38
    31e6:	45cb      	cmp	fp, r9
    31e8:	f6c0 0300 	movt	r3, #2048	; 0x800
    31ec:	bf08      	it	eq
    31ee:	45c2      	cmpeq	sl, r8
    31f0:	681c      	ldr	r4, [r3, #0]
    31f2:	d23c      	bcs.n	326e <system__bb__time__delay_until+0xce>
    31f4:	2202      	movs	r2, #2
    31f6:	f894 30a4 	ldrb.w	r3, [r4, #164]	; 0xa4
    31fa:	f884 20cc 	strb.w	r2, [r4, #204]	; 0xcc
    31fe:	b3a3      	cbz	r3, 326a <system__bb__time__delay_until+0xca>
    3200:	b25b      	sxtb	r3, r3
    3202:	f103 4380 	add.w	r3, r3, #1073741824	; 0x40000000
    3206:	f240 052c 	movw	r5, #44	; 0x2c
    320a:	2700      	movs	r7, #0
    320c:	3b01      	subs	r3, #1
    320e:	f6c0 0500 	movt	r5, #2048	; 0x800
    3212:	4640      	mov	r0, r8
    3214:	f8d4 60b8 	ldr.w	r6, [r4, #184]	; 0xb8
    3218:	4649      	mov	r1, r9
    321a:	4622      	mov	r2, r4
    321c:	f8c4 70b8 	str.w	r7, [r4, #184]	; 0xb8
    3220:	f845 6023 	str.w	r6, [r5, r3, lsl #2]
    3224:	f7fe fa8e 	bl	1744 <system__bb__threads__queues__insert_alarm>
    3228:	b1c8      	cbz	r0, 325e <system__bb__time__delay_until+0xbe>
    322a:	f240 0334 	movw	r3, #52	; 0x34
    322e:	f6c0 0300 	movt	r3, #2048	; 0x800
    3232:	681b      	ldr	r3, [r3, #0]
    3234:	b363      	cbz	r3, 3290 <system__bb__time__delay_until+0xf0>
    3236:	e9d3 4530 	ldrd	r4, r5, [r3, #192]	; 0xc0
    323a:	f240 039c 	movw	r3, #156	; 0x9c
    323e:	f6c0 0300 	movt	r3, #2048	; 0x800
    3242:	681b      	ldr	r3, [r3, #0]
    3244:	b34b      	cbz	r3, 329a <system__bb__time__delay_until+0xfa>
    3246:	689a      	ldr	r2, [r3, #8]
    3248:	68db      	ldr	r3, [r3, #12]
    324a:	429d      	cmp	r5, r3
    324c:	bf08      	it	eq
    324e:	4294      	cmpeq	r4, r2
    3250:	4610      	mov	r0, r2
    3252:	4619      	mov	r1, r3
    3254:	bf3c      	itt	cc
    3256:	4620      	movcc	r0, r4
    3258:	4629      	movcc	r1, r5
    325a:	f7ff ff4f 	bl	30fc <system__bb__time__update_alarm>
    325e:	e8bd 4ff8 	ldmia.w	sp!, {r3, r4, r5, r6, r7, r8, r9, sl, fp, lr}
    3262:	f7fe bb77 	b.w	1954 <system__bb__protection__leave_kernel>
    3266:	4637      	mov	r7, r6
    3268:	e7a4      	b.n	31b4 <system__bb__time__delay_until+0x14>
    326a:	2301      	movs	r3, #1
    326c:	e7c9      	b.n	3202 <system__bb__time__delay_until+0x62>
    326e:	4620      	mov	r0, r4
    3270:	f7fe fb24 	bl	18bc <system__bb__threads__queues__yield>
    3274:	e8bd 4ff8 	ldmia.w	sp!, {r3, r4, r5, r6, r7, r8, r9, sl, fp, lr}
    3278:	f7fe bb6c 	b.w	1954 <system__bb__protection__leave_kernel>
    327c:	2200      	movs	r2, #0
    327e:	4582      	cmp	sl, r0
    3280:	bf94      	ite	ls
    3282:	4633      	movls	r3, r6
    3284:	1c73      	addhi	r3, r6, #1
    3286:	eb12 0a00 	adds.w	sl, r2, r0
    328a:	f143 0b00 	adc.w	fp, r3, #0
    328e:	e7a8      	b.n	31e2 <system__bb__time__delay_until+0x42>
    3290:	f04f 34ff 	mov.w	r4, #4294967295
    3294:	f04f 35ff 	mov.w	r5, #4294967295
    3298:	e7cf      	b.n	323a <system__bb__time__delay_until+0x9a>
    329a:	f04f 32ff 	mov.w	r2, #4294967295
    329e:	4613      	mov	r3, r2
    32a0:	e7d3      	b.n	324a <system__bb__time__delay_until+0xaa>
    32a2:	bf00      	nop

000032a4 <system__bb__time__update_clock>:
    32a4:	b570      	push	{r4, r5, r6, lr}
    32a6:	f240 0480 	movw	r4, #128	; 0x80
    32aa:	f6c0 0400 	movt	r4, #2048	; 0x800
    32ae:	6825      	ldr	r5, [r4, #0]
    32b0:	6866      	ldr	r6, [r4, #4]
    32b2:	f000 f911 	bl	34d8 <system__bb__board_support__read_clock>
    32b6:	2200      	movs	r2, #0
    32b8:	4286      	cmp	r6, r0
    32ba:	bf85      	ittet	hi
    32bc:	3501      	addhi	r5, #1
    32be:	2300      	movhi	r3, #0
    32c0:	6060      	strls	r0, [r4, #4]
    32c2:	6023      	strhi	r3, [r4, #0]
    32c4:	bf84      	itt	hi
    32c6:	6060      	strhi	r0, [r4, #4]
    32c8:	6025      	strhi	r5, [r4, #0]
    32ca:	1814      	adds	r4, r2, r0
    32cc:	f145 0500 	adc.w	r5, r5, #0
    32d0:	4620      	mov	r0, r4
    32d2:	4629      	mov	r1, r5
    32d4:	bd70      	pop	{r4, r5, r6, pc}
    32d6:	bf00      	nop

000032d8 <system__bb__time__alarm_handler>:
    32d8:	e92d 43f8 	stmdb	sp!, {r3, r4, r5, r6, r7, r8, r9, lr}
    32dc:	f64f 4388 	movw	r3, #64648	; 0xfc88
    32e0:	2208      	movs	r2, #8
    32e2:	f6cf 73ff 	movt	r3, #65535	; 0xffff
    32e6:	601a      	str	r2, [r3, #0]
    32e8:	b672      	cpsid	i
    32ea:	f240 0370 	movw	r3, #112	; 0x70
    32ee:	f04f 37ff 	mov.w	r7, #4294967295
    32f2:	f6c0 0300 	movt	r3, #2048	; 0x800
    32f6:	463e      	mov	r6, r7
    32f8:	601f      	str	r7, [r3, #0]
    32fa:	605f      	str	r7, [r3, #4]
    32fc:	f7ff ffd2 	bl	32a4 <system__bb__time__update_clock>
    3300:	f240 0388 	movw	r3, #136	; 0x88
    3304:	f6c0 0300 	movt	r3, #2048	; 0x800
    3308:	e9d3 4500 	ldrd	r4, r5, [r3]
    330c:	4680      	mov	r8, r0
    330e:	1824      	adds	r4, r4, r0
    3310:	4689      	mov	r9, r1
    3312:	414d      	adcs	r5, r1
    3314:	f000 fbb0 	bl	3a78 <system__bb__timing_events__execute_expired_timing_events>
    3318:	4640      	mov	r0, r8
    331a:	4649      	mov	r1, r9
    331c:	f7fe fa4e 	bl	17bc <system__bb__threads__queues__wakeup_expired_alarms>
    3320:	f240 0334 	movw	r3, #52	; 0x34
    3324:	f6c0 0300 	movt	r3, #2048	; 0x800
    3328:	681b      	ldr	r3, [r3, #0]
    332a:	b11b      	cbz	r3, 3334 <system__bb__time__alarm_handler+0x5c>
    332c:	f8d3 70c0 	ldr.w	r7, [r3, #192]	; 0xc0
    3330:	f8d3 60c4 	ldr.w	r6, [r3, #196]	; 0xc4
    3334:	f240 039c 	movw	r3, #156	; 0x9c
    3338:	f6c0 0300 	movt	r3, #2048	; 0x800
    333c:	681b      	ldr	r3, [r3, #0]
    333e:	b1b3      	cbz	r3, 336e <system__bb__time__alarm_handler+0x96>
    3340:	e9d3 2302 	ldrd	r2, r3, [r3, #8]
    3344:	42b5      	cmp	r5, r6
    3346:	bf08      	it	eq
    3348:	42bc      	cmpeq	r4, r7
    334a:	4631      	mov	r1, r6
    334c:	bf38      	it	cc
    334e:	4629      	movcc	r1, r5
    3350:	4638      	mov	r0, r7
    3352:	bf38      	it	cc
    3354:	4620      	movcc	r0, r4
    3356:	428b      	cmp	r3, r1
    3358:	bf08      	it	eq
    335a:	4282      	cmpeq	r2, r0
    335c:	bf3c      	itt	cc
    335e:	4619      	movcc	r1, r3
    3360:	4610      	movcc	r0, r2
    3362:	f7ff fecb 	bl	30fc <system__bb__time__update_alarm>
    3366:	e8bd 43f8 	ldmia.w	sp!, {r3, r4, r5, r6, r7, r8, r9, lr}
    336a:	f7fe baf3 	b.w	1954 <system__bb__protection__leave_kernel>
    336e:	f04f 32ff 	mov.w	r2, #4294967295
    3372:	f04f 33ff 	mov.w	r3, #4294967295
    3376:	e7e5      	b.n	3344 <system__bb__time__alarm_handler+0x6c>

00003378 <system__bb__time__Oconcat>:
    3378:	2200      	movs	r2, #0
    337a:	b430      	push	{r4, r5}
    337c:	1854      	adds	r4, r2, r1
    337e:	f140 0500 	adc.w	r5, r0, #0
    3382:	4629      	mov	r1, r5
    3384:	4620      	mov	r0, r4
    3386:	bc30      	pop	{r4, r5}
    3388:	4770      	bx	lr
    338a:	bf00      	nop

0000338c <system__bb__board_support__Tinterrupt_vector_tableBIP>:
    338c:	4770      	bx	lr
    338e:	bf00      	nop

00003390 <system__bb__board_support__get_software_interrupt>:
    3390:	f06f 0307 	mvn.w	r3, #7
    3394:	6818      	ldr	r0, [r3, #0]
    3396:	f010 0001 	ands.w	r0, r0, #1
    339a:	bf1e      	ittt	ne
    339c:	f06f 030b 	mvnne.w	r3, #11
    33a0:	6818      	ldrne	r0, [r3, #0]
    33a2:	0a00      	lsrne	r0, r0, #8
    33a4:	4770      	bx	lr
    33a6:	bf00      	nop

000033a8 <system__bb__board_support__read>:
    33a8:	6800      	ldr	r0, [r0, #0]
    33aa:	4770      	bx	lr

000033ac <system__bb__board_support__write>:
    33ac:	6001      	str	r1, [r0, #0]
    33ae:	4770      	bx	lr

000033b0 <system__bb__board_support__generate_software_interrupt>:
    33b0:	f500 40ea 	add.w	r0, r0, #29952	; 0x7500
    33b4:	f06f 034f 	mvn.w	r3, #79	; 0x4f
    33b8:	6018      	str	r0, [r3, #0]
    33ba:	4770      	bx	lr

000033bc <system__bb__board_support__initialize_board>:
    33bc:	f44f 437c 	mov.w	r3, #64512	; 0xfc00
    33c0:	f64f 6044 	movw	r0, #65092	; 0xfe44
    33c4:	e92d 43f0 	stmdb	sp!, {r4, r5, r6, r7, r8, r9, lr}
    33c8:	f6cf 73ff 	movt	r3, #65535	; 0xffff
    33cc:	f64f 6440 	movw	r4, #65088	; 0xfe40
    33d0:	f64f 6248 	movw	r2, #65096	; 0xfe48
    33d4:	f04f 31ff 	mov.w	r1, #4294967295
    33d8:	f6cf 74ff 	movt	r4, #65535	; 0xffff
    33dc:	f06f 0503 	mvn.w	r5, #3
    33e0:	f6cf 70ff 	movt	r0, #65535	; 0xffff
    33e4:	f6cf 72ff 	movt	r2, #65535	; 0xffff
    33e8:	6025      	str	r5, [r4, #0]
    33ea:	f64f 4638 	movw	r6, #64568	; 0xfc38
    33ee:	6001      	str	r1, [r0, #0]
    33f0:	f64f 4534 	movw	r5, #64564	; 0xfc34
    33f4:	6011      	str	r1, [r2, #0]
    33f6:	f64f 4030 	movw	r0, #64560	; 0xfc30
    33fa:	681a      	ldr	r2, [r3, #0]
    33fc:	f64f 440c 	movw	r4, #64524	; 0xfc0c
    3400:	f64f 4188 	movw	r1, #64648	; 0xfc88
    3404:	f6cf 76ff 	movt	r6, #65535	; 0xffff
    3408:	f022 0202 	bic.w	r2, r2, #2
    340c:	f6cf 75ff 	movt	r5, #65535	; 0xffff
    3410:	f04f 0c00 	mov.w	ip, #0
    3414:	f6cf 70ff 	movt	r0, #65535	; 0xffff
    3418:	f6cf 74ff 	movt	r4, #65535	; 0xffff
    341c:	f6cf 71ff 	movt	r1, #65535	; 0xffff
    3420:	f04f 0e08 	mov.w	lr, #8
    3424:	f04f 090e 	mov.w	r9, #14
    3428:	f44f 5880 	mov.w	r8, #4096	; 0x1000
    342c:	601a      	str	r2, [r3, #0]
    342e:	f64f 4780 	movw	r7, #64640	; 0xfc80
    3432:	f8c6 9000 	str.w	r9, [r6]
    3436:	f643 5275 	movw	r2, #15733	; 0x3d75
    343a:	f8c5 c000 	str.w	ip, [r5]
    343e:	f242 0604 	movw	r6, #8196	; 0x2004
    3442:	f8c0 c000 	str.w	ip, [r0]
    3446:	f64f 6530 	movw	r5, #65072	; 0xfe30
    344a:	f8c4 8000 	str.w	r8, [r4]
    344e:	f64f 6050 	movw	r0, #65104	; 0xfe50
    3452:	f8c1 e000 	str.w	lr, [r1]
    3456:	f44f 1400 	mov.w	r4, #2097152	; 0x200000
    345a:	6819      	ldr	r1, [r3, #0]
    345c:	f6cf 77ff 	movt	r7, #65535	; 0xffff
    3460:	f2c0 0200 	movt	r2, #0
    3464:	f6cf 76f8 	movt	r6, #65528	; 0xfff8
    3468:	f6cf 75ff 	movt	r5, #65535	; 0xffff
    346c:	f041 0102 	orr.w	r1, r1, #2
    3470:	f6cf 70ff 	movt	r0, #65535	; 0xffff
    3474:	6019      	str	r1, [r3, #0]
    3476:	f8c7 e000 	str.w	lr, [r7]
    347a:	6572      	str	r2, [r6, #84]	; 0x54
    347c:	602c      	str	r4, [r5, #0]
    347e:	6004      	str	r4, [r0, #0]
    3480:	e8bd 83f0 	ldmia.w	sp!, {r4, r5, r6, r7, r8, r9, pc}

00003484 <system__bb__board_support__max_timer_interval>:
    3484:	f04f 30ff 	mov.w	r0, #4294967295
    3488:	4770      	bx	lr
    348a:	bf00      	nop

0000348c <system__bb__board_support__ticks_per_second>:
    348c:	f249 6080 	movw	r0, #38528	; 0x9680
    3490:	f2c0 0098 	movt	r0, #152	; 0x98
    3494:	4770      	bx	lr
    3496:	bf00      	nop

00003498 <system__bb__board_support__set_alarm>:
    3498:	f64f 4230 	movw	r2, #64560	; 0xfc30
    349c:	f64f 4188 	movw	r1, #64648	; 0xfc88
    34a0:	f6cf 72ff 	movt	r2, #65535	; 0xffff
    34a4:	f6cf 71ff 	movt	r1, #65535	; 0xffff
    34a8:	b430      	push	{r4, r5}
    34aa:	2508      	movs	r5, #8
    34ac:	f64f 4368 	movw	r3, #64616	; 0xfc68
    34b0:	6814      	ldr	r4, [r2, #0]
    34b2:	f6cf 73ff 	movt	r3, #65535	; 0xffff
    34b6:	600d      	str	r5, [r1, #0]
    34b8:	1905      	adds	r5, r0, r4
    34ba:	601d      	str	r5, [r3, #0]
    34bc:	6813      	ldr	r3, [r2, #0]
    34be:	1b1b      	subs	r3, r3, r4
    34c0:	4298      	cmp	r0, r3
    34c2:	d807      	bhi.n	34d4 <system__bb__board_support__set_alarm+0x3c>
    34c4:	680b      	ldr	r3, [r1, #0]
    34c6:	071b      	lsls	r3, r3, #28
    34c8:	bf5e      	ittt	pl
    34ca:	f06f 034f 	mvnpl.w	r3, #79	; 0x4f
    34ce:	f247 5205 	movwpl	r2, #29957	; 0x7505
    34d2:	601a      	strpl	r2, [r3, #0]
    34d4:	bc30      	pop	{r4, r5}
    34d6:	4770      	bx	lr

000034d8 <system__bb__board_support__read_clock>:
    34d8:	f64f 4330 	movw	r3, #64560	; 0xfc30
    34dc:	f6cf 73ff 	movt	r3, #65535	; 0xffff
    34e0:	6818      	ldr	r0, [r3, #0]
    34e2:	4770      	bx	lr

000034e4 <system__bb__board_support__alarm_interrupt_id>:
    34e4:	2005      	movs	r0, #5
    34e6:	4770      	bx	lr

000034e8 <system__bb__board_support__clear_alarm_interrupt>:
    34e8:	f64f 4388 	movw	r3, #64648	; 0xfc88
    34ec:	2208      	movs	r2, #8
    34ee:	f6cf 73ff 	movt	r3, #65535	; 0xffff
    34f2:	601a      	str	r2, [r3, #0]
    34f4:	4770      	bx	lr
    34f6:	bf00      	nop

000034f8 <system__bb__board_support__clear_interrupt_request>:
    34f8:	4770      	bx	lr
    34fa:	bf00      	nop

000034fc <system__bb__board_support__get_interrupt_request>:
    34fc:	b240      	sxtb	r0, r0
    34fe:	2805      	cmp	r0, #5
    3500:	d018      	beq.n	3534 <system__bb__board_support__get_interrupt_request+0x38>
    3502:	2806      	cmp	r0, #6
    3504:	d114      	bne.n	3530 <system__bb__board_support__get_interrupt_request+0x34>
    3506:	f64f 6304 	movw	r3, #65028	; 0xfe04
    350a:	f6cf 73ff 	movt	r3, #65535	; 0xffff
    350e:	6818      	ldr	r0, [r3, #0]
    3510:	2801      	cmp	r0, #1
    3512:	d00e      	beq.n	3532 <system__bb__board_support__get_interrupt_request+0x36>
    3514:	d30c      	bcc.n	3530 <system__bb__board_support__get_interrupt_request+0x34>
    3516:	2816      	cmp	r0, #22
    3518:	d112      	bne.n	3540 <system__bb__board_support__get_interrupt_request+0x44>
    351a:	f06f 0307 	mvn.w	r3, #7
    351e:	6818      	ldr	r0, [r3, #0]
    3520:	f010 0001 	ands.w	r0, r0, #1
    3524:	d005      	beq.n	3532 <system__bb__board_support__get_interrupt_request+0x36>
    3526:	f06f 030b 	mvn.w	r3, #11
    352a:	6818      	ldr	r0, [r3, #0]
    352c:	0a00      	lsrs	r0, r0, #8
    352e:	4770      	bx	lr
    3530:	2000      	movs	r0, #0
    3532:	4770      	bx	lr
    3534:	f44f 437e 	mov.w	r3, #65024	; 0xfe00
    3538:	f6cf 73ff 	movt	r3, #65535	; 0xffff
    353c:	6818      	ldr	r0, [r3, #0]
    353e:	e7e7      	b.n	3510 <system__bb__board_support__get_interrupt_request+0x14>
    3540:	3801      	subs	r0, #1
    3542:	4770      	bx	lr

00003544 <system__bb__board_support__enable_interrupt_request>:
    3544:	17c1      	asrs	r1, r0, #31
    3546:	0943      	lsrs	r3, r0, #5
    3548:	0ec9      	lsrs	r1, r1, #27
    354a:	4408      	add	r0, r1
    354c:	2201      	movs	r2, #1
    354e:	f000 001f 	and.w	r0, r0, #31
    3552:	1a40      	subs	r0, r0, r1
    3554:	009b      	lsls	r3, r3, #2
    3556:	4082      	lsls	r2, r0
    3558:	f5a3 71e8 	sub.w	r1, r3, #464	; 0x1d0
    355c:	f5a3 73d8 	sub.w	r3, r3, #432	; 0x1b0
    3560:	600a      	str	r2, [r1, #0]
    3562:	601a      	str	r2, [r3, #0]
    3564:	4770      	bx	lr
    3566:	bf00      	nop

00003568 <system__bb__board_support__install_interrupt_handler>:
    3568:	291f      	cmp	r1, #31
    356a:	b510      	push	{r4, lr}
    356c:	4602      	mov	r2, r0
    356e:	460c      	mov	r4, r1
    3570:	dc08      	bgt.n	3584 <system__bb__board_support__install_interrupt_handler+0x1c>
    3572:	f64f 6110 	movw	r1, #65040	; 0xfe10
    3576:	2301      	movs	r3, #1
    3578:	f6cf 71ff 	movt	r1, #65535	; 0xffff
    357c:	40a3      	lsls	r3, r4
    357e:	6809      	ldr	r1, [r1, #0]
    3580:	420b      	tst	r3, r1
    3582:	d11f      	bne.n	35c4 <system__bb__board_support__install_interrupt_handler+0x5c>
    3584:	4610      	mov	r0, r2
    3586:	2105      	movs	r1, #5
    3588:	2200      	movs	r2, #0
    358a:	f000 fcf5 	bl	3f78 <system__bb__cpu_primitives__install_trap_handler>
    358e:	f643 5375 	movw	r3, #15733	; 0x3d75
    3592:	f242 0204 	movw	r2, #8196	; 0x2004
    3596:	f2c0 0300 	movt	r3, #0
    359a:	f6cf 72f8 	movt	r2, #65528	; 0xfff8
    359e:	f842 3024 	str.w	r3, [r2, r4, lsl #2]
    35a2:	17e1      	asrs	r1, r4, #31
    35a4:	0963      	lsrs	r3, r4, #5
    35a6:	0ec9      	lsrs	r1, r1, #27
    35a8:	440c      	add	r4, r1
    35aa:	f004 041f 	and.w	r4, r4, #31
    35ae:	2201      	movs	r2, #1
    35b0:	1a64      	subs	r4, r4, r1
    35b2:	009b      	lsls	r3, r3, #2
    35b4:	40a2      	lsls	r2, r4
    35b6:	f5a3 71e8 	sub.w	r1, r3, #464	; 0x1d0
    35ba:	f5a3 73d8 	sub.w	r3, r3, #432	; 0x1b0
    35be:	600a      	str	r2, [r1, #0]
    35c0:	601a      	str	r2, [r3, #0]
    35c2:	bd10      	pop	{r4, pc}
    35c4:	2200      	movs	r2, #0
    35c6:	2106      	movs	r1, #6
    35c8:	f000 fcd6 	bl	3f78 <system__bb__cpu_primitives__install_trap_handler>
    35cc:	f643 5355 	movw	r3, #15701	; 0x3d55
    35d0:	f242 0204 	movw	r2, #8196	; 0x2004
    35d4:	f2c0 0300 	movt	r3, #0
    35d8:	f6cf 72f8 	movt	r2, #65528	; 0xfff8
    35dc:	f842 3024 	str.w	r3, [r2, r4, lsl #2]
    35e0:	e7df      	b.n	35a2 <system__bb__board_support__install_interrupt_handler+0x3a>
    35e2:	bf00      	nop

000035e4 <system__bb__board_support__poke_interrupt_id>:
    35e4:	2000      	movs	r0, #0
    35e6:	4770      	bx	lr

000035e8 <system__bb__board_support__clear_poke_interrupt>:
    35e8:	4770      	bx	lr
    35ea:	bf00      	nop

000035ec <system__bb__board_support__priority_of_interrupt>:
    35ec:	281f      	cmp	r0, #31
    35ee:	dc08      	bgt.n	3602 <system__bb__board_support__priority_of_interrupt+0x16>
    35f0:	f64f 6210 	movw	r2, #65040	; 0xfe10
    35f4:	2301      	movs	r3, #1
    35f6:	f6cf 72ff 	movt	r2, #65535	; 0xffff
    35fa:	4083      	lsls	r3, r0
    35fc:	6812      	ldr	r2, [r2, #0]
    35fe:	4213      	tst	r3, r2
    3600:	d101      	bne.n	3606 <system__bb__board_support__priority_of_interrupt+0x1a>
    3602:	20f1      	movs	r0, #241	; 0xf1
    3604:	4770      	bx	lr
    3606:	20f2      	movs	r0, #242	; 0xf2
    3608:	4770      	bx	lr
    360a:	bf00      	nop

0000360c <system__bb__board_support__set_current_priority>:
    360c:	f1a0 00f2 	sub.w	r0, r0, #242	; 0xf2
    3610:	fab0 f080 	clz	r0, r0
    3614:	f240 0394 	movw	r3, #148	; 0x94
    3618:	0940      	lsrs	r0, r0, #5
    361a:	f6c0 0300 	movt	r3, #2048	; 0x800
    361e:	781a      	ldrb	r2, [r3, #0]
    3620:	4282      	cmp	r2, r0
    3622:	d00b      	beq.n	363c <system__bb__board_support__set_current_priority+0x30>
    3624:	f64f 6110 	movw	r1, #65040	; 0xfe10
    3628:	b948      	cbnz	r0, 363e <system__bb__board_support__set_current_priority+0x32>
    362a:	f6cf 71ff 	movt	r1, #65535	; 0xffff
    362e:	f64f 6230 	movw	r2, #65072	; 0xfe30
    3632:	f6cf 72ff 	movt	r2, #65535	; 0xffff
    3636:	6809      	ldr	r1, [r1, #0]
    3638:	6011      	str	r1, [r2, #0]
    363a:	7018      	strb	r0, [r3, #0]
    363c:	4770      	bx	lr
    363e:	f6cf 71ff 	movt	r1, #65535	; 0xffff
    3642:	f64f 6240 	movw	r2, #65088	; 0xfe40
    3646:	f6cf 72ff 	movt	r2, #65535	; 0xffff
    364a:	2001      	movs	r0, #1
    364c:	6809      	ldr	r1, [r1, #0]
    364e:	6011      	str	r1, [r2, #0]
    3650:	7018      	strb	r0, [r3, #0]
    3652:	4770      	bx	lr

00003654 <system__bb__board_support__index_to_interrupt>:
    3654:	2801      	cmp	r0, #1
    3656:	d00e      	beq.n	3676 <system__bb__board_support__index_to_interrupt+0x22>
    3658:	d30c      	bcc.n	3674 <system__bb__board_support__index_to_interrupt+0x20>
    365a:	2816      	cmp	r0, #22
    365c:	d10c      	bne.n	3678 <system__bb__board_support__index_to_interrupt+0x24>
    365e:	f06f 0307 	mvn.w	r3, #7
    3662:	6818      	ldr	r0, [r3, #0]
    3664:	f010 0001 	ands.w	r0, r0, #1
    3668:	d005      	beq.n	3676 <system__bb__board_support__index_to_interrupt+0x22>
    366a:	f06f 030b 	mvn.w	r3, #11
    366e:	6818      	ldr	r0, [r3, #0]
    3670:	0a00      	lsrs	r0, r0, #8
    3672:	4770      	bx	lr
    3674:	2000      	movs	r0, #0
    3676:	4770      	bx	lr
    3678:	3801      	subs	r0, #1
    367a:	4770      	bx	lr

0000367c <system__task_primitives__operations__self>:
    367c:	f240 0338 	movw	r3, #56	; 0x38
    3680:	f6c0 0300 	movt	r3, #2048	; 0x800
    3684:	681b      	ldr	r3, [r3, #0]
    3686:	f8d3 00a0 	ldr.w	r0, [r3, #160]	; 0xa0
    368a:	4770      	bx	lr

0000368c <system__task_primitives__operations__sleep>:
    368c:	f7fe bb56 	b.w	1d3c <system__bb__threads__sleep>

00003690 <system__task_primitives__operations__delay_until>:
    3690:	f240 0338 	movw	r3, #56	; 0x38
    3694:	2207      	movs	r2, #7
    3696:	f6c0 0300 	movt	r3, #2048	; 0x800
    369a:	b510      	push	{r4, lr}
    369c:	681b      	ldr	r3, [r3, #0]
    369e:	f8d3 40a0 	ldr.w	r4, [r3, #160]	; 0xa0
    36a2:	7222      	strb	r2, [r4, #8]
    36a4:	f7ff fd7c 	bl	31a0 <system__bb__time__delay_until>
    36a8:	2301      	movs	r3, #1
    36aa:	7223      	strb	r3, [r4, #8]
    36ac:	bd10      	pop	{r4, pc}
    36ae:	bf00      	nop

000036b0 <system__task_primitives__operations__monotonic_clock>:
    36b0:	e92d 43f8 	stmdb	sp!, {r3, r4, r5, r6, r7, r8, r9, lr}
    36b4:	f240 0680 	movw	r6, #128	; 0x80
    36b8:	2400      	movs	r4, #0
    36ba:	f6c0 0600 	movt	r6, #2048	; 0x800
    36be:	1d37      	adds	r7, r6, #4
    36c0:	6835      	ldr	r5, [r6, #0]
    36c2:	3401      	adds	r4, #1
    36c4:	f8d7 9000 	ldr.w	r9, [r7]
    36c8:	f7ff ff06 	bl	34d8 <system__bb__board_support__read_clock>
    36cc:	6832      	ldr	r2, [r6, #0]
    36ce:	ebc8 0305 	rsb	r3, r8, r5
    36d2:	4295      	cmp	r5, r2
    36d4:	d012      	beq.n	36fc <system__task_primitives__operations__monotonic_clock+0x4c>
    36d6:	2c01      	cmp	r4, #1
    36d8:	d00e      	beq.n	36f8 <system__task_primitives__operations__monotonic_clock+0x48>
    36da:	2b01      	cmp	r3, #1
    36dc:	bf8c      	ite	hi
    36de:	2300      	movhi	r3, #0
    36e0:	2301      	movls	r3, #1
    36e2:	2c03      	cmp	r4, #3
    36e4:	bf08      	it	eq
    36e6:	2300      	moveq	r3, #0
    36e8:	2b00      	cmp	r3, #0
    36ea:	d1e9      	bne.n	36c0 <system__task_primitives__operations__monotonic_clock+0x10>
    36ec:	462f      	mov	r7, r5
    36ee:	461e      	mov	r6, r3
    36f0:	4630      	mov	r0, r6
    36f2:	4639      	mov	r1, r7
    36f4:	e8bd 83f8 	ldmia.w	sp!, {r3, r4, r5, r6, r7, r8, r9, pc}
    36f8:	46a8      	mov	r8, r5
    36fa:	e7e1      	b.n	36c0 <system__task_primitives__operations__monotonic_clock+0x10>
    36fc:	2600      	movs	r6, #0
    36fe:	4581      	cmp	r9, r0
    3700:	bf94      	ite	ls
    3702:	462f      	movls	r7, r5
    3704:	1c6f      	addhi	r7, r5, #1
    3706:	1836      	adds	r6, r6, r0
    3708:	f147 0700 	adc.w	r7, r7, #0
    370c:	e7f0      	b.n	36f0 <system__task_primitives__operations__monotonic_clock+0x40>
    370e:	bf00      	nop

00003710 <system__task_primitives__operations__wakeup>:
    3710:	f8d0 00f8 	ldr.w	r0, [r0, #248]	; 0xf8
    3714:	f7fe bbd4 	b.w	1ec0 <system__bb__threads__wakeup>

00003718 <system__task_primitives__operations__set_priority>:
    3718:	b410      	push	{r4}
    371a:	b672      	cpsid	i
    371c:	f240 0338 	movw	r3, #56	; 0x38
    3720:	f6c0 0300 	movt	r3, #2048	; 0x800
    3724:	681c      	ldr	r4, [r3, #0]
    3726:	f894 30a4 	ldrb.w	r3, [r4, #164]	; 0xa4
    372a:	2b00      	cmp	r3, #0
    372c:	f8c4 10ac 	str.w	r1, [r4, #172]	; 0xac
    3730:	bf08      	it	eq
    3732:	2301      	moveq	r3, #1
    3734:	f8d4 20b8 	ldr.w	r2, [r4, #184]	; 0xb8
    3738:	b1ea      	cbz	r2, 3776 <system__task_primitives__operations__set_priority+0x5e>
    373a:	f8d2 00ac 	ldr.w	r0, [r2, #172]	; 0xac
    373e:	4281      	cmp	r1, r0
    3740:	da19      	bge.n	3776 <system__task_primitives__operations__set_priority+0x5e>
    3742:	b25b      	sxtb	r3, r3
    3744:	f103 4380 	add.w	r3, r3, #1073741824	; 0x40000000
    3748:	f240 002c 	movw	r0, #44	; 0x2c
    374c:	3b01      	subs	r3, #1
    374e:	f6c0 0000 	movt	r0, #2048	; 0x800
    3752:	f840 2023 	str.w	r2, [r0, r3, lsl #2]
    3756:	f850 2023 	ldr.w	r2, [r0, r3, lsl #2]
    375a:	e004      	b.n	3766 <system__task_primitives__operations__set_priority+0x4e>
    375c:	f8d3 00ac 	ldr.w	r0, [r3, #172]	; 0xac
    3760:	4281      	cmp	r1, r0
    3762:	da04      	bge.n	376e <system__task_primitives__operations__set_priority+0x56>
    3764:	461a      	mov	r2, r3
    3766:	f8d2 30b8 	ldr.w	r3, [r2, #184]	; 0xb8
    376a:	2b00      	cmp	r3, #0
    376c:	d1f6      	bne.n	375c <system__task_primitives__operations__set_priority+0x44>
    376e:	f8c4 30b8 	str.w	r3, [r4, #184]	; 0xb8
    3772:	f8c2 40b8 	str.w	r4, [r2, #184]	; 0xb8
    3776:	f85d 4b04 	ldr.w	r4, [sp], #4
    377a:	f7fe b8eb 	b.w	1954 <system__bb__protection__leave_kernel>
    377e:	bf00      	nop

00003780 <system__task_primitives__operations__get_priority>:
    3780:	f8d0 30f8 	ldr.w	r3, [r0, #248]	; 0xf8
    3784:	f8d3 00ac 	ldr.w	r0, [r3, #172]	; 0xac
    3788:	4770      	bx	lr
    378a:	bf00      	nop

0000378c <system__task_primitives__operations__get_affinity>:
    378c:	f8d0 30f8 	ldr.w	r3, [r0, #248]	; 0xf8
    3790:	f893 00a4 	ldrb.w	r0, [r3, #164]	; 0xa4
    3794:	4770      	bx	lr
    3796:	bf00      	nop

00003798 <system__task_primitives__operations__get_cpu>:
    3798:	f8d0 30f8 	ldr.w	r3, [r0, #248]	; 0xf8
    379c:	f893 00a4 	ldrb.w	r0, [r3, #164]	; 0xa4
    37a0:	2800      	cmp	r0, #0
    37a2:	bf08      	it	eq
    37a4:	2001      	moveq	r0, #1
    37a6:	4770      	bx	lr

000037a8 <system__task_primitives__operations__get_thread_id>:
    37a8:	f8d0 00f8 	ldr.w	r0, [r0, #248]	; 0xf8
    37ac:	4770      	bx	lr
    37ae:	bf00      	nop

000037b0 <system__task_primitives__operations__enter_task>:
    37b0:	f240 024c 	movw	r2, #76	; 0x4c
    37b4:	f240 0338 	movw	r3, #56	; 0x38
    37b8:	f6c0 0200 	movt	r2, #2048	; 0x800
    37bc:	f6c0 0300 	movt	r3, #2048	; 0x800
    37c0:	b430      	push	{r4, r5}
    37c2:	6811      	ldr	r1, [r2, #0]
    37c4:	2400      	movs	r4, #0
    37c6:	681d      	ldr	r5, [r3, #0]
    37c8:	f8c5 00a0 	str.w	r0, [r5, #160]	; 0xa0
    37cc:	f8c0 40fc 	str.w	r4, [r0, #252]	; 0xfc
    37d0:	b381      	cbz	r1, 3834 <system__task_primitives__operations__enter_task+0x84>
    37d2:	f8c1 0114 	str.w	r0, [r1, #276]	; 0x114
    37d6:	6010      	str	r0, [r2, #0]
    37d8:	68c0      	ldr	r0, [r0, #12]
    37da:	b672      	cpsid	i
    37dc:	681c      	ldr	r4, [r3, #0]
    37de:	f894 30a4 	ldrb.w	r3, [r4, #164]	; 0xa4
    37e2:	2b00      	cmp	r3, #0
    37e4:	f8c4 00ac 	str.w	r0, [r4, #172]	; 0xac
    37e8:	bf08      	it	eq
    37ea:	2301      	moveq	r3, #1
    37ec:	f8d4 20b8 	ldr.w	r2, [r4, #184]	; 0xb8
    37f0:	b1ea      	cbz	r2, 382e <system__task_primitives__operations__enter_task+0x7e>
    37f2:	f8d2 10ac 	ldr.w	r1, [r2, #172]	; 0xac
    37f6:	4288      	cmp	r0, r1
    37f8:	da19      	bge.n	382e <system__task_primitives__operations__enter_task+0x7e>
    37fa:	b25b      	sxtb	r3, r3
    37fc:	f103 4380 	add.w	r3, r3, #1073741824	; 0x40000000
    3800:	f240 012c 	movw	r1, #44	; 0x2c
    3804:	3b01      	subs	r3, #1
    3806:	f6c0 0100 	movt	r1, #2048	; 0x800
    380a:	f841 2023 	str.w	r2, [r1, r3, lsl #2]
    380e:	f851 2023 	ldr.w	r2, [r1, r3, lsl #2]
    3812:	e004      	b.n	381e <system__task_primitives__operations__enter_task+0x6e>
    3814:	f8d3 10ac 	ldr.w	r1, [r3, #172]	; 0xac
    3818:	4288      	cmp	r0, r1
    381a:	da04      	bge.n	3826 <system__task_primitives__operations__enter_task+0x76>
    381c:	461a      	mov	r2, r3
    381e:	f8d2 30b8 	ldr.w	r3, [r2, #184]	; 0xb8
    3822:	2b00      	cmp	r3, #0
    3824:	d1f6      	bne.n	3814 <system__task_primitives__operations__enter_task+0x64>
    3826:	f8c4 30b8 	str.w	r3, [r4, #184]	; 0xb8
    382a:	f8c2 40b8 	str.w	r4, [r2, #184]	; 0xb8
    382e:	bc30      	pop	{r4, r5}
    3830:	f7fe b890 	b.w	1954 <system__bb__protection__leave_kernel>
    3834:	f240 0148 	movw	r1, #72	; 0x48
    3838:	f6c0 0100 	movt	r1, #2048	; 0x800
    383c:	6008      	str	r0, [r1, #0]
    383e:	e7ca      	b.n	37d6 <system__task_primitives__operations__enter_task+0x26>

00003840 <system__task_primitives__operations__initialize_tcb>:
    3840:	2001      	movs	r0, #1
    3842:	4770      	bx	lr

00003844 <system__task_primitives__operations__create_task>:
    3844:	b570      	push	{r4, r5, r6, lr}
    3846:	4604      	mov	r4, r0
    3848:	3018      	adds	r0, #24
    384a:	b084      	sub	sp, #16
    384c:	f89d 6020 	ldrb.w	r6, [sp, #32]
    3850:	4622      	mov	r2, r4
    3852:	f8c4 00f8 	str.w	r0, [r4, #248]	; 0xf8
    3856:	f8d4 00f8 	ldr.w	r0, [r4, #248]	; 0xf8
    385a:	f8d4 5108 	ldr.w	r5, [r4, #264]	; 0x108
    385e:	f8d4 410c 	ldr.w	r4, [r4, #268]	; 0x10c
    3862:	9402      	str	r4, [sp, #8]
    3864:	9600      	str	r6, [sp, #0]
    3866:	9501      	str	r5, [sp, #4]
    3868:	f7fe fa92 	bl	1d90 <system__bb__threads__thread_create>
    386c:	2001      	movs	r0, #1
    386e:	b004      	add	sp, #16
    3870:	bd70      	pop	{r4, r5, r6, pc}
    3872:	bf00      	nop

00003874 <system__task_primitives__operations__initialize>:
    3874:	b538      	push	{r3, r4, r5, lr}
    3876:	4604      	mov	r4, r0
    3878:	f100 0318 	add.w	r3, r0, #24
    387c:	2500      	movs	r5, #0
    387e:	f8c0 30f8 	str.w	r3, [r0, #248]	; 0xf8
    3882:	f8c0 5114 	str.w	r5, [r0, #276]	; 0x114
    3886:	f8d0 00f8 	ldr.w	r0, [r0, #248]	; 0xf8
    388a:	68e1      	ldr	r1, [r4, #12]
    388c:	f7fe f9ae 	bl	1bec <system__bb__threads__initialize>
    3890:	f240 024c 	movw	r2, #76	; 0x4c
    3894:	f6c0 0200 	movt	r2, #2048	; 0x800
    3898:	f240 0338 	movw	r3, #56	; 0x38
    389c:	f6c0 0300 	movt	r3, #2048	; 0x800
    38a0:	6811      	ldr	r1, [r2, #0]
    38a2:	6818      	ldr	r0, [r3, #0]
    38a4:	f8c0 40a0 	str.w	r4, [r0, #160]	; 0xa0
    38a8:	f8c4 50fc 	str.w	r5, [r4, #252]	; 0xfc
    38ac:	b3a9      	cbz	r1, 391a <system__task_primitives__operations__initialize+0xa6>
    38ae:	f8c1 4114 	str.w	r4, [r1, #276]	; 0x114
    38b2:	6014      	str	r4, [r2, #0]
    38b4:	68e0      	ldr	r0, [r4, #12]
    38b6:	b672      	cpsid	i
    38b8:	681d      	ldr	r5, [r3, #0]
    38ba:	f895 30a4 	ldrb.w	r3, [r5, #164]	; 0xa4
    38be:	2b00      	cmp	r3, #0
    38c0:	f8c5 00ac 	str.w	r0, [r5, #172]	; 0xac
    38c4:	bf08      	it	eq
    38c6:	2301      	moveq	r3, #1
    38c8:	f8d5 20b8 	ldr.w	r2, [r5, #184]	; 0xb8
    38cc:	b1ea      	cbz	r2, 390a <system__task_primitives__operations__initialize+0x96>
    38ce:	f8d2 10ac 	ldr.w	r1, [r2, #172]	; 0xac
    38d2:	4288      	cmp	r0, r1
    38d4:	da19      	bge.n	390a <system__task_primitives__operations__initialize+0x96>
    38d6:	b25b      	sxtb	r3, r3
    38d8:	f103 4380 	add.w	r3, r3, #1073741824	; 0x40000000
    38dc:	f240 012c 	movw	r1, #44	; 0x2c
    38e0:	3b01      	subs	r3, #1
    38e2:	f6c0 0100 	movt	r1, #2048	; 0x800
    38e6:	f841 2023 	str.w	r2, [r1, r3, lsl #2]
    38ea:	f851 2023 	ldr.w	r2, [r1, r3, lsl #2]
    38ee:	e004      	b.n	38fa <system__task_primitives__operations__initialize+0x86>
    38f0:	f8d3 10ac 	ldr.w	r1, [r3, #172]	; 0xac
    38f4:	4288      	cmp	r0, r1
    38f6:	da04      	bge.n	3902 <system__task_primitives__operations__initialize+0x8e>
    38f8:	461a      	mov	r2, r3
    38fa:	f8d2 30b8 	ldr.w	r3, [r2, #184]	; 0xb8
    38fe:	2b00      	cmp	r3, #0
    3900:	d1f6      	bne.n	38f0 <system__task_primitives__operations__initialize+0x7c>
    3902:	f8c5 30b8 	str.w	r3, [r5, #184]	; 0xb8
    3906:	f8c2 50b8 	str.w	r5, [r2, #184]	; 0xb8
    390a:	f7fe f823 	bl	1954 <system__bb__protection__leave_kernel>
    390e:	f240 0398 	movw	r3, #152	; 0x98
    3912:	f6c0 0300 	movt	r3, #2048	; 0x800
    3916:	601c      	str	r4, [r3, #0]
    3918:	bd38      	pop	{r3, r4, r5, pc}
    391a:	f240 0148 	movw	r1, #72	; 0x48
    391e:	f6c0 0100 	movt	r1, #2048	; 0x800
    3922:	600c      	str	r4, [r1, #0]
    3924:	e7c5      	b.n	38b2 <system__task_primitives__operations__initialize+0x3e>
    3926:	bf00      	nop

00003928 <system__task_primitives__operations__initialize_slave>:
    3928:	b538      	push	{r3, r4, r5, lr}
    392a:	f100 0318 	add.w	r3, r0, #24
    392e:	2500      	movs	r5, #0
    3930:	4604      	mov	r4, r0
    3932:	f8c0 30f8 	str.w	r3, [r0, #248]	; 0xf8
    3936:	f8c0 5114 	str.w	r5, [r0, #276]	; 0x114
    393a:	f8d0 00f8 	ldr.w	r0, [r0, #248]	; 0xf8
    393e:	f7fe f9b7 	bl	1cb0 <system__bb__threads__initialize_slave_environment>
    3942:	f240 024c 	movw	r2, #76	; 0x4c
    3946:	f6c0 0200 	movt	r2, #2048	; 0x800
    394a:	f240 0338 	movw	r3, #56	; 0x38
    394e:	f6c0 0300 	movt	r3, #2048	; 0x800
    3952:	6811      	ldr	r1, [r2, #0]
    3954:	6818      	ldr	r0, [r3, #0]
    3956:	f8c0 40a0 	str.w	r4, [r0, #160]	; 0xa0
    395a:	f8c4 50fc 	str.w	r5, [r4, #252]	; 0xfc
    395e:	b389      	cbz	r1, 39c4 <system__task_primitives__operations__initialize_slave+0x9c>
    3960:	f8c1 4114 	str.w	r4, [r1, #276]	; 0x114
    3964:	6014      	str	r4, [r2, #0]
    3966:	68e0      	ldr	r0, [r4, #12]
    3968:	b672      	cpsid	i
    396a:	681c      	ldr	r4, [r3, #0]
    396c:	f894 30a4 	ldrb.w	r3, [r4, #164]	; 0xa4
    3970:	2b00      	cmp	r3, #0
    3972:	f8c4 00ac 	str.w	r0, [r4, #172]	; 0xac
    3976:	bf08      	it	eq
    3978:	2301      	moveq	r3, #1
    397a:	f8d4 20b8 	ldr.w	r2, [r4, #184]	; 0xb8
    397e:	b1ea      	cbz	r2, 39bc <system__task_primitives__operations__initialize_slave+0x94>
    3980:	f8d2 10ac 	ldr.w	r1, [r2, #172]	; 0xac
    3984:	4288      	cmp	r0, r1
    3986:	da19      	bge.n	39bc <system__task_primitives__operations__initialize_slave+0x94>
    3988:	b25b      	sxtb	r3, r3
    398a:	f103 4380 	add.w	r3, r3, #1073741824	; 0x40000000
    398e:	f240 012c 	movw	r1, #44	; 0x2c
    3992:	3b01      	subs	r3, #1
    3994:	f6c0 0100 	movt	r1, #2048	; 0x800
    3998:	f841 2023 	str.w	r2, [r1, r3, lsl #2]
    399c:	f851 2023 	ldr.w	r2, [r1, r3, lsl #2]
    39a0:	e004      	b.n	39ac <system__task_primitives__operations__initialize_slave+0x84>
    39a2:	f8d3 10ac 	ldr.w	r1, [r3, #172]	; 0xac
    39a6:	4288      	cmp	r0, r1
    39a8:	da04      	bge.n	39b4 <system__task_primitives__operations__initialize_slave+0x8c>
    39aa:	461a      	mov	r2, r3
    39ac:	f8d2 30b8 	ldr.w	r3, [r2, #184]	; 0xb8
    39b0:	2b00      	cmp	r3, #0
    39b2:	d1f6      	bne.n	39a2 <system__task_primitives__operations__initialize_slave+0x7a>
    39b4:	f8c4 30b8 	str.w	r3, [r4, #184]	; 0xb8
    39b8:	f8c2 40b8 	str.w	r4, [r2, #184]	; 0xb8
    39bc:	e8bd 4038 	ldmia.w	sp!, {r3, r4, r5, lr}
    39c0:	f7fd bfc8 	b.w	1954 <system__bb__protection__leave_kernel>
    39c4:	f240 0148 	movw	r1, #72	; 0x48
    39c8:	f6c0 0100 	movt	r1, #2048	; 0x800
    39cc:	600c      	str	r4, [r1, #0]
    39ce:	e7c9      	b.n	3964 <system__task_primitives__operations__initialize_slave+0x3c>

000039d0 <system__task_primitives__operations__is_task_context>:
    39d0:	b508      	push	{r3, lr}
    39d2:	f7fe fd43 	bl	245c <system__bb__interrupts__current_interrupt>
    39d6:	fab0 f080 	clz	r0, r0
    39da:	0940      	lsrs	r0, r0, #5
    39dc:	bd08      	pop	{r3, pc}
    39de:	bf00      	nop

000039e0 <system__bb__timing_events___size>:
    39e0:	f44f 7080 	mov.w	r0, #256	; 0x100
    39e4:	2100      	movs	r1, #0
    39e6:	4770      	bx	lr

000039e8 <system__bb__timing_events__current_handler>:
    39e8:	6900      	ldr	r0, [r0, #16]
    39ea:	4770      	bx	lr

000039ec <system__bb__timing_events__time_of_event>:
    39ec:	6903      	ldr	r3, [r0, #16]
    39ee:	b113      	cbz	r3, 39f6 <system__bb__timing_events__time_of_event+0xa>
    39f0:	e9d0 0102 	ldrd	r0, r1, [r0, #8]
    39f4:	4770      	bx	lr
    39f6:	2000      	movs	r0, #0
    39f8:	2100      	movs	r1, #0
    39fa:	4770      	bx	lr

000039fc <system__bb__timing_events__cancel_handler>:
    39fc:	b508      	push	{r3, lr}
    39fe:	6903      	ldr	r3, [r0, #16]
    3a00:	b313      	cbz	r3, 3a48 <system__bb__timing_events__cancel_handler+0x4c>
    3a02:	f240 039c 	movw	r3, #156	; 0x9c
    3a06:	f6c0 0300 	movt	r3, #2048	; 0x800
    3a0a:	681a      	ldr	r2, [r3, #0]
    3a0c:	4290      	cmp	r0, r2
    3a0e:	d00b      	beq.n	3a28 <system__bb__timing_events__cancel_handler+0x2c>
    3a10:	6981      	ldr	r1, [r0, #24]
    3a12:	6943      	ldr	r3, [r0, #20]
    3a14:	614b      	str	r3, [r1, #20]
    3a16:	6942      	ldr	r2, [r0, #20]
    3a18:	b1da      	cbz	r2, 3a52 <system__bb__timing_events__cancel_handler+0x56>
    3a1a:	2300      	movs	r3, #0
    3a1c:	6191      	str	r1, [r2, #24]
    3a1e:	6143      	str	r3, [r0, #20]
    3a20:	6183      	str	r3, [r0, #24]
    3a22:	6103      	str	r3, [r0, #16]
    3a24:	2001      	movs	r0, #1
    3a26:	bd08      	pop	{r3, pc}
    3a28:	6942      	ldr	r2, [r0, #20]
    3a2a:	601a      	str	r2, [r3, #0]
    3a2c:	b172      	cbz	r2, 3a4c <system__bb__timing_events__cancel_handler+0x50>
    3a2e:	2300      	movs	r3, #0
    3a30:	6981      	ldr	r1, [r0, #24]
    3a32:	6191      	str	r1, [r2, #24]
    3a34:	6143      	str	r3, [r0, #20]
    3a36:	6183      	str	r3, [r0, #24]
    3a38:	6103      	str	r3, [r0, #16]
    3a3a:	2001      	movs	r0, #1
    3a3c:	f7ff faca 	bl	2fd4 <system__bb__time__get_next_timeout>
    3a40:	f7ff fb5c 	bl	30fc <system__bb__time__update_alarm>
    3a44:	2001      	movs	r0, #1
    3a46:	bd08      	pop	{r3, pc}
    3a48:	4618      	mov	r0, r3
    3a4a:	bd08      	pop	{r3, pc}
    3a4c:	6182      	str	r2, [r0, #24]
    3a4e:	6102      	str	r2, [r0, #16]
    3a50:	e7f3      	b.n	3a3a <system__bb__timing_events__cancel_handler+0x3e>
    3a52:	6182      	str	r2, [r0, #24]
    3a54:	6102      	str	r2, [r0, #16]
    3a56:	e7e5      	b.n	3a24 <system__bb__timing_events__cancel_handler+0x28>

00003a58 <system__bb__timing_events__timing_eventIP>:
    3a58:	b430      	push	{r4, r5}
    3a5a:	b109      	cbz	r1, 3a60 <system__bb__timing_events__timing_eventIP+0x8>
    3a5c:	4b05      	ldr	r3, [pc, #20]	; (3a74 <system__bb__timing_events__timing_eventIP+0x1c>)
    3a5e:	6003      	str	r3, [r0, #0]
    3a60:	2300      	movs	r3, #0
    3a62:	2400      	movs	r4, #0
    3a64:	2500      	movs	r5, #0
    3a66:	6103      	str	r3, [r0, #16]
    3a68:	e9c0 4502 	strd	r4, r5, [r0, #8]
    3a6c:	6143      	str	r3, [r0, #20]
    3a6e:	6183      	str	r3, [r0, #24]
    3a70:	bc30      	pop	{r4, r5}
    3a72:	4770      	bx	lr
    3a74:	00005078 	.word	0x00005078

00003a78 <system__bb__timing_events__execute_expired_timing_events>:
    3a78:	e92d 4ff8 	stmdb	sp!, {r3, r4, r5, r6, r7, r8, r9, sl, fp, lr}
    3a7c:	f240 0a9c 	movw	sl, #156	; 0x9c
    3a80:	460f      	mov	r7, r1
    3a82:	f6c0 0a00 	movt	sl, #2048	; 0x800
    3a86:	f8da 1000 	ldr.w	r1, [sl]
    3a8a:	2900      	cmp	r1, #0
    3a8c:	d07c      	beq.n	3b88 <system__bb__timing_events__execute_expired_timing_events+0x110>
    3a8e:	f240 0338 	movw	r3, #56	; 0x38
    3a92:	4606      	mov	r6, r0
    3a94:	f6c0 0300 	movt	r3, #2048	; 0x800
    3a98:	20f2      	movs	r0, #242	; 0xf2
    3a9a:	f8d3 b000 	ldr.w	fp, [r3]
    3a9e:	f89b 30a4 	ldrb.w	r3, [fp, #164]	; 0xa4
    3aa2:	2b00      	cmp	r3, #0
    3aa4:	bf08      	it	eq
    3aa6:	2301      	moveq	r3, #1
    3aa8:	f8db 20b8 	ldr.w	r2, [fp, #184]	; 0xb8
    3aac:	f8db 80ac 	ldr.w	r8, [fp, #172]	; 0xac
    3ab0:	f8cb 00ac 	str.w	r0, [fp, #172]	; 0xac
    3ab4:	b1ea      	cbz	r2, 3af2 <system__bb__timing_events__execute_expired_timing_events+0x7a>
    3ab6:	f8d2 00ac 	ldr.w	r0, [r2, #172]	; 0xac
    3aba:	28f2      	cmp	r0, #242	; 0xf2
    3abc:	dd19      	ble.n	3af2 <system__bb__timing_events__execute_expired_timing_events+0x7a>
    3abe:	b25b      	sxtb	r3, r3
    3ac0:	f103 4380 	add.w	r3, r3, #1073741824	; 0x40000000
    3ac4:	f240 002c 	movw	r0, #44	; 0x2c
    3ac8:	3b01      	subs	r3, #1
    3aca:	f6c0 0000 	movt	r0, #2048	; 0x800
    3ace:	f840 2023 	str.w	r2, [r0, r3, lsl #2]
    3ad2:	f850 2023 	ldr.w	r2, [r0, r3, lsl #2]
    3ad6:	e004      	b.n	3ae2 <system__bb__timing_events__execute_expired_timing_events+0x6a>
    3ad8:	f8d3 00ac 	ldr.w	r0, [r3, #172]	; 0xac
    3adc:	28f2      	cmp	r0, #242	; 0xf2
    3ade:	dd04      	ble.n	3aea <system__bb__timing_events__execute_expired_timing_events+0x72>
    3ae0:	461a      	mov	r2, r3
    3ae2:	f8d2 30b8 	ldr.w	r3, [r2, #184]	; 0xb8
    3ae6:	2b00      	cmp	r3, #0
    3ae8:	d1f6      	bne.n	3ad8 <system__bb__timing_events__execute_expired_timing_events+0x60>
    3aea:	f8cb 30b8 	str.w	r3, [fp, #184]	; 0xb8
    3aee:	f8c2 b0b8 	str.w	fp, [r2, #184]	; 0xb8
    3af2:	f240 099c 	movw	r9, #156	; 0x9c
    3af6:	2400      	movs	r4, #0
    3af8:	f6c0 0900 	movt	r9, #2048	; 0x800
    3afc:	e9d1 2302 	ldrd	r2, r3, [r1, #8]
    3b00:	429f      	cmp	r7, r3
    3b02:	bf08      	it	eq
    3b04:	4296      	cmpeq	r6, r2
    3b06:	d317      	bcc.n	3b38 <system__bb__timing_events__execute_expired_timing_events+0xc0>
    3b08:	f8da 2000 	ldr.w	r2, [sl]
    3b0c:	690b      	ldr	r3, [r1, #16]
    3b0e:	4291      	cmp	r1, r2
    3b10:	694a      	ldr	r2, [r1, #20]
    3b12:	bf0e      	itee	eq
    3b14:	f8c9 2000 	streq.w	r2, [r9]
    3b18:	6988      	ldrne	r0, [r1, #24]
    3b1a:	6142      	strne	r2, [r0, #20]
    3b1c:	4608      	mov	r0, r1
    3b1e:	bf18      	it	ne
    3b20:	694a      	ldrne	r2, [r1, #20]
    3b22:	b10a      	cbz	r2, 3b28 <system__bb__timing_events__execute_expired_timing_events+0xb0>
    3b24:	698d      	ldr	r5, [r1, #24]
    3b26:	6195      	str	r5, [r2, #24]
    3b28:	614c      	str	r4, [r1, #20]
    3b2a:	618c      	str	r4, [r1, #24]
    3b2c:	610c      	str	r4, [r1, #16]
    3b2e:	4798      	blx	r3
    3b30:	f8da 1000 	ldr.w	r1, [sl]
    3b34:	2900      	cmp	r1, #0
    3b36:	d1e1      	bne.n	3afc <system__bb__timing_events__execute_expired_timing_events+0x84>
    3b38:	f8db 20b8 	ldr.w	r2, [fp, #184]	; 0xb8
    3b3c:	f89b 30a4 	ldrb.w	r3, [fp, #164]	; 0xa4
    3b40:	2b00      	cmp	r3, #0
    3b42:	f8cb 80ac 	str.w	r8, [fp, #172]	; 0xac
    3b46:	bf08      	it	eq
    3b48:	2301      	moveq	r3, #1
    3b4a:	b1fa      	cbz	r2, 3b8c <system__bb__timing_events__execute_expired_timing_events+0x114>
    3b4c:	f8d2 10ac 	ldr.w	r1, [r2, #172]	; 0xac
    3b50:	4588      	cmp	r8, r1
    3b52:	da19      	bge.n	3b88 <system__bb__timing_events__execute_expired_timing_events+0x110>
    3b54:	b25b      	sxtb	r3, r3
    3b56:	f103 4380 	add.w	r3, r3, #1073741824	; 0x40000000
    3b5a:	f240 012c 	movw	r1, #44	; 0x2c
    3b5e:	3b01      	subs	r3, #1
    3b60:	f6c0 0100 	movt	r1, #2048	; 0x800
    3b64:	f841 2023 	str.w	r2, [r1, r3, lsl #2]
    3b68:	f851 2023 	ldr.w	r2, [r1, r3, lsl #2]
    3b6c:	e004      	b.n	3b78 <system__bb__timing_events__execute_expired_timing_events+0x100>
    3b6e:	f8d3 10ac 	ldr.w	r1, [r3, #172]	; 0xac
    3b72:	4588      	cmp	r8, r1
    3b74:	da04      	bge.n	3b80 <system__bb__timing_events__execute_expired_timing_events+0x108>
    3b76:	461a      	mov	r2, r3
    3b78:	f8d2 30b8 	ldr.w	r3, [r2, #184]	; 0xb8
    3b7c:	2b00      	cmp	r3, #0
    3b7e:	d1f6      	bne.n	3b6e <system__bb__timing_events__execute_expired_timing_events+0xf6>
    3b80:	f8cb 30b8 	str.w	r3, [fp, #184]	; 0xb8
    3b84:	f8c2 b0b8 	str.w	fp, [r2, #184]	; 0xb8
    3b88:	e8bd 8ff8 	ldmia.w	sp!, {r3, r4, r5, r6, r7, r8, r9, sl, fp, pc}
    3b8c:	e8bd 8ff8 	ldmia.w	sp!, {r3, r4, r5, r6, r7, r8, r9, sl, fp, pc}

00003b90 <system__bb__timing_events__get_next_timeout>:
    3b90:	b240      	sxtb	r0, r0
    3b92:	f100 4080 	add.w	r0, r0, #1073741824	; 0x40000000
    3b96:	f240 039c 	movw	r3, #156	; 0x9c
    3b9a:	3801      	subs	r0, #1
    3b9c:	f6c0 0300 	movt	r3, #2048	; 0x800
    3ba0:	f853 3020 	ldr.w	r3, [r3, r0, lsl #2]
    3ba4:	b113      	cbz	r3, 3bac <system__bb__timing_events__get_next_timeout+0x1c>
    3ba6:	e9d3 0102 	ldrd	r0, r1, [r3, #8]
    3baa:	4770      	bx	lr
    3bac:	f04f 30ff 	mov.w	r0, #4294967295
    3bb0:	f04f 31ff 	mov.w	r1, #4294967295
    3bb4:	4770      	bx	lr
    3bb6:	bf00      	nop

00003bb8 <system__bb__timing_events__extract>:
    3bb8:	f240 029c 	movw	r2, #156	; 0x9c
    3bbc:	4603      	mov	r3, r0
    3bbe:	f6c0 0200 	movt	r2, #2048	; 0x800
    3bc2:	6811      	ldr	r1, [r2, #0]
    3bc4:	4281      	cmp	r1, r0
    3bc6:	bf13      	iteet	ne
    3bc8:	2000      	movne	r0, #0
    3bca:	6941      	ldreq	r1, [r0, #20]
    3bcc:	2001      	moveq	r0, #1
    3bce:	699a      	ldrne	r2, [r3, #24]
    3bd0:	bf16      	itet	ne
    3bd2:	6959      	ldrne	r1, [r3, #20]
    3bd4:	6011      	streq	r1, [r2, #0]
    3bd6:	6151      	strne	r1, [r2, #20]
    3bd8:	695a      	ldr	r2, [r3, #20]
    3bda:	b10a      	cbz	r2, 3be0 <system__bb__timing_events__extract+0x28>
    3bdc:	6999      	ldr	r1, [r3, #24]
    3bde:	6191      	str	r1, [r2, #24]
    3be0:	2200      	movs	r2, #0
    3be2:	615a      	str	r2, [r3, #20]
    3be4:	619a      	str	r2, [r3, #24]
    3be6:	4770      	bx	lr

00003be8 <system__bb__timing_events__insert>:
    3be8:	f240 039c 	movw	r3, #156	; 0x9c
    3bec:	f6c0 0300 	movt	r3, #2048	; 0x800
    3bf0:	681a      	ldr	r2, [r3, #0]
    3bf2:	b30a      	cbz	r2, 3c38 <system__bb__timing_events__insert+0x50>
    3bf4:	b4f0      	push	{r4, r5, r6, r7}
    3bf6:	e9d0 6702 	ldrd	r6, r7, [r0, #8]
    3bfa:	e9d2 4502 	ldrd	r4, r5, [r2, #8]
    3bfe:	42af      	cmp	r7, r5
    3c00:	bf08      	it	eq
    3c02:	42a6      	cmpeq	r6, r4
    3c04:	d20c      	bcs.n	3c20 <system__bb__timing_events__insert+0x38>
    3c06:	6142      	str	r2, [r0, #20]
    3c08:	6018      	str	r0, [r3, #0]
    3c0a:	6190      	str	r0, [r2, #24]
    3c0c:	2001      	movs	r0, #1
    3c0e:	bcf0      	pop	{r4, r5, r6, r7}
    3c10:	4770      	bx	lr
    3c12:	e9d3 4502 	ldrd	r4, r5, [r3, #8]
    3c16:	42af      	cmp	r7, r5
    3c18:	bf08      	it	eq
    3c1a:	42a6      	cmpeq	r6, r4
    3c1c:	d303      	bcc.n	3c26 <system__bb__timing_events__insert+0x3e>
    3c1e:	461a      	mov	r2, r3
    3c20:	6953      	ldr	r3, [r2, #20]
    3c22:	2b00      	cmp	r3, #0
    3c24:	d1f5      	bne.n	3c12 <system__bb__timing_events__insert+0x2a>
    3c26:	6143      	str	r3, [r0, #20]
    3c28:	6953      	ldr	r3, [r2, #20]
    3c2a:	6182      	str	r2, [r0, #24]
    3c2c:	b103      	cbz	r3, 3c30 <system__bb__timing_events__insert+0x48>
    3c2e:	6198      	str	r0, [r3, #24]
    3c30:	6150      	str	r0, [r2, #20]
    3c32:	2000      	movs	r0, #0
    3c34:	bcf0      	pop	{r4, r5, r6, r7}
    3c36:	4770      	bx	lr
    3c38:	6142      	str	r2, [r0, #20]
    3c3a:	6018      	str	r0, [r3, #0]
    3c3c:	2001      	movs	r0, #1
    3c3e:	4770      	bx	lr

00003c40 <system__bb__timing_events__set_handler>:
    3c40:	4601      	mov	r1, r0
    3c42:	b5d0      	push	{r4, r6, r7, lr}
    3c44:	461f      	mov	r7, r3
    3c46:	4616      	mov	r6, r2
    3c48:	690b      	ldr	r3, [r1, #16]
    3c4a:	9804      	ldr	r0, [sp, #16]
    3c4c:	b34b      	cbz	r3, 3ca2 <system__bb__timing_events__set_handler+0x62>
    3c4e:	f240 039c 	movw	r3, #156	; 0x9c
    3c52:	f6c0 0300 	movt	r3, #2048	; 0x800
    3c56:	681a      	ldr	r2, [r3, #0]
    3c58:	4291      	cmp	r1, r2
    3c5a:	694a      	ldr	r2, [r1, #20]
    3c5c:	bf07      	ittee	eq
    3c5e:	2401      	moveq	r4, #1
    3c60:	601a      	streq	r2, [r3, #0]
    3c62:	2400      	movne	r4, #0
    3c64:	698b      	ldrne	r3, [r1, #24]
    3c66:	bf1c      	itt	ne
    3c68:	615a      	strne	r2, [r3, #20]
    3c6a:	694a      	ldrne	r2, [r1, #20]
    3c6c:	b10a      	cbz	r2, 3c72 <system__bb__timing_events__set_handler+0x32>
    3c6e:	698b      	ldr	r3, [r1, #24]
    3c70:	6193      	str	r3, [r2, #24]
    3c72:	2300      	movs	r3, #0
    3c74:	6108      	str	r0, [r1, #16]
    3c76:	614b      	str	r3, [r1, #20]
    3c78:	618b      	str	r3, [r1, #24]
    3c7a:	b130      	cbz	r0, 3c8a <system__bb__timing_events__set_handler+0x4a>
    3c7c:	2301      	movs	r3, #1
    3c7e:	4608      	mov	r0, r1
    3c80:	e9c1 6702 	strd	r6, r7, [r1, #8]
    3c84:	770b      	strb	r3, [r1, #28]
    3c86:	f7ff ffaf 	bl	3be8 <system__bb__timing_events__insert>
    3c8a:	4320      	orrs	r0, r4
    3c8c:	f010 0fff 	tst.w	r0, #255	; 0xff
    3c90:	d100      	bne.n	3c94 <system__bb__timing_events__set_handler+0x54>
    3c92:	bdd0      	pop	{r4, r6, r7, pc}
    3c94:	2001      	movs	r0, #1
    3c96:	f7ff f99d 	bl	2fd4 <system__bb__time__get_next_timeout>
    3c9a:	e8bd 40d0 	ldmia.w	sp!, {r4, r6, r7, lr}
    3c9e:	f7ff ba2d 	b.w	30fc <system__bb__time__update_alarm>
    3ca2:	6108      	str	r0, [r1, #16]
    3ca4:	461c      	mov	r4, r3
    3ca6:	2800      	cmp	r0, #0
    3ca8:	d1e8      	bne.n	3c7c <system__bb__timing_events__set_handler+0x3c>
    3caa:	e7f2      	b.n	3c92 <system__bb__timing_events__set_handler+0x52>

00003cac <system__bb__cpu_primitives__gnat_error_handler>:
    3cac:	b240      	sxtb	r0, r0
    3cae:	b508      	push	{r3, lr}
    3cb0:	2804      	cmp	r0, #4
    3cb2:	d81b      	bhi.n	3cec <system__bb__cpu_primitives__gnat_error_handler+0x40>
    3cb4:	e8df f000 	tbb	[pc, r0]
    3cb8:	16120e07 	.word	0x16120e07
    3cbc:	03          	.byte	0x03
    3cbd:	00          	.byte	0x00
    3cbe:	480d      	ldr	r0, [pc, #52]	; (3cf4 <system__bb__cpu_primitives__gnat_error_handler+0x48>)
    3cc0:	2100      	movs	r1, #0
    3cc2:	f7fd f9ef 	bl	10a4 <__gnat_last_chance_handler>
    3cc6:	f245 00b0 	movw	r0, #20656	; 0x50b0
    3cca:	2100      	movs	r1, #0
    3ccc:	f2c0 0000 	movt	r0, #0
    3cd0:	f7fd f9e8 	bl	10a4 <__gnat_last_chance_handler>
    3cd4:	4808      	ldr	r0, [pc, #32]	; (3cf8 <system__bb__cpu_primitives__gnat_error_handler+0x4c>)
    3cd6:	2100      	movs	r1, #0
    3cd8:	f7fd f9e4 	bl	10a4 <__gnat_last_chance_handler>
    3cdc:	4807      	ldr	r0, [pc, #28]	; (3cfc <system__bb__cpu_primitives__gnat_error_handler+0x50>)
    3cde:	2100      	movs	r1, #0
    3ce0:	f7fd f9e0 	bl	10a4 <__gnat_last_chance_handler>
    3ce4:	4806      	ldr	r0, [pc, #24]	; (3d00 <system__bb__cpu_primitives__gnat_error_handler+0x54>)
    3ce6:	2100      	movs	r1, #0
    3ce8:	f7fd f9dc 	bl	10a4 <__gnat_last_chance_handler>
    3cec:	4805      	ldr	r0, [pc, #20]	; (3d04 <system__bb__cpu_primitives__gnat_error_handler+0x58>)
    3cee:	2100      	movs	r1, #0
    3cf0:	f7fd f9d8 	bl	10a4 <__gnat_last_chance_handler>
    3cf4:	000051a8 	.word	0x000051a8
    3cf8:	000050f0 	.word	0x000050f0
    3cfc:	00005130 	.word	0x00005130
    3d00:	0000516c 	.word	0x0000516c
    3d04:	000051e0 	.word	0x000051e0

00003d08 <system__bb__cpu_primitives__Tcontext_bufferBIP>:
    3d08:	4770      	bx	lr
    3d0a:	bf00      	nop

00003d0c <system__bb__cpu_primitives__Tthread_tableBIP>:
    3d0c:	b430      	push	{r4, r5}
    3d0e:	780c      	ldrb	r4, [r1, #0]
    3d10:	7849      	ldrb	r1, [r1, #1]
    3d12:	b264      	sxtb	r4, r4
    3d14:	b249      	sxtb	r1, r1
    3d16:	428c      	cmp	r4, r1
    3d18:	dc08      	bgt.n	3d2c <system__bb__cpu_primitives__Tthread_tableBIP+0x20>
    3d1a:	3101      	adds	r1, #1
    3d1c:	4623      	mov	r3, r4
    3d1e:	2500      	movs	r5, #0
    3d20:	1b1a      	subs	r2, r3, r4
    3d22:	3301      	adds	r3, #1
    3d24:	428b      	cmp	r3, r1
    3d26:	f840 5022 	str.w	r5, [r0, r2, lsl #2]
    3d2a:	d1f9      	bne.n	3d20 <system__bb__cpu_primitives__Tthread_tableBIP+0x14>
    3d2c:	bc30      	pop	{r4, r5}
    3d2e:	4770      	bx	lr

00003d30 <system__bb__cpu_primitives__get_spsr>:
    3d30:	f3ff 8000 	mrs	r0, SPSR
    3d34:	4770      	bx	lr
    3d36:	bf00      	nop

00003d38 <__gnat_dabt_trap>:
    3d38:	e92d 500f 	stmdb	sp!, {r0, r1, r2, r3, ip, lr}
    3d3c:	f644 6318 	movw	r3, #19992	; 0x4e18
    3d40:	2004      	movs	r0, #4
    3d42:	f6c0 0300 	movt	r3, #2048	; 0x800
    3d46:	691b      	ldr	r3, [r3, #16]
    3d48:	4798      	blx	r3
    3d4a:	e8bd 500f 	ldmia.w	sp!, {r0, r1, r2, r3, ip, lr}
    3d4e:	f3de 8f04 	subs	pc, lr, #4
    3d52:	bf00      	nop

00003d54 <__gnat_fiq_trap>:
    3d54:	e92d 500f 	stmdb	sp!, {r0, r1, r2, r3, ip, lr}
    3d58:	2300      	movs	r3, #0
    3d5a:	eee8 3a10 	vmsr	fpexc, r3
    3d5e:	f644 6318 	movw	r3, #19992	; 0x4e18
    3d62:	2006      	movs	r0, #6
    3d64:	f6c0 0300 	movt	r3, #2048	; 0x800
    3d68:	699b      	ldr	r3, [r3, #24]
    3d6a:	4798      	blx	r3
    3d6c:	e8bd 500f 	ldmia.w	sp!, {r0, r1, r2, r3, ip, lr}
    3d70:	f3de 8f04 	subs	pc, lr, #4

00003d74 <__gnat_irq_trap>:
    3d74:	e92d 5fff 	stmdb	sp!, {r0, r1, r2, r3, r4, r5, r6, r7, r8, r9, sl, fp, ip, lr}
    3d78:	b082      	sub	sp, #8
    3d7a:	eef8 3a10 	vmrs	r3, fpexc
    3d7e:	f003 4380 	and.w	r3, r3, #1073741824	; 0x40000000
    3d82:	2400      	movs	r4, #0
    3d84:	9301      	str	r3, [sp, #4]
    3d86:	eee8 4a10 	vmsr	fpexc, r4
    3d8a:	f3ff 8300 	mrs	r3, SPSR
    3d8e:	9300      	str	r3, [sp, #0]
    3d90:	f644 6318 	movw	r3, #19992	; 0x4e18
    3d94:	f6c0 0300 	movt	r3, #2048	; 0x800
    3d98:	2005      	movs	r0, #5
    3d9a:	695b      	ldr	r3, [r3, #20]
    3d9c:	4798      	blx	r3
    3d9e:	f240 032c 	movw	r3, #44	; 0x2c
    3da2:	f240 0138 	movw	r1, #56	; 0x38
    3da6:	f6c0 0300 	movt	r3, #2048	; 0x800
    3daa:	f6c0 0100 	movt	r1, #2048	; 0x800
    3dae:	6818      	ldr	r0, [r3, #0]
    3db0:	680a      	ldr	r2, [r1, #0]
    3db2:	4290      	cmp	r0, r2
    3db4:	d018      	beq.n	3de8 <__gnat_irq_trap+0x74>
    3db6:	eee8 4a10 	vmsr	fpexc, r4
    3dba:	6818      	ldr	r0, [r3, #0]
    3dbc:	a300      	add	r3, pc, #0	; (adr r3, 3dc0 <__gnat_irq_trap+0x4c>)
    3dbe:	4718      	bx	r3
    3dc0:	e10f3000 	mrs	r3, CPSR
    3dc4:	e5914000 	ldr	r4, [r1]
    3dc8:	f1020013 	cps	#19
    3dcc:	e59f2030 	ldr	r2, [pc, #48]	; 3e04 <__gnat_irq_trap+0x90>
    3dd0:	e2822001 	add	r2, r2, #1
    3dd4:	e8c4600f 	stmia	r4, {r0, r1, r2, r3, sp, lr}^
    3dd8:	e5810000 	str	r0, [r1]
    3ddc:	e8d0600f 	ldm	r0, {r0, r1, r2, r3, sp, lr}^
    3de0:	e12ff003 	msr	CPSR_fsxc, r3
    3de4:	e12fff12 	bx	r2
    3de8:	9b01      	ldr	r3, [sp, #4]
    3dea:	b11b      	cbz	r3, 3df4 <__gnat_irq_trap+0x80>
    3dec:	f04f 4380 	mov.w	r3, #1073741824	; 0x40000000
    3df0:	eee8 3a10 	vmsr	fpexc, r3
    3df4:	9b00      	ldr	r3, [sp, #0]
    3df6:	f393 8f00 	msr	SPSR_fsxc, r3
    3dfa:	b002      	add	sp, #8
    3dfc:	e8bd 5fff 	ldmia.w	sp!, {r0, r1, r2, r3, r4, r5, r6, r7, r8, r9, sl, fp, ip, lr}
    3e00:	f3de 8f04 	subs	pc, lr, #4
    3e04:	00003de8 	.word	0x00003de8

00003e08 <__gnat_undef_trap>:
    3e08:	e92d 500f 	stmdb	sp!, {r0, r1, r2, r3, ip, lr}
    3e0c:	f3ff 8200 	mrs	r2, SPSR
    3e10:	eef8 3a10 	vmrs	r3, fpexc
    3e14:	f013 4380 	ands.w	r3, r3, #1073741824	; 0x40000000
    3e18:	d12d      	bne.n	3e76 <__gnat_undef_trap+0x6e>
    3e1a:	f04f 4180 	mov.w	r1, #1073741824	; 0x40000000
    3e1e:	eee8 1a10 	vmsr	fpexc, r1
    3e22:	f002 021f 	and.w	r2, r2, #31
    3e26:	3a11      	subs	r2, #17
    3e28:	2a01      	cmp	r2, #1
    3e2a:	bf88      	it	hi
    3e2c:	f240 0338 	movwhi	r3, #56	; 0x38
    3e30:	f240 02a4 	movw	r2, #164	; 0xa4
    3e34:	bf88      	it	hi
    3e36:	f6c0 0300 	movthi	r3, #2048	; 0x800
    3e3a:	f6c0 0200 	movt	r2, #2048	; 0x800
    3e3e:	bf88      	it	hi
    3e40:	681b      	ldrhi	r3, [r3, #0]
    3e42:	6811      	ldr	r1, [r2, #0]
    3e44:	428b      	cmp	r3, r1
    3e46:	d012      	beq.n	3e6e <__gnat_undef_trap+0x66>
    3e48:	b139      	cbz	r1, 3e5a <__gnat_undef_trap+0x52>
    3e4a:	f101 0018 	add.w	r0, r1, #24
    3e4e:	ec80 0b20 	vstmia	r0, {d0-d15}
    3e52:	eef1 0a10 	vmrs	r0, fpscr
    3e56:	f8c1 0098 	str.w	r0, [r1, #152]	; 0x98
    3e5a:	b13b      	cbz	r3, 3e6c <__gnat_undef_trap+0x64>
    3e5c:	f8d3 1098 	ldr.w	r1, [r3, #152]	; 0x98
    3e60:	f103 0018 	add.w	r0, r3, #24
    3e64:	ec90 0b20 	vldmia	r0, {d0-d15}
    3e68:	eee1 1a10 	vmsr	fpscr, r1
    3e6c:	6013      	str	r3, [r2, #0]
    3e6e:	e8bd 500f 	ldmia.w	sp!, {r0, r1, r2, r3, ip, lr}
    3e72:	f3de 8f04 	subs	pc, lr, #4
    3e76:	f644 6318 	movw	r3, #19992	; 0x4e18
    3e7a:	2001      	movs	r0, #1
    3e7c:	f6c0 0300 	movt	r3, #2048	; 0x800
    3e80:	685b      	ldr	r3, [r3, #4]
    3e82:	4798      	blx	r3
    3e84:	e8bd 500f 	ldmia.w	sp!, {r0, r1, r2, r3, ip, lr}
    3e88:	f3de 8f04 	subs	pc, lr, #4

00003e8c <system__bb__cpu_primitives__context_switch>:
    3e8c:	e92d 4ff0 	stmdb	sp!, {r4, r5, r6, r7, r8, r9, sl, fp, lr}
    3e90:	2300      	movs	r3, #0
    3e92:	eee8 3a10 	vmsr	fpexc, r3
    3e96:	f240 032c 	movw	r3, #44	; 0x2c
    3e9a:	f240 0138 	movw	r1, #56	; 0x38
    3e9e:	f6c0 0300 	movt	r3, #2048	; 0x800
    3ea2:	f6c0 0100 	movt	r1, #2048	; 0x800
    3ea6:	6818      	ldr	r0, [r3, #0]
    3ea8:	a300      	add	r3, pc, #0	; (adr r3, 3eac <system__bb__cpu_primitives__context_switch+0x20>)
    3eaa:	4718      	bx	r3
    3eac:	e10f3000 	mrs	r3, CPSR
    3eb0:	e5914000 	ldr	r4, [r1]
    3eb4:	f1020013 	cps	#19
    3eb8:	e59f2018 	ldr	r2, [pc, #24]	; 3ed8 <system__bb__cpu_primitives__context_switch+0x4c>
    3ebc:	e2822001 	add	r2, r2, #1
    3ec0:	e8c4600f 	stmia	r4, {r0, r1, r2, r3, sp, lr}^
    3ec4:	e5810000 	str	r0, [r1]
    3ec8:	e8d0600f 	ldm	r0, {r0, r1, r2, r3, sp, lr}^
    3ecc:	e12ff003 	msr	CPSR_fsxc, r3
    3ed0:	e12fff12 	bx	r2
    3ed4:	e8bd 8ff0 	ldmia.w	sp!, {r4, r5, r6, r7, r8, r9, sl, fp, pc}
    3ed8:	00003ed4 	.word	0x00003ed4

00003edc <system__bb__cpu_primitives__fpu_context_switch>:
    3edc:	f240 03a4 	movw	r3, #164	; 0xa4
    3ee0:	f6c0 0300 	movt	r3, #2048	; 0x800
    3ee4:	681a      	ldr	r2, [r3, #0]
    3ee6:	4282      	cmp	r2, r0
    3ee8:	d012      	beq.n	3f10 <system__bb__cpu_primitives__fpu_context_switch+0x34>
    3eea:	b13a      	cbz	r2, 3efc <system__bb__cpu_primitives__fpu_context_switch+0x20>
    3eec:	f102 0118 	add.w	r1, r2, #24
    3ef0:	ec81 0b20 	vstmia	r1, {d0-d15}
    3ef4:	eef1 1a10 	vmrs	r1, fpscr
    3ef8:	f8c2 1098 	str.w	r1, [r2, #152]	; 0x98
    3efc:	b138      	cbz	r0, 3f0e <system__bb__cpu_primitives__fpu_context_switch+0x32>
    3efe:	f8d0 2098 	ldr.w	r2, [r0, #152]	; 0x98
    3f02:	f100 0118 	add.w	r1, r0, #24
    3f06:	ec91 0b20 	vldmia	r1, {d0-d15}
    3f0a:	eee1 2a10 	vmsr	fpscr, r2
    3f0e:	6018      	str	r0, [r3, #0]
    3f10:	4770      	bx	lr
    3f12:	bf00      	nop

00003f14 <system__bb__cpu_primitives__get_context>:
    3f14:	b249      	sxtb	r1, r1
    3f16:	f850 0021 	ldr.w	r0, [r0, r1, lsl #2]
    3f1a:	4770      	bx	lr

00003f1c <system__bb__cpu_primitives__set_context>:
    3f1c:	b249      	sxtb	r1, r1
    3f1e:	f840 2021 	str.w	r2, [r0, r1, lsl #2]
    3f22:	4770      	bx	lr

00003f24 <system__bb__cpu_primitives__initialize_context>:
    3f24:	e92d 43f8 	stmdb	sp!, {r3, r4, r5, r6, r7, r8, r9, lr}
    3f28:	4688      	mov	r8, r1
    3f2a:	4691      	mov	r9, r2
    3f2c:	461f      	mov	r7, r3
    3f2e:	4605      	mov	r5, r0
    3f30:	f3ef 8600 	mrs	r6, CPSR
    3f34:	f64f 74e0 	movw	r4, #65504	; 0xffe0
    3f38:	2100      	movs	r1, #0
    3f3a:	f2c0 74f0 	movt	r4, #2032	; 0x7f0
    3f3e:	22a0      	movs	r2, #160	; 0xa0
    3f40:	4034      	ands	r4, r6
    3f42:	f000 fac5 	bl	44d0 <memset>
    3f46:	341f      	adds	r4, #31
    3f48:	f8c5 9000 	str.w	r9, [r5]
    3f4c:	60ec      	str	r4, [r5, #12]
    3f4e:	f8c5 8008 	str.w	r8, [r5, #8]
    3f52:	612f      	str	r7, [r5, #16]
    3f54:	e8bd 83f8 	ldmia.w	sp!, {r3, r4, r5, r6, r7, r8, r9, pc}

00003f58 <system__bb__cpu_primitives__install_error_handlers>:
    3f58:	f644 6318 	movw	r3, #19992	; 0x4e18
    3f5c:	f643 42ad 	movw	r2, #15533	; 0x3cad
    3f60:	f6c0 0300 	movt	r3, #2048	; 0x800
    3f64:	f2c0 0200 	movt	r2, #0
    3f68:	601a      	str	r2, [r3, #0]
    3f6a:	605a      	str	r2, [r3, #4]
    3f6c:	609a      	str	r2, [r3, #8]
    3f6e:	60da      	str	r2, [r3, #12]
    3f70:	611a      	str	r2, [r3, #16]
    3f72:	619a      	str	r2, [r3, #24]
    3f74:	4770      	bx	lr
    3f76:	bf00      	nop

00003f78 <system__bb__cpu_primitives__install_trap_handler>:
    3f78:	f644 6318 	movw	r3, #19992	; 0x4e18
    3f7c:	b249      	sxtb	r1, r1
    3f7e:	f6c0 0300 	movt	r3, #2048	; 0x800
    3f82:	f843 0021 	str.w	r0, [r3, r1, lsl #2]
    3f86:	4770      	bx	lr

00003f88 <system__bb__cpu_primitives__is_fpu_enabled>:
    3f88:	eef8 0a10 	vmrs	r0, fpexc
    3f8c:	f3c0 7080 	ubfx	r0, r0, #30, #1
    3f90:	4770      	bx	lr
    3f92:	bf00      	nop

00003f94 <system__bb__cpu_primitives__disable_interrupts>:
    3f94:	b672      	cpsid	i
    3f96:	4770      	bx	lr

00003f98 <system__bb__cpu_primitives__enable_interrupts>:
    3f98:	f240 0394 	movw	r3, #148	; 0x94
    3f9c:	f1a0 02f2 	sub.w	r2, r0, #242	; 0xf2
    3fa0:	fab2 f282 	clz	r2, r2
    3fa4:	0952      	lsrs	r2, r2, #5
    3fa6:	f6c0 0300 	movt	r3, #2048	; 0x800
    3faa:	7819      	ldrb	r1, [r3, #0]
    3fac:	4291      	cmp	r1, r2
    3fae:	b410      	push	{r4}
    3fb0:	d00b      	beq.n	3fca <system__bb__cpu_primitives__enable_interrupts+0x32>
    3fb2:	b982      	cbnz	r2, 3fd6 <system__bb__cpu_primitives__enable_interrupts+0x3e>
    3fb4:	f64f 6410 	movw	r4, #65040	; 0xfe10
    3fb8:	f64f 6130 	movw	r1, #65072	; 0xfe30
    3fbc:	f6cf 74ff 	movt	r4, #65535	; 0xffff
    3fc0:	f6cf 71ff 	movt	r1, #65535	; 0xffff
    3fc4:	6824      	ldr	r4, [r4, #0]
    3fc6:	600c      	str	r4, [r1, #0]
    3fc8:	701a      	strb	r2, [r3, #0]
    3fca:	28f0      	cmp	r0, #240	; 0xf0
    3fcc:	d800      	bhi.n	3fd0 <system__bb__cpu_primitives__enable_interrupts+0x38>
    3fce:	b662      	cpsie	i
    3fd0:	f85d 4b04 	ldr.w	r4, [sp], #4
    3fd4:	4770      	bx	lr
    3fd6:	f64f 6110 	movw	r1, #65040	; 0xfe10
    3fda:	f64f 6240 	movw	r2, #65088	; 0xfe40
    3fde:	f6cf 71ff 	movt	r1, #65535	; 0xffff
    3fe2:	f6cf 72ff 	movt	r2, #65535	; 0xffff
    3fe6:	2001      	movs	r0, #1
    3fe8:	6809      	ldr	r1, [r1, #0]
    3fea:	6011      	str	r1, [r2, #0]
    3fec:	f85d 4b04 	ldr.w	r4, [sp], #4
    3ff0:	7018      	strb	r0, [r3, #0]
    3ff2:	4770      	bx	lr

00003ff4 <system__bb__cpu_primitives__initialize_floating_point>:
    3ff4:	2300      	movs	r3, #0
    3ff6:	eee8 3a10 	vmsr	fpexc, r3
    3ffa:	4770      	bx	lr

00003ffc <system__bb__cpu_primitives__set_fpu_enabled>:
    3ffc:	2800      	cmp	r0, #0
    3ffe:	bf14      	ite	ne
    4000:	f04f 4380 	movne.w	r3, #1073741824	; 0x40000000
    4004:	2300      	moveq	r3, #0
    4006:	eee8 3a10 	vmsr	fpexc, r3
    400a:	4770      	bx	lr

0000400c <_start_rom>:
    400c:	e59f03e4 	ldr	r0, [pc, #996]	; 43f8 <undefSp+0x14>
    4010:	e12fff10 	bx	r0

00004014 <_start_rom_t>:
    4014:	f000 e93c 	blx	4290 <_coreInitRegisters_>
    4018:	f000 e9c0 	blx	439c <_coreInitStackPointer_>
    401c:	48f7      	ldr	r0, [pc, #988]	; (43fc <undefSp+0x18>)
    401e:	49f8      	ldr	r1, [pc, #992]	; (4400 <undefSp+0x1c>)
    4020:	e8a0 03fc 	stmia.w	r0!, {r2, r3, r4, r5, r6, r7, r8, r9}
    4024:	4288      	cmp	r0, r1
    4026:	dbfb      	blt.n	4020 <_start_rom_t+0xc>
    4028:	f240 0000 	movw	r0, #0
    402c:	f6c0 0000 	movt	r0, #2048	; 0x800
    4030:	f240 012e 	movw	r1, #46	; 0x2e
    4034:	f245 2278 	movw	r2, #21112	; 0x5278
    4038:	f2c0 0200 	movt	r2, #0
    403c:	b129      	cbz	r1, 404a <_start_rom_t+0x36>
    403e:	f852 4b04 	ldr.w	r4, [r2], #4
    4042:	f840 4b04 	str.w	r4, [r0], #4
    4046:	3901      	subs	r1, #1
    4048:	d1f9      	bne.n	403e <_start_rom_t+0x2a>
    404a:	f647 6038 	movw	r0, #32312	; 0x7e38
    404e:	f6c0 0000 	movt	r0, #2048	; 0x800
    4052:	f240 0100 	movw	r1, #0
    4056:	f04f 0200 	mov.w	r2, #0
    405a:	b119      	cbz	r1, 4064 <_start_rom_t+0x50>
    405c:	f840 2b04 	str.w	r2, [r0], #4
    4060:	3901      	subs	r1, #1
    4062:	d1fb      	bne.n	405c <_start_rom_t+0x48>
    4064:	f000 f806 	bl	4074 <__aeabi_idiv0>
    4068:	f7fd f85c 	bl	1124 <rm57_init>
    406c:	f7fc f8bc 	bl	1e8 <main>
    4070:	f000 faf0 	bl	4654 <exit>

00004074 <__aeabi_idiv0>:
    4074:	f84d 0d04 	str.w	r0, [sp, #-4]!
    4078:	ee11 0f10 	mrc	15, 0, r0, cr1, cr0, {0}
    407c:	f020 0001 	bic.w	r0, r0, #1
    4080:	f3bf 8f4f 	dsb	sy
    4084:	ee01 0f10 	mcr	15, 0, r0, cr1, cr0, {0}
    4088:	f3bf 8f6f 	isb	sy
    408c:	ee11 0f10 	mrc	15, 0, r0, cr1, cr0, {0}
    4090:	f420 3000 	bic.w	r0, r0, #131072	; 0x20000
    4094:	ee01 0f10 	mcr	15, 0, r0, cr1, cr0, {0}
    4098:	f04f 0000 	mov.w	r0, #0
    409c:	ee06 0f12 	mcr	15, 0, r0, cr6, cr2, {0}
    40a0:	4847      	ldr	r0, [pc, #284]	; (41c0 <r1Base>)
    40a2:	ee06 0f11 	mcr	15, 0, r0, cr6, cr1, {0}
    40a6:	f04f 0008 	mov.w	r0, #8
    40aa:	f440 5080 	orr.w	r0, r0, #4096	; 0x1000
    40ae:	ee06 0f91 	mcr	15, 0, r0, cr6, cr1, {4}
    40b2:	f64f 703f 	movw	r0, #65343	; 0xff3f
    40b6:	ee06 0f51 	mcr	15, 0, r0, cr6, cr1, {2}
    40ba:	f04f 0001 	mov.w	r0, #1
    40be:	ee06 0f12 	mcr	15, 0, r0, cr6, cr2, {0}
    40c2:	4840      	ldr	r0, [pc, #256]	; (41c4 <r2Base>)
    40c4:	ee06 0f11 	mcr	15, 0, r0, cr6, cr1, {0}
    40c8:	f04f 0002 	mov.w	r0, #2
    40cc:	f440 60c0 	orr.w	r0, r0, #1536	; 0x600
    40d0:	ee06 0f91 	mcr	15, 0, r0, cr6, cr1, {4}
    40d4:	f240 002b 	movw	r0, #43	; 0x2b
    40d8:	ee06 0f51 	mcr	15, 0, r0, cr6, cr1, {2}
    40dc:	f04f 0002 	mov.w	r0, #2
    40e0:	ee06 0f12 	mcr	15, 0, r0, cr6, cr2, {0}
    40e4:	4838      	ldr	r0, [pc, #224]	; (41c8 <r3Base>)
    40e6:	ee06 0f11 	mcr	15, 0, r0, cr6, cr1, {0}
    40ea:	f04f 000b 	mov.w	r0, #11
    40ee:	f440 5098 	orr.w	r0, r0, #4864	; 0x1300
    40f2:	ee06 0f91 	mcr	15, 0, r0, cr6, cr1, {4}
    40f6:	f240 0025 	movw	r0, #37	; 0x25
    40fa:	ee06 0f51 	mcr	15, 0, r0, cr6, cr1, {2}
    40fe:	f04f 0003 	mov.w	r0, #3
    4102:	ee06 0f12 	mcr	15, 0, r0, cr6, cr2, {0}
    4106:	4831      	ldr	r0, [pc, #196]	; (41cc <r4Base>)
    4108:	ee06 0f11 	mcr	15, 0, r0, cr6, cr1, {0}
    410c:	f04f 0010 	mov.w	r0, #16
    4110:	f440 5098 	orr.w	r0, r0, #4864	; 0x1300
    4114:	ee06 0f91 	mcr	15, 0, r0, cr6, cr1, {4}
    4118:	f240 7035 	movw	r0, #1845	; 0x735
    411c:	ee06 0f51 	mcr	15, 0, r0, cr6, cr1, {2}
    4120:	f04f 0004 	mov.w	r0, #4
    4124:	ee06 0f12 	mcr	15, 0, r0, cr6, cr2, {0}
    4128:	4829      	ldr	r0, [pc, #164]	; (41d0 <r5Base>)
    412a:	ee06 0f11 	mcr	15, 0, r0, cr6, cr1, {0}
    412e:	f04f 0000 	mov.w	r0, #0
    4132:	f440 5098 	orr.w	r0, r0, #4864	; 0x1300
    4136:	ee06 0f91 	mcr	15, 0, r0, cr6, cr1, {4}
    413a:	f24c 0037 	movw	r0, #49207	; 0xc037
    413e:	ee06 0f51 	mcr	15, 0, r0, cr6, cr1, {2}
    4142:	f04f 0005 	mov.w	r0, #5
    4146:	ee06 0f12 	mcr	15, 0, r0, cr6, cr2, {0}
    414a:	4822      	ldr	r0, [pc, #136]	; (41d4 <r6Base>)
    414c:	ee06 0f11 	mcr	15, 0, r0, cr6, cr1, {0}
    4150:	f04f 0006 	mov.w	r0, #6
    4154:	f440 5098 	orr.w	r0, r0, #4864	; 0x1300
    4158:	ee06 0f91 	mcr	15, 0, r0, cr6, cr1, {4}
    415c:	f240 0035 	movw	r0, #53	; 0x35
    4160:	ee06 0f51 	mcr	15, 0, r0, cr6, cr1, {2}
    4164:	f04f 0006 	mov.w	r0, #6
    4168:	ee06 0f12 	mcr	15, 0, r0, cr6, cr2, {0}
    416c:	481a      	ldr	r0, [pc, #104]	; (41d8 <r7Base>)
    416e:	ee06 0f11 	mcr	15, 0, r0, cr6, cr1, {0}
    4172:	f04f 0002 	mov.w	r0, #2
    4176:	f440 5090 	orr.w	r0, r0, #4608	; 0x1200
    417a:	ee06 0f91 	mcr	15, 0, r0, cr6, cr1, {4}
    417e:	f240 002d 	movw	r0, #45	; 0x2d
    4182:	ee06 0f51 	mcr	15, 0, r0, cr6, cr1, {2}
    4186:	f04f 000f 	mov.w	r0, #15
    418a:	ee06 0f12 	mcr	15, 0, r0, cr6, cr2, {0}
    418e:	4813      	ldr	r0, [pc, #76]	; (41dc <r16Base>)
    4190:	ee06 0f11 	mcr	15, 0, r0, cr6, cr1, {0}
    4194:	f04f 0010 	mov.w	r0, #16
    4198:	f440 5090 	orr.w	r0, r0, #4608	; 0x1200
    419c:	ee06 0f91 	mcr	15, 0, r0, cr6, cr1, {4}
    41a0:	f240 0025 	movw	r0, #37	; 0x25
    41a4:	ee06 0f51 	mcr	15, 0, r0, cr6, cr1, {2}
    41a8:	ee11 0f10 	mrc	15, 0, r0, cr1, cr0, {0}
    41ac:	f040 0001 	orr.w	r0, r0, #1
    41b0:	f3bf 8f4f 	dsb	sy
    41b4:	ee01 0f10 	mcr	15, 0, r0, cr1, cr0, {0}
    41b8:	f3bf 8f6f 	isb	sy
    41bc:	bc01      	pop	{r0}
    41be:	4770      	bx	lr

000041c0 <r1Base>:
    41c0:	00000000 	.word	0x00000000

000041c4 <r2Base>:
    41c4:	00000000 	.word	0x00000000

000041c8 <r3Base>:
    41c8:	08000000 	.word	0x08000000

000041cc <r4Base>:
    41cc:	f8000000 	.word	0xf8000000

000041d0 <r5Base>:
    41d0:	60000000 	.word	0x60000000

000041d4 <r6Base>:
    41d4:	80000000 	.word	0x80000000

000041d8 <r7Base>:
    41d8:	f0000000 	.word	0xf0000000

000041dc <r16Base>:
    41dc:	fff80000 	.word	0xfff80000

000041e0 <_mpuEnable_>:
    41e0:	f84d 0d04 	str.w	r0, [sp, #-4]!
    41e4:	ee11 0f10 	mrc	15, 0, r0, cr1, cr0, {0}
    41e8:	f040 0001 	orr.w	r0, r0, #1
    41ec:	f3bf 8f4f 	dsb	sy
    41f0:	ee01 0f10 	mcr	15, 0, r0, cr1, cr0, {0}
    41f4:	f3bf 8f6f 	isb	sy
    41f8:	bc01      	pop	{r0}
    41fa:	4770      	bx	lr

000041fc <_mpuDisable_>:
    41fc:	f84d 0d04 	str.w	r0, [sp, #-4]!
    4200:	ee11 0f10 	mrc	15, 0, r0, cr1, cr0, {0}
    4204:	f020 0001 	bic.w	r0, r0, #1
    4208:	f3bf 8f4f 	dsb	sy
    420c:	ee01 0f10 	mcr	15, 0, r0, cr1, cr0, {0}
    4210:	f3bf 8f6f 	isb	sy
    4214:	bc01      	pop	{r0}
    4216:	4770      	bx	lr

00004218 <_mpuEnableBackgroundRegion_>:
    4218:	f84d 0d04 	str.w	r0, [sp, #-4]!
    421c:	ee11 0f10 	mrc	15, 0, r0, cr1, cr0, {0}
    4220:	f440 3000 	orr.w	r0, r0, #131072	; 0x20000
    4224:	ee01 0f10 	mcr	15, 0, r0, cr1, cr0, {0}
    4228:	bc01      	pop	{r0}
    422a:	4770      	bx	lr

0000422c <_mpuDisableBackgroundRegion_>:
    422c:	f84d 0d04 	str.w	r0, [sp, #-4]!
    4230:	ee11 0f10 	mrc	15, 0, r0, cr1, cr0, {0}
    4234:	f420 3000 	bic.w	r0, r0, #131072	; 0x20000
    4238:	ee01 0f10 	mcr	15, 0, r0, cr1, cr0, {0}
    423c:	bc01      	pop	{r0}
    423e:	4770      	bx	lr

00004240 <_mpuGetNumberOfRegions_>:
    4240:	ee10 0f90 	mrc	15, 0, r0, cr0, cr0, {4}
    4244:	fa5f f090 	uxtb.w	r0, r0, ror #8
    4248:	4770      	bx	lr

0000424a <_mpuAreRegionsSeparate_>:
    424a:	ee10 0f90 	mrc	15, 0, r0, cr0, cr0, {4}
    424e:	b2c0      	uxtb	r0, r0
    4250:	4770      	bx	lr

00004252 <_mpuSetRegion_>:
    4252:	ee06 0f12 	mcr	15, 0, r0, cr6, cr2, {0}
    4256:	4770      	bx	lr

00004258 <_mpuGetRegion_>:
    4258:	ee16 0f12 	mrc	15, 0, r0, cr6, cr2, {0}
    425c:	4770      	bx	lr

0000425e <_mpuSetRegionBaseAddress_>:
    425e:	ee06 0f11 	mcr	15, 0, r0, cr6, cr1, {0}
    4262:	4770      	bx	lr

00004264 <_mpuGetRegionBaseAddress_>:
    4264:	ee16 0f11 	mrc	15, 0, r0, cr6, cr1, {0}
    4268:	4770      	bx	lr

0000426a <_mpuSetRegionTypeAndPermission_>:
    426a:	ea40 0001 	orr.w	r0, r0, r1
    426e:	ee06 0f91 	mcr	15, 0, r0, cr6, cr1, {4}
    4272:	4770      	bx	lr

00004274 <_mpuGetRegionType_>:
    4274:	ee16 0f91 	mrc	15, 0, r0, cr6, cr1, {4}
    4278:	f420 407f 	bic.w	r0, r0, #65280	; 0xff00
    427c:	4770      	bx	lr

0000427e <_mpuGetRegionPermission_>:
    427e:	ee16 0f91 	mrc	15, 0, r0, cr6, cr1, {4}
    4282:	f020 00ff 	bic.w	r0, r0, #255	; 0xff
    4286:	4770      	bx	lr

00004288 <_mpuSetRegionSizeRegister_>:
    4288:	ee06 0f51 	mcr	15, 0, r0, cr6, cr1, {2}
    428c:	4770      	bx	lr
	...

00004290 <_coreInitRegisters_>:
    4290:	e1a0000e 	mov	r0, lr
    4294:	e3a01000 	mov	r1, #0
    4298:	e3a02000 	mov	r2, #0
    429c:	e3a03000 	mov	r3, #0
    42a0:	e3a04000 	mov	r4, #0
    42a4:	e3a05000 	mov	r5, #0
    42a8:	e3a06000 	mov	r6, #0
    42ac:	e3a07000 	mov	r7, #0
    42b0:	e3a08000 	mov	r8, #0
    42b4:	e3a09000 	mov	r9, #0
    42b8:	e3a0a000 	mov	sl, #0
    42bc:	e3a0b000 	mov	fp, #0
    42c0:	e3a0c000 	mov	ip, #0
    42c4:	e3a0d000 	mov	sp, #0
    42c8:	e10f1000 	mrs	r1, CPSR
    42cc:	e16ff001 	msr	SPSR_fsxc, r1
    42d0:	f1020011 	cps	#17
    42d4:	e1a0e000 	mov	lr, r0
    42d8:	e3a08000 	mov	r8, #0
    42dc:	e3a09000 	mov	r9, #0
    42e0:	e3a0a000 	mov	sl, #0
    42e4:	e3a0b000 	mov	fp, #0
    42e8:	e3a0c000 	mov	ip, #0
    42ec:	e10f1000 	mrs	r1, CPSR
    42f0:	e16ff001 	msr	SPSR_fsxc, r1
    42f4:	f1020012 	cps	#18
    42f8:	e1a0e000 	mov	lr, r0
    42fc:	e10f1000 	mrs	r1, CPSR
    4300:	e16ff001 	msr	SPSR_fsxc, r1
    4304:	f1020017 	cps	#23
    4308:	e1a0e000 	mov	lr, r0
    430c:	e10f1000 	mrs	r1, CPSR
    4310:	e16ff001 	msr	SPSR_fsxc, r1
    4314:	f102001b 	cps	#27
    4318:	e1a0e000 	mov	lr, r0
    431c:	e10f1000 	mrs	r1, CPSR
    4320:	e16ff001 	msr	SPSR_fsxc, r1
    4324:	f102001f 	cps	#31
    4328:	e1a0e000 	mov	lr, r0
    432c:	e10f1000 	mrs	r1, CPSR
    4330:	e16ff001 	msr	SPSR_fsxc, r1
    4334:	ee112f50 	mrc	15, 0, r2, cr1, cr0, {2}
    4338:	e382260f 	orr	r2, r2, #15728640	; 0xf00000
    433c:	ee012f50 	mcr	15, 0, r2, cr1, cr0, {2}
    4340:	e3a02101 	mov	r2, #1073741824	; 0x40000000
    4344:	eee82a10 	vmsr	fpexc, r2
    4348:	ec411b10 	vmov	d0, r1, r1
    434c:	ec411b11 	vmov	d1, r1, r1
    4350:	ec411b12 	vmov	d2, r1, r1
    4354:	ec411b13 	vmov	d3, r1, r1
    4358:	ec411b14 	vmov	d4, r1, r1
    435c:	ec411b15 	vmov	d5, r1, r1
    4360:	ec411b16 	vmov	d6, r1, r1
    4364:	ec411b17 	vmov	d7, r1, r1
    4368:	ec411b18 	vmov	d8, r1, r1
    436c:	ec411b19 	vmov	d9, r1, r1
    4370:	ec411b1a 	vmov	d10, r1, r1
    4374:	ec411b1b 	vmov	d11, r1, r1
    4378:	ec411b1c 	vmov	d12, r1, r1
    437c:	ec411b1d 	vmov	d13, r1, r1
    4380:	ec411b1e 	vmov	d14, r1, r1
    4384:	ec411b1f 	vmov	d15, r1, r1
    4388:	ebffffff 	bl	438c <next1>

0000438c <next1>:
    438c:	ebffffff 	bl	4390 <next2>

00004390 <next2>:
    4390:	ebffffff 	bl	4394 <next3>

00004394 <next3>:
    4394:	ebffffff 	bl	4398 <next4>

00004398 <next4>:
    4398:	e12fff10 	bx	r0

0000439c <_coreInitStackPointer_>:
    439c:	f1020011 	cps	#17
    43a0:	e59fd030 	ldr	sp, [pc, #48]	; 43d8 <fiqSp>
    43a4:	f1020012 	cps	#18
    43a8:	e59fd02c 	ldr	sp, [pc, #44]	; 43dc <irqSp>
    43ac:	f1020013 	cps	#19
    43b0:	e59fd01c 	ldr	sp, [pc, #28]	; 43d4 <svcSp>
    43b4:	f1020017 	cps	#23
    43b8:	e59fd020 	ldr	sp, [pc, #32]	; 43e0 <abortSp>
    43bc:	f102001b 	cps	#27
    43c0:	e59fd01c 	ldr	sp, [pc, #28]	; 43e4 <undefSp>
    43c4:	f102001f 	cps	#31
    43c8:	e59fd000 	ldr	sp, [pc]	; 43d0 <userSp>
    43cc:	e12fff1e 	bx	lr

000043d0 <userSp>:
    43d0:	08008938 	.word	0x08008938

000043d4 <svcSp>:
    43d4:	08008a38 	.word	0x08008a38

000043d8 <fiqSp>:
    43d8:	08008b38 	.word	0x08008b38

000043dc <irqSp>:
    43dc:	08008c38 	.word	0x08008c38

000043e0 <abortSp>:
    43e0:	08008d38 	.word	0x08008d38

000043e4 <undefSp>:
    43e4:	08008e38 	.word	0x08008e38
    43e8:	eafffffe 	b	43e8 <undefSp+0x4>
    43ec:	eafffffe 	b	43ec <undefSp+0x8>
    43f0:	eafffffe 	b	43f0 <undefSp+0xc>
    43f4:	eafffffe 	b	43f4 <undefSp+0x10>
    43f8:	00004015 	.word	0x00004015
    43fc:	08000000 	.word	0x08000000
    4400:	08080000 	.word	0x08080000

00004404 <ada__text_io__get>:
    4404:	b508      	push	{r3, lr}
    4406:	f000 f9b1 	bl	476c <system__text_io__is_rx_ready>
    440a:	2800      	cmp	r0, #0
    440c:	d0fb      	beq.n	4406 <ada__text_io__get+0x2>
    440e:	e8bd 4008 	ldmia.w	sp!, {r3, lr}
    4412:	f000 b95f 	b.w	46d4 <system__text_io__get>
    4416:	bf00      	nop

00004418 <ada__text_io__put>:
    4418:	b510      	push	{r4, lr}
    441a:	4604      	mov	r4, r0
    441c:	f000 f99e 	bl	475c <system__text_io__is_tx_ready>
    4420:	2800      	cmp	r0, #0
    4422:	d0fb      	beq.n	441c <ada__text_io__put+0x4>
    4424:	4620      	mov	r0, r4
    4426:	e8bd 4010 	ldmia.w	sp!, {r4, lr}
    442a:	f000 b9a7 	b.w	477c <system__text_io__put>
    442e:	bf00      	nop

00004430 <ada__text_io__new_line>:
    4430:	b508      	push	{r3, lr}
    4432:	f000 f9a9 	bl	4788 <system__text_io__use_cr_lf_for_new_line>
    4436:	b110      	cbz	r0, 443e <ada__text_io__new_line+0xe>
    4438:	200d      	movs	r0, #13
    443a:	f7ff ffed 	bl	4418 <ada__text_io__put>
    443e:	200a      	movs	r0, #10
    4440:	e8bd 4008 	ldmia.w	sp!, {r3, lr}
    4444:	f7ff bfe8 	b.w	4418 <ada__text_io__put>

00004448 <ada__text_io__put__2>:
    4448:	b570      	push	{r4, r5, r6, lr}
    444a:	e891 0050 	ldmia.w	r1, {r4, r6}
    444e:	42b4      	cmp	r4, r6
    4450:	dc07      	bgt.n	4462 <ada__text_io__put__2+0x1a>
    4452:	1b05      	subs	r5, r0, r4
    4454:	3c01      	subs	r4, #1
    4456:	3401      	adds	r4, #1
    4458:	5d28      	ldrb	r0, [r5, r4]
    445a:	f7ff ffdd 	bl	4418 <ada__text_io__put>
    445e:	42b4      	cmp	r4, r6
    4460:	d1f9      	bne.n	4456 <ada__text_io__put__2+0xe>
    4462:	bd70      	pop	{r4, r5, r6, pc}

00004464 <ada__text_io__put_line>:
    4464:	b508      	push	{r3, lr}
    4466:	f7ff ffef 	bl	4448 <ada__text_io__put__2>
    446a:	e8bd 4008 	ldmia.w	sp!, {r3, lr}
    446e:	f7ff bfdf 	b.w	4430 <ada__text_io__new_line>
    4472:	bf00      	nop

00004474 <ada__text_io___elabb>:
    4474:	f240 03b4 	movw	r3, #180	; 0xb4
    4478:	f6c0 0300 	movt	r3, #2048	; 0x800
    447c:	781b      	ldrb	r3, [r3, #0]
    447e:	b103      	cbz	r3, 4482 <ada__text_io___elabb+0xe>
    4480:	4770      	bx	lr
    4482:	f000 b92f 	b.w	46e4 <system__text_io__initialize>
    4486:	bf00      	nop

00004488 <memcpy>:
    4488:	ea40 0301 	orr.w	r3, r0, r1
    448c:	079b      	lsls	r3, r3, #30
    448e:	b470      	push	{r4, r5, r6}
    4490:	d11b      	bne.n	44ca <memcpy+0x42>
    4492:	2a03      	cmp	r2, #3
    4494:	d919      	bls.n	44ca <memcpy+0x42>
    4496:	1f16      	subs	r6, r2, #4
    4498:	f026 0603 	bic.w	r6, r6, #3
    449c:	1d0b      	adds	r3, r1, #4
    449e:	4433      	add	r3, r6
    44a0:	4604      	mov	r4, r0
    44a2:	f851 5b04 	ldr.w	r5, [r1], #4
    44a6:	f844 5b04 	str.w	r5, [r4], #4
    44aa:	4299      	cmp	r1, r3
    44ac:	d1f9      	bne.n	44a2 <memcpy+0x1a>
    44ae:	1d01      	adds	r1, r0, #4
    44b0:	f002 0203 	and.w	r2, r2, #3
    44b4:	4431      	add	r1, r6
    44b6:	b132      	cbz	r2, 44c6 <memcpy+0x3e>
    44b8:	441a      	add	r2, r3
    44ba:	f813 4b01 	ldrb.w	r4, [r3], #1
    44be:	4293      	cmp	r3, r2
    44c0:	f801 4b01 	strb.w	r4, [r1], #1
    44c4:	d1f9      	bne.n	44ba <memcpy+0x32>
    44c6:	bc70      	pop	{r4, r5, r6}
    44c8:	4770      	bx	lr
    44ca:	460b      	mov	r3, r1
    44cc:	4601      	mov	r1, r0
    44ce:	e7f2      	b.n	44b6 <memcpy+0x2e>

000044d0 <memset>:
    44d0:	b132      	cbz	r2, 44e0 <memset+0x10>
    44d2:	b2c9      	uxtb	r1, r1
    44d4:	4402      	add	r2, r0
    44d6:	4603      	mov	r3, r0
    44d8:	f803 1b01 	strb.w	r1, [r3], #1
    44dc:	4293      	cmp	r3, r2
    44de:	d1fb      	bne.n	44d8 <memset+0x8>
    44e0:	4770      	bx	lr
    44e2:	bf00      	nop

000044e4 <system__secondary_stack__memoryIP>:
    44e4:	4770      	bx	lr
    44e6:	bf00      	nop

000044e8 <system__secondary_stack__ss_allocate>:
    44e8:	b510      	push	{r4, lr}
    44ea:	4604      	mov	r4, r0
    44ec:	f7fe fb72 	bl	2bd4 <__gnat_get_secondary_stack>
    44f0:	1de3      	adds	r3, r4, #7
    44f2:	f023 0307 	bic.w	r3, r3, #7
    44f6:	4602      	mov	r2, r0
    44f8:	c803      	ldmia	r0, {r0, r1}
    44fa:	4403      	add	r3, r0
    44fc:	428b      	cmp	r3, r1
    44fe:	d803      	bhi.n	4508 <system__secondary_stack__ss_allocate+0x20>
    4500:	3007      	adds	r0, #7
    4502:	4410      	add	r0, r2
    4504:	6013      	str	r3, [r2, #0]
    4506:	bd10      	pop	{r4, pc}
    4508:	f245 2034 	movw	r0, #21044	; 0x5234
    450c:	216c      	movs	r1, #108	; 0x6c
    450e:	f2c0 0000 	movt	r0, #0
    4512:	f7fc fdc7 	bl	10a4 <__gnat_last_chance_handler>
    4516:	bf00      	nop

00004518 <system__secondary_stack__ss_init>:
    4518:	3908      	subs	r1, #8
    451a:	2301      	movs	r3, #1
    451c:	6041      	str	r1, [r0, #4]
    451e:	6003      	str	r3, [r0, #0]
    4520:	4770      	bx	lr
    4522:	bf00      	nop

00004524 <system__secondary_stack__ss_mark>:
    4524:	b508      	push	{r3, lr}
    4526:	f7fe fb55 	bl	2bd4 <__gnat_get_secondary_stack>
    452a:	6800      	ldr	r0, [r0, #0]
    452c:	bd08      	pop	{r3, pc}
    452e:	bf00      	nop

00004530 <system__secondary_stack__ss_release>:
    4530:	b510      	push	{r4, lr}
    4532:	4604      	mov	r4, r0
    4534:	f7fe fb4e 	bl	2bd4 <__gnat_get_secondary_stack>
    4538:	6004      	str	r4, [r0, #0]
    453a:	bd10      	pop	{r4, pc}

0000453c <system__parameters__adjust_storage_size>:
    453c:	f1b0 4f00 	cmp.w	r0, #2147483648	; 0x80000000
    4540:	bf08      	it	eq
    4542:	f44f 5080 	moveq.w	r0, #4096	; 0x1000
    4546:	4770      	bx	lr

00004548 <memcmp>:
    4548:	b182      	cbz	r2, 456c <memcmp+0x24>
    454a:	b430      	push	{r4, r5}
    454c:	3a01      	subs	r2, #1
    454e:	f04f 33ff 	mov.w	r3, #4294967295
    4552:	e002      	b.n	455a <memcmp+0x12>
    4554:	d80c      	bhi.n	4570 <memcmp+0x28>
    4556:	4293      	cmp	r3, r2
    4558:	d00d      	beq.n	4576 <memcmp+0x2e>
    455a:	3301      	adds	r3, #1
    455c:	5c1d      	ldrb	r5, [r3, r0]
    455e:	5c5c      	ldrb	r4, [r3, r1]
    4560:	42a5      	cmp	r5, r4
    4562:	d2f7      	bcs.n	4554 <memcmp+0xc>
    4564:	f04f 30ff 	mov.w	r0, #4294967295
    4568:	bc30      	pop	{r4, r5}
    456a:	4770      	bx	lr
    456c:	2000      	movs	r0, #0
    456e:	4770      	bx	lr
    4570:	2001      	movs	r0, #1
    4572:	bc30      	pop	{r4, r5}
    4574:	4770      	bx	lr
    4576:	2000      	movs	r0, #0
    4578:	e7f6      	b.n	4568 <memcmp+0x20>
    457a:	bf00      	nop

0000457c <system__img_int__set_image_integer__set_digits.4112>:
    457c:	f110 0f09 	cmn.w	r0, #9
    4580:	b570      	push	{r4, r5, r6, lr}
    4582:	db0c      	blt.n	459e <system__img_int__set_image_integer__set_digits.4112+0x22>
    4584:	f8dc 2008 	ldr.w	r2, [ip, #8]
    4588:	f1c0 0030 	rsb	r0, r0, #48	; 0x30
    458c:	e89c 0012 	ldmia.w	ip, {r1, r4}
    4590:	3201      	adds	r2, #1
    4592:	1a51      	subs	r1, r2, r1
    4594:	6823      	ldr	r3, [r4, #0]
    4596:	f8cc 2008 	str.w	r2, [ip, #8]
    459a:	5458      	strb	r0, [r3, r1]
    459c:	bd70      	pop	{r4, r5, r6, pc}
    459e:	f246 6667 	movw	r6, #26215	; 0x6667
    45a2:	4665      	mov	r5, ip
    45a4:	f2c6 6666 	movt	r6, #26214	; 0x6666
    45a8:	17c3      	asrs	r3, r0, #31
    45aa:	4604      	mov	r4, r0
    45ac:	fb86 2600 	smull	r2, r6, r6, r0
    45b0:	ebc3 06a6 	rsb	r6, r3, r6, asr #2
    45b4:	4630      	mov	r0, r6
    45b6:	f7ff ffe1 	bl	457c <system__img_int__set_image_integer__set_digits.4112>
    45ba:	68ab      	ldr	r3, [r5, #8]
    45bc:	eb06 0086 	add.w	r0, r6, r6, lsl #2
    45c0:	682a      	ldr	r2, [r5, #0]
    45c2:	3301      	adds	r3, #1
    45c4:	6869      	ldr	r1, [r5, #4]
    45c6:	eba4 0040 	sub.w	r0, r4, r0, lsl #1
    45ca:	f1c0 0030 	rsb	r0, r0, #48	; 0x30
    45ce:	1a9a      	subs	r2, r3, r2
    45d0:	6809      	ldr	r1, [r1, #0]
    45d2:	60ab      	str	r3, [r5, #8]
    45d4:	5488      	strb	r0, [r1, r2]
    45d6:	bd70      	pop	{r4, r5, r6, pc}

000045d8 <system__img_int__set_image_integer>:
    45d8:	b510      	push	{r4, lr}
    45da:	b086      	sub	sp, #24
    45dc:	a906      	add	r1, sp, #24
    45de:	e961 2306 	strd	r2, r3, [r1, #-24]!
    45e2:	1e02      	subs	r2, r0, #0
    45e4:	9b01      	ldr	r3, [sp, #4]
    45e6:	bfa8      	it	ge
    45e8:	4250      	negge	r0, r2
    45ea:	9c08      	ldr	r4, [sp, #32]
    45ec:	bfa8      	it	ge
    45ee:	f10d 0c0c 	addge.w	ip, sp, #12
    45f2:	9405      	str	r4, [sp, #20]
    45f4:	bfb8      	it	lt
    45f6:	f10d 0c0c 	addlt.w	ip, sp, #12
    45fa:	681b      	ldr	r3, [r3, #0]
    45fc:	bfb8      	it	lt
    45fe:	3401      	addlt	r4, #1
    4600:	9104      	str	r1, [sp, #16]
    4602:	bfb8      	it	lt
    4604:	212d      	movlt	r1, #45	; 0x2d
    4606:	9303      	str	r3, [sp, #12]
    4608:	bfbf      	itttt	lt
    460a:	1ae3      	sublt	r3, r4, r3
    460c:	9a00      	ldrlt	r2, [sp, #0]
    460e:	9405      	strlt	r4, [sp, #20]
    4610:	54d1      	strblt	r1, [r2, r3]
    4612:	f7ff ffb3 	bl	457c <system__img_int__set_image_integer__set_digits.4112>
    4616:	9805      	ldr	r0, [sp, #20]
    4618:	b006      	add	sp, #24
    461a:	bd10      	pop	{r4, pc}

0000461c <system__img_int__image_integer>:
    461c:	6819      	ldr	r1, [r3, #0]
    461e:	2800      	cmp	r0, #0
    4620:	b530      	push	{r4, r5, lr}
    4622:	bfa8      	it	ge
    4624:	f1c1 0101 	rsbge	r1, r1, #1
    4628:	b083      	sub	sp, #12
    462a:	bfa5      	ittet	ge
    462c:	2520      	movge	r5, #32
    462e:	2401      	movge	r4, #1
    4630:	2400      	movlt	r4, #0
    4632:	5455      	strbge	r5, [r2, r1]
    4634:	9400      	str	r4, [sp, #0]
    4636:	f7ff ffcf 	bl	45d8 <system__img_int__set_image_integer>
    463a:	b003      	add	sp, #12
    463c:	bd30      	pop	{r4, r5, pc}
    463e:	bf00      	nop

00004640 <abort>:
    4640:	f64e 530c 	movw	r3, #60684	; 0xed0c
    4644:	2204      	movs	r2, #4
    4646:	f2ce 0300 	movt	r3, #57344	; 0xe000
    464a:	f2c0 52fa 	movt	r2, #1530	; 0x5fa
    464e:	601a      	str	r2, [r3, #0]
    4650:	e7fe      	b.n	4650 <abort+0x10>
    4652:	bf00      	nop

00004654 <exit>:
    4654:	f64e 530c 	movw	r3, #60684	; 0xed0c
    4658:	2204      	movs	r2, #4
    465a:	f2ce 0300 	movt	r3, #57344	; 0xe000
    465e:	f2c0 52fa 	movt	r2, #1530	; 0x5fa
    4662:	601a      	str	r2, [r3, #0]
    4664:	e7fe      	b.n	4664 <exit+0x10>
    4666:	bf00      	nop

00004668 <system__machine_reset__stop>:
    4668:	f64e 530c 	movw	r3, #60684	; 0xed0c
    466c:	2204      	movs	r2, #4
    466e:	f2ce 0300 	movt	r3, #57344	; 0xe000
    4672:	f2c0 52fa 	movt	r2, #1530	; 0x5fa
    4676:	601a      	str	r2, [r3, #0]
    4678:	e7fe      	b.n	4678 <system__machine_reset__stop+0x10>
    467a:	bf00      	nop

0000467c <accessor__hiloIP>:
    467c:	4770      	bx	lr
    467e:	bf00      	nop

00004680 <accessor__rmw>:
    4680:	1a89      	subs	r1, r1, r2
    4682:	b410      	push	{r4}
    4684:	1c4c      	adds	r4, r1, #1
    4686:	2c1f      	cmp	r4, #31
    4688:	bfd7      	itett	le
    468a:	2101      	movle	r1, #1
    468c:	f04f 31ff 	movgt.w	r1, #4294967295
    4690:	40a1      	lslle	r1, r4
    4692:	f101 31ff 	addle.w	r1, r1, #4294967295
    4696:	400b      	ands	r3, r1
    4698:	4091      	lsls	r1, r2
    469a:	4093      	lsls	r3, r2
    469c:	ea20 0001 	bic.w	r0, r0, r1
    46a0:	4318      	orrs	r0, r3
    46a2:	f85d 4b04 	ldr.w	r4, [sp], #4
    46a6:	4770      	bx	lr

000046a8 <accessor__rmw__2>:
    46a8:	b410      	push	{r4}
    46aa:	c912      	ldmia	r1, {r1, r4}
    46ac:	1b09      	subs	r1, r1, r4
    46ae:	3101      	adds	r1, #1
    46b0:	291f      	cmp	r1, #31
    46b2:	bfd7      	itett	le
    46b4:	2301      	movle	r3, #1
    46b6:	f04f 33ff 	movgt.w	r3, #4294967295
    46ba:	408b      	lslle	r3, r1
    46bc:	f103 33ff 	addle.w	r3, r3, #4294967295
    46c0:	401a      	ands	r2, r3
    46c2:	40a3      	lsls	r3, r4
    46c4:	40a2      	lsls	r2, r4
    46c6:	ea20 0003 	bic.w	r0, r0, r3
    46ca:	4310      	orrs	r0, r2
    46cc:	f85d 4b04 	ldr.w	r4, [sp], #4
    46d0:	4770      	bx	lr
    46d2:	bf00      	nop

000046d4 <system__text_io__get>:
    46d4:	f24e 4334 	movw	r3, #58420	; 0xe434
    46d8:	f6cf 73f7 	movt	r3, #65527	; 0xfff7
    46dc:	6818      	ldr	r0, [r3, #0]
    46de:	b2c0      	uxtb	r0, r0
    46e0:	4770      	bx	lr
    46e2:	bf00      	nop

000046e4 <system__text_io__initialize>:
    46e4:	f24e 4304 	movw	r3, #58372	; 0xe404
    46e8:	f04f 0c22 	mov.w	ip, #34	; 0x22
    46ec:	e92d 43f0 	stmdb	sp!, {r4, r5, r6, r7, r8, r9, lr}
    46f0:	f6cf 73f7 	movt	r3, #65527	; 0xfff7
    46f4:	f44f 4864 	mov.w	r8, #58368	; 0xe400
    46f8:	f24e 472c 	movw	r7, #58412	; 0xe42c
    46fc:	f04f 0e50 	mov.w	lr, #80	; 0x50
    4700:	f24e 4628 	movw	r6, #58408	; 0xe428
    4704:	f24e 453c 	movw	r5, #58428	; 0xe43c
    4708:	f24e 415c 	movw	r1, #58460	; 0xe45c
    470c:	2001      	movs	r0, #1
    470e:	2406      	movs	r4, #6
    4710:	f6cf 71f7 	movt	r1, #65527	; 0xfff7
    4714:	f6cf 78f7 	movt	r8, #65527	; 0xfff7
    4718:	f2c0 3c00 	movt	ip, #768	; 0x300
    471c:	f6cf 77f7 	movt	r7, #65527	; 0xfff7
    4720:	f2c0 6e00 	movt	lr, #1536	; 0x600
    4724:	f6cf 76f7 	movt	r6, #65527	; 0xfff7
    4728:	f04f 0907 	mov.w	r9, #7
    472c:	f6cf 75f7 	movt	r5, #65527	; 0xfff7
    4730:	f240 02b4 	movw	r2, #180	; 0xb4
    4734:	f8c8 0000 	str.w	r0, [r8]
    4738:	f6c0 0200 	movt	r2, #2048	; 0x800
    473c:	f8c3 c000 	str.w	ip, [r3]
    4740:	f8c7 e000 	str.w	lr, [r7]
    4744:	f8c6 9000 	str.w	r9, [r6]
    4748:	602c      	str	r4, [r5, #0]
    474a:	600c      	str	r4, [r1, #0]
    474c:	6819      	ldr	r1, [r3, #0]
    474e:	f041 0180 	orr.w	r1, r1, #128	; 0x80
    4752:	6019      	str	r1, [r3, #0]
    4754:	7010      	strb	r0, [r2, #0]
    4756:	e8bd 83f0 	ldmia.w	sp!, {r4, r5, r6, r7, r8, r9, pc}
    475a:	bf00      	nop

0000475c <system__text_io__is_tx_ready>:
    475c:	f24e 431c 	movw	r3, #58396	; 0xe41c
    4760:	f6cf 73f7 	movt	r3, #65527	; 0xfff7
    4764:	6818      	ldr	r0, [r3, #0]
    4766:	f3c0 2000 	ubfx	r0, r0, #8, #1
    476a:	4770      	bx	lr

0000476c <system__text_io__is_rx_ready>:
    476c:	f24e 431c 	movw	r3, #58396	; 0xe41c
    4770:	f6cf 73f7 	movt	r3, #65527	; 0xfff7
    4774:	6818      	ldr	r0, [r3, #0]
    4776:	f3c0 2040 	ubfx	r0, r0, #9, #1
    477a:	4770      	bx	lr

0000477c <system__text_io__put>:
    477c:	f24e 4338 	movw	r3, #58424	; 0xe438
    4780:	f6cf 73f7 	movt	r3, #65527	; 0xfff7
    4784:	6018      	str	r0, [r3, #0]
    4786:	4770      	bx	lr

00004788 <system__text_io__use_cr_lf_for_new_line>:
    4788:	2001      	movs	r0, #1
    478a:	4770      	bx	lr

0000478c <__aeabi_ldivmod>:
    478c:	b97b      	cbnz	r3, 47ae <__aeabi_ldivmod+0x22>
    478e:	b972      	cbnz	r2, 47ae <__aeabi_ldivmod+0x22>
    4790:	2900      	cmp	r1, #0
    4792:	bfbe      	ittt	lt
    4794:	2000      	movlt	r0, #0
    4796:	f04f 4100 	movlt.w	r1, #2147483648	; 0x80000000
    479a:	e006      	blt.n	47aa <__aeabi_ldivmod+0x1e>
    479c:	bf08      	it	eq
    479e:	2800      	cmpeq	r0, #0
    47a0:	bf1c      	itt	ne
    47a2:	f06f 4100 	mvnne.w	r1, #2147483648	; 0x80000000
    47a6:	f04f 30ff 	movne.w	r0, #4294967295
    47aa:	f7ff bc63 	b.w	4074 <__aeabi_idiv0>
    47ae:	b082      	sub	sp, #8
    47b0:	46ec      	mov	ip, sp
    47b2:	e92d 5000 	stmdb	sp!, {ip, lr}
    47b6:	f000 f81d 	bl	47f4 <__gnu_ldivmod_helper>
    47ba:	f8dd e004 	ldr.w	lr, [sp, #4]
    47be:	b002      	add	sp, #8
    47c0:	bc0c      	pop	{r2, r3}
    47c2:	4770      	bx	lr

000047c4 <__aeabi_uldivmod>:
    47c4:	b953      	cbnz	r3, 47dc <__aeabi_uldivmod+0x18>
    47c6:	b94a      	cbnz	r2, 47dc <__aeabi_uldivmod+0x18>
    47c8:	2900      	cmp	r1, #0
    47ca:	bf08      	it	eq
    47cc:	2800      	cmpeq	r0, #0
    47ce:	bf1c      	itt	ne
    47d0:	f04f 31ff 	movne.w	r1, #4294967295
    47d4:	f04f 30ff 	movne.w	r0, #4294967295
    47d8:	f7ff bc4c 	b.w	4074 <__aeabi_idiv0>
    47dc:	b082      	sub	sp, #8
    47de:	46ec      	mov	ip, sp
    47e0:	e92d 5000 	stmdb	sp!, {ip, lr}
    47e4:	f000 f81e 	bl	4824 <__gnu_uldivmod_helper>
    47e8:	f8dd e004 	ldr.w	lr, [sp, #4]
    47ec:	b002      	add	sp, #8
    47ee:	bc0c      	pop	{r2, r3}
    47f0:	4770      	bx	lr
    47f2:	bf00      	nop

000047f4 <__gnu_ldivmod_helper>:
    47f4:	e92d 41f0 	stmdb	sp!, {r4, r5, r6, r7, r8, lr}
    47f8:	4698      	mov	r8, r3
    47fa:	4614      	mov	r4, r2
    47fc:	9d06      	ldr	r5, [sp, #24]
    47fe:	4606      	mov	r6, r0
    4800:	460f      	mov	r7, r1
    4802:	f000 f827 	bl	4854 <__divdi3>
    4806:	fba4 2300 	umull	r2, r3, r4, r0
    480a:	4686      	mov	lr, r0
    480c:	fb04 f401 	mul.w	r4, r4, r1
    4810:	1ab6      	subs	r6, r6, r2
    4812:	fb00 4408 	mla	r4, r0, r8, r4
    4816:	4423      	add	r3, r4
    4818:	eb67 0703 	sbc.w	r7, r7, r3
    481c:	e9c5 6700 	strd	r6, r7, [r5]
    4820:	e8bd 81f0 	ldmia.w	sp!, {r4, r5, r6, r7, r8, pc}

00004824 <__gnu_uldivmod_helper>:
    4824:	e92d 43f8 	stmdb	sp!, {r3, r4, r5, r6, r7, r8, r9, lr}
    4828:	4617      	mov	r7, r2
    482a:	4680      	mov	r8, r0
    482c:	4689      	mov	r9, r1
    482e:	461d      	mov	r5, r3
    4830:	9e08      	ldr	r6, [sp, #32]
    4832:	f000 f8bb 	bl	49ac <__udivdi3>
    4836:	fb00 f305 	mul.w	r3, r0, r5
    483a:	fba0 4507 	umull	r4, r5, r0, r7
    483e:	fb07 3701 	mla	r7, r7, r1, r3
    4842:	ebb8 0404 	subs.w	r4, r8, r4
    4846:	443d      	add	r5, r7
    4848:	eb69 0505 	sbc.w	r5, r9, r5
    484c:	e9c6 4500 	strd	r4, r5, [r6]
    4850:	e8bd 83f8 	ldmia.w	sp!, {r3, r4, r5, r6, r7, r8, r9, pc}

00004854 <__divdi3>:
    4854:	2900      	cmp	r1, #0
    4856:	e92d 4ff0 	stmdb	sp!, {r4, r5, r6, r7, r8, r9, sl, fp, lr}
    485a:	bfa2      	ittt	ge
    485c:	4680      	movge	r8, r0
    485e:	4689      	movge	r9, r1
    4860:	f04f 0e00 	movge.w	lr, #0
    4864:	f2c0 809a 	blt.w	499c <__divdi3+0x148>
    4868:	2b00      	cmp	r3, #0
    486a:	bfa4      	itt	ge
    486c:	4610      	movge	r0, r2
    486e:	4619      	movge	r1, r3
    4870:	f2c0 808e 	blt.w	4990 <__divdi3+0x13c>
    4874:	4589      	cmp	r9, r1
    4876:	4644      	mov	r4, r8
    4878:	bf08      	it	eq
    487a:	4580      	cmpeq	r8, r0
    487c:	464d      	mov	r5, r9
    487e:	bf3c      	itt	cc
    4880:	2000      	movcc	r0, #0
    4882:	2100      	movcc	r1, #0
    4884:	d367      	bcc.n	4956 <__divdi3+0x102>
    4886:	fab1 f281 	clz	r2, r1
    488a:	2900      	cmp	r1, #0
    488c:	d076      	beq.n	497c <__divdi3+0x128>
    488e:	fab9 f389 	clz	r3, r9
    4892:	f1b9 0f00 	cmp.w	r9, #0
    4896:	d06d      	beq.n	4974 <__divdi3+0x120>
    4898:	1ad3      	subs	r3, r2, r3
    489a:	f1a3 0c20 	sub.w	ip, r3, #32
    489e:	fa01 f703 	lsl.w	r7, r1, r3
    48a2:	fa00 f20c 	lsl.w	r2, r0, ip
    48a6:	f1c3 0a20 	rsb	sl, r3, #32
    48aa:	4317      	orrs	r7, r2
    48ac:	fa20 f20a 	lsr.w	r2, r0, sl
    48b0:	4317      	orrs	r7, r2
    48b2:	fa00 f603 	lsl.w	r6, r0, r3
    48b6:	45b9      	cmp	r9, r7
    48b8:	461a      	mov	r2, r3
    48ba:	bf08      	it	eq
    48bc:	45b0      	cmpeq	r8, r6
    48be:	bf3c      	itt	cc
    48c0:	2000      	movcc	r0, #0
    48c2:	2100      	movcc	r1, #0
    48c4:	d30c      	bcc.n	48e0 <__divdi3+0x8c>
    48c6:	f04f 0b01 	mov.w	fp, #1
    48ca:	fa2b f40a 	lsr.w	r4, fp, sl
    48ce:	fa0b f10c 	lsl.w	r1, fp, ip
    48d2:	4321      	orrs	r1, r4
    48d4:	ebb8 0406 	subs.w	r4, r8, r6
    48d8:	eb69 0507 	sbc.w	r5, r9, r7
    48dc:	fa0b f003 	lsl.w	r0, fp, r3
    48e0:	2b00      	cmp	r3, #0
    48e2:	d038      	beq.n	4956 <__divdi3+0x102>
    48e4:	087f      	lsrs	r7, r7, #1
    48e6:	ea4f 0636 	mov.w	r6, r6, rrx
    48ea:	e009      	b.n	4900 <__divdi3+0xac>
    48ec:	1ba4      	subs	r4, r4, r6
    48ee:	eb65 0507 	sbc.w	r5, r5, r7
    48f2:	1924      	adds	r4, r4, r4
    48f4:	416d      	adcs	r5, r5
    48f6:	3401      	adds	r4, #1
    48f8:	f145 0500 	adc.w	r5, r5, #0
    48fc:	3b01      	subs	r3, #1
    48fe:	d007      	beq.n	4910 <__divdi3+0xbc>
    4900:	42bd      	cmp	r5, r7
    4902:	bf08      	it	eq
    4904:	42b4      	cmpeq	r4, r6
    4906:	d2f1      	bcs.n	48ec <__divdi3+0x98>
    4908:	1924      	adds	r4, r4, r4
    490a:	416d      	adcs	r5, r5
    490c:	3b01      	subs	r3, #1
    490e:	d1f7      	bne.n	4900 <__divdi3+0xac>
    4910:	f1c2 0720 	rsb	r7, r2, #32
    4914:	fa24 f302 	lsr.w	r3, r4, r2
    4918:	fa05 f707 	lsl.w	r7, r5, r7
    491c:	f1a2 0620 	sub.w	r6, r2, #32
    4920:	433b      	orrs	r3, r7
    4922:	fa25 f606 	lsr.w	r6, r5, r6
    4926:	4333      	orrs	r3, r6
    4928:	fa25 fc02 	lsr.w	ip, r5, r2
    492c:	f1a2 0820 	sub.w	r8, r2, #32
    4930:	1900      	adds	r0, r0, r4
    4932:	fa0c f702 	lsl.w	r7, ip, r2
    4936:	fa03 f808 	lsl.w	r8, r3, r8
    493a:	f1c2 0c20 	rsb	ip, r2, #32
    493e:	ea47 0708 	orr.w	r7, r7, r8
    4942:	fa23 fc0c 	lsr.w	ip, r3, ip
    4946:	fa03 f602 	lsl.w	r6, r3, r2
    494a:	4169      	adcs	r1, r5
    494c:	ea47 070c 	orr.w	r7, r7, ip
    4950:	1b80      	subs	r0, r0, r6
    4952:	eb61 0107 	sbc.w	r1, r1, r7
    4956:	f11e 0200 	adds.w	r2, lr, #0
    495a:	f04f 0300 	mov.w	r3, #0
    495e:	bf18      	it	ne
    4960:	2201      	movne	r2, #1
    4962:	4254      	negs	r4, r2
    4964:	eb63 0543 	sbc.w	r5, r3, r3, lsl #1
    4968:	4060      	eors	r0, r4
    496a:	4069      	eors	r1, r5
    496c:	1880      	adds	r0, r0, r2
    496e:	4159      	adcs	r1, r3
    4970:	e8bd 8ff0 	ldmia.w	sp!, {r4, r5, r6, r7, r8, r9, sl, fp, pc}
    4974:	fab8 f388 	clz	r3, r8
    4978:	3320      	adds	r3, #32
    497a:	e78d      	b.n	4898 <__divdi3+0x44>
    497c:	fab0 f380 	clz	r3, r0
    4980:	f103 0220 	add.w	r2, r3, #32
    4984:	fab9 f389 	clz	r3, r9
    4988:	f1b9 0f00 	cmp.w	r9, #0
    498c:	d184      	bne.n	4898 <__divdi3+0x44>
    498e:	e7f1      	b.n	4974 <__divdi3+0x120>
    4990:	4250      	negs	r0, r2
    4992:	ea6f 0e0e 	mvn.w	lr, lr
    4996:	eb63 0143 	sbc.w	r1, r3, r3, lsl #1
    499a:	e76b      	b.n	4874 <__divdi3+0x20>
    499c:	f1d0 0800 	rsbs	r8, r0, #0
    49a0:	f04f 3eff 	mov.w	lr, #4294967295
    49a4:	eb61 0941 	sbc.w	r9, r1, r1, lsl #1
    49a8:	e75e      	b.n	4868 <__divdi3+0x14>
    49aa:	bf00      	nop

000049ac <__udivdi3>:
    49ac:	4299      	cmp	r1, r3
    49ae:	bf08      	it	eq
    49b0:	4290      	cmpeq	r0, r2
    49b2:	e92d 43f0 	stmdb	sp!, {r4, r5, r6, r7, r8, r9, lr}
    49b6:	4680      	mov	r8, r0
    49b8:	4689      	mov	r9, r1
    49ba:	bf3c      	itt	cc
    49bc:	2600      	movcc	r6, #0
    49be:	2700      	movcc	r7, #0
    49c0:	d36a      	bcc.n	4a98 <__udivdi3+0xec>
    49c2:	fab3 f083 	clz	r0, r3
    49c6:	2b00      	cmp	r3, #0
    49c8:	d073      	beq.n	4ab2 <__udivdi3+0x106>
    49ca:	fab9 f189 	clz	r1, r9
    49ce:	f1b9 0f00 	cmp.w	r9, #0
    49d2:	d06a      	beq.n	4aaa <__udivdi3+0xfe>
    49d4:	1a41      	subs	r1, r0, r1
    49d6:	f1a1 0020 	sub.w	r0, r1, #32
    49da:	fa03 f501 	lsl.w	r5, r3, r1
    49de:	fa02 f600 	lsl.w	r6, r2, r0
    49e2:	f1c1 0320 	rsb	r3, r1, #32
    49e6:	4335      	orrs	r5, r6
    49e8:	fa22 f603 	lsr.w	r6, r2, r3
    49ec:	4335      	orrs	r5, r6
    49ee:	fa02 f401 	lsl.w	r4, r2, r1
    49f2:	45a9      	cmp	r9, r5
    49f4:	468e      	mov	lr, r1
    49f6:	bf08      	it	eq
    49f8:	45a0      	cmpeq	r8, r4
    49fa:	d351      	bcc.n	4aa0 <__udivdi3+0xf4>
    49fc:	f04f 0c01 	mov.w	ip, #1
    4a00:	ebb8 0204 	subs.w	r2, r8, r4
    4a04:	fa2c f303 	lsr.w	r3, ip, r3
    4a08:	fa0c f700 	lsl.w	r7, ip, r0
    4a0c:	ea47 0703 	orr.w	r7, r7, r3
    4a10:	fa0c f601 	lsl.w	r6, ip, r1
    4a14:	eb69 0305 	sbc.w	r3, r9, r5
    4a18:	2900      	cmp	r1, #0
    4a1a:	d03d      	beq.n	4a98 <__udivdi3+0xec>
    4a1c:	086d      	lsrs	r5, r5, #1
    4a1e:	ea4f 0434 	mov.w	r4, r4, rrx
    4a22:	e009      	b.n	4a38 <__udivdi3+0x8c>
    4a24:	1b12      	subs	r2, r2, r4
    4a26:	eb63 0305 	sbc.w	r3, r3, r5
    4a2a:	1892      	adds	r2, r2, r2
    4a2c:	415b      	adcs	r3, r3
    4a2e:	3201      	adds	r2, #1
    4a30:	f143 0300 	adc.w	r3, r3, #0
    4a34:	3901      	subs	r1, #1
    4a36:	d007      	beq.n	4a48 <__udivdi3+0x9c>
    4a38:	42ab      	cmp	r3, r5
    4a3a:	bf08      	it	eq
    4a3c:	42a2      	cmpeq	r2, r4
    4a3e:	d2f1      	bcs.n	4a24 <__udivdi3+0x78>
    4a40:	1892      	adds	r2, r2, r2
    4a42:	415b      	adcs	r3, r3
    4a44:	3901      	subs	r1, #1
    4a46:	d1f7      	bne.n	4a38 <__udivdi3+0x8c>
    4a48:	f1ce 0020 	rsb	r0, lr, #32
    4a4c:	fa22 fc0e 	lsr.w	ip, r2, lr
    4a50:	fa03 f000 	lsl.w	r0, r3, r0
    4a54:	f1ae 0120 	sub.w	r1, lr, #32
    4a58:	ea4c 0c00 	orr.w	ip, ip, r0
    4a5c:	fa23 f101 	lsr.w	r1, r3, r1
    4a60:	ea4c 0c01 	orr.w	ip, ip, r1
    4a64:	fa23 f00e 	lsr.w	r0, r3, lr
    4a68:	f1ae 0120 	sub.w	r1, lr, #32
    4a6c:	f1ce 0820 	rsb	r8, lr, #32
    4a70:	fa00 f50e 	lsl.w	r5, r0, lr
    4a74:	fa0c f101 	lsl.w	r1, ip, r1
    4a78:	1990      	adds	r0, r2, r6
    4a7a:	ea45 0501 	orr.w	r5, r5, r1
    4a7e:	fa2c f808 	lsr.w	r8, ip, r8
    4a82:	fa0c f40e 	lsl.w	r4, ip, lr
    4a86:	eb43 0107 	adc.w	r1, r3, r7
    4a8a:	ea45 0508 	orr.w	r5, r5, r8
    4a8e:	1b00      	subs	r0, r0, r4
    4a90:	eb61 0105 	sbc.w	r1, r1, r5
    4a94:	4606      	mov	r6, r0
    4a96:	460f      	mov	r7, r1
    4a98:	4630      	mov	r0, r6
    4a9a:	4639      	mov	r1, r7
    4a9c:	e8bd 83f0 	ldmia.w	sp!, {r4, r5, r6, r7, r8, r9, pc}
    4aa0:	4642      	mov	r2, r8
    4aa2:	464b      	mov	r3, r9
    4aa4:	2600      	movs	r6, #0
    4aa6:	2700      	movs	r7, #0
    4aa8:	e7b6      	b.n	4a18 <__udivdi3+0x6c>
    4aaa:	fab8 f188 	clz	r1, r8
    4aae:	3120      	adds	r1, #32
    4ab0:	e790      	b.n	49d4 <__udivdi3+0x28>
    4ab2:	fab2 f182 	clz	r1, r2
    4ab6:	f101 0020 	add.w	r0, r1, #32
    4aba:	fab9 f189 	clz	r1, r9
    4abe:	f1b9 0f00 	cmp.w	r9, #0
    4ac2:	d187      	bne.n	49d4 <__udivdi3+0x28>
    4ac4:	e7f1      	b.n	4aaa <__udivdi3+0xfe>
    4ac6:	bf00      	nop
