
demo:     file format elf32-littlearm


Disassembly of section .text:

00000040 <_ada_demo>:
      40:	e92d 47f0 	stmdb	sp!, {r4, r5, r6, r7, r8, r9, sl, lr}
      44:	b08a      	sub	sp, #40	; 0x28
      46:	af00      	add	r7, sp, #0
      48:	2300      	movs	r3, #0
      4a:	627b      	str	r3, [r7, #36]	; 0x24
      4c:	466b      	mov	r3, sp
      4e:	469a      	mov	sl, r3
      50:	1d3b      	adds	r3, r7, #4
      52:	461c      	mov	r4, r3
      54:	f64b 4564 	movw	r5, #48228	; 0xbc64
      58:	f2c0 0500 	movt	r5, #0
      5c:	6a78      	ldr	r0, [r7, #36]	; 0x24
      5e:	4622      	mov	r2, r4
      60:	462b      	mov	r3, r5
      62:	f003 fec3 	bl	3dec <system__img_int__image_integer>
      66:	4603      	mov	r3, r0
      68:	ea23 73e3 	bic.w	r3, r3, r3, asr #31
      6c:	f103 0e0c 	add.w	lr, r3, #12
      70:	f8c7 e020 	str.w	lr, [r7, #32]
      74:	6a3b      	ldr	r3, [r7, #32]
      76:	ea23 73e3 	bic.w	r3, r3, r3, asr #31
      7a:	61fb      	str	r3, [r7, #28]
      7c:	6a3b      	ldr	r3, [r7, #32]
      7e:	ea23 73e3 	bic.w	r3, r3, r3, asr #31
      82:	3307      	adds	r3, #7
      84:	08db      	lsrs	r3, r3, #3
      86:	00db      	lsls	r3, r3, #3
      88:	ebad 0d03 	sub.w	sp, sp, r3
      8c:	466b      	mov	r3, sp
      8e:	3300      	adds	r3, #0
      90:	61bb      	str	r3, [r7, #24]
      92:	69ba      	ldr	r2, [r7, #24]
      94:	f64b 436c 	movw	r3, #48236	; 0xbc6c
      98:	f2c0 0300 	movt	r3, #0
      9c:	4616      	mov	r6, r2
      9e:	cb07      	ldmia	r3!, {r0, r1, r2}
      a0:	6030      	str	r0, [r6, #0]
      a2:	6071      	str	r1, [r6, #4]
      a4:	60b2      	str	r2, [r6, #8]
      a6:	4673      	mov	r3, lr
      a8:	2b0c      	cmp	r3, #12
      aa:	bfb8      	it	lt
      ac:	230c      	movlt	r3, #12
      ae:	f1a3 020c 	sub.w	r2, r3, #12
      b2:	69bb      	ldr	r3, [r7, #24]
      b4:	f103 010c 	add.w	r1, r3, #12
      b8:	1d3b      	adds	r3, r7, #4
      ba:	4608      	mov	r0, r1
      bc:	4619      	mov	r1, r3
      be:	4613      	mov	r3, r2
      c0:	461a      	mov	r2, r3
      c2:	f001 ff0f 	bl	1ee4 <memcpy>
      c6:	69bb      	ldr	r3, [r7, #24]
      c8:	4698      	mov	r8, r3
      ca:	2301      	movs	r3, #1
      cc:	613b      	str	r3, [r7, #16]
      ce:	6a3b      	ldr	r3, [r7, #32]
      d0:	617b      	str	r3, [r7, #20]
      d2:	f107 0310 	add.w	r3, r7, #16
      d6:	4699      	mov	r9, r3
      d8:	4640      	mov	r0, r8
      da:	4649      	mov	r1, r9
      dc:	f001 fe9c 	bl	1e18 <ada__text_io__put_line>
      e0:	46d5      	mov	sp, sl
      e2:	6a7b      	ldr	r3, [r7, #36]	; 0x24
      e4:	f06f 4200 	mvn.w	r2, #2147483648	; 0x80000000
      e8:	4293      	cmp	r3, r2
      ea:	d106      	bne.n	fa <_data_words+0x74>
      ec:	f64b 4058 	movw	r0, #48216	; 0xbc58
      f0:	f2c0 0000 	movt	r0, #0
      f4:	212e      	movs	r1, #46	; 0x2e
      f6:	f000 ffbd 	bl	1074 <__gnat_last_chance_handler>
      fa:	6a7b      	ldr	r3, [r7, #36]	; 0x24
      fc:	3301      	adds	r3, #1
      fe:	627b      	str	r3, [r7, #36]	; 0x24
     100:	bf00      	nop
     102:	e7a3      	b.n	4c <_ada_demo+0xc>

00000104 <adafinal>:
     104:	b580      	push	{r7, lr}
     106:	af00      	add	r7, sp, #0
     108:	f240 0302 	movw	r3, #2
     10c:	f6c0 0300 	movt	r3, #2048	; 0x800
     110:	781b      	ldrb	r3, [r3, #0]
     112:	f083 0301 	eor.w	r3, r3, #1
     116:	b2db      	uxtb	r3, r3
     118:	2b00      	cmp	r3, #0
     11a:	d10a      	bne.n	132 <adafinal+0x2e>
     11c:	f240 0302 	movw	r3, #2
     120:	f6c0 0300 	movt	r3, #2048	; 0x800
     124:	2200      	movs	r2, #0
     126:	701a      	strb	r2, [r3, #0]
     128:	f001 feda 	bl	1ee0 <__gnat_runtime_finalize>
     12c:	f002 fa68 	bl	2600 <system__standard_library__adafinal>
     130:	e000      	b.n	134 <adafinal+0x30>
     132:	bf00      	nop
     134:	bd80      	pop	{r7, pc}
     136:	bf00      	nop

00000138 <adainit>:
     138:	b580      	push	{r7, lr}
     13a:	af00      	add	r7, sp, #0
     13c:	f240 0302 	movw	r3, #2
     140:	f6c0 0300 	movt	r3, #2048	; 0x800
     144:	781b      	ldrb	r3, [r3, #0]
     146:	2b00      	cmp	r3, #0
     148:	f040 8102 	bne.w	350 <adainit+0x218>
     14c:	f240 0302 	movw	r3, #2
     150:	f6c0 0300 	movt	r3, #2048	; 0x800
     154:	2201      	movs	r2, #1
     156:	701a      	strb	r2, [r3, #0]
     158:	f240 13ac 	movw	r3, #428	; 0x1ac
     15c:	f6c0 0300 	movt	r3, #2048	; 0x800
     160:	2200      	movs	r2, #0
     162:	601a      	str	r2, [r3, #0]
     164:	f240 033c 	movw	r3, #60	; 0x3c
     168:	f6c0 0300 	movt	r3, #2048	; 0x800
     16c:	2200      	movs	r2, #0
     16e:	601a      	str	r2, [r3, #0]
     170:	f240 0344 	movw	r3, #68	; 0x44
     174:	f6c0 0300 	movt	r3, #2048	; 0x800
     178:	2262      	movs	r2, #98	; 0x62
     17a:	701a      	strb	r2, [r3, #0]
     17c:	f240 0338 	movw	r3, #56	; 0x38
     180:	f6c0 0300 	movt	r3, #2048	; 0x800
     184:	2243      	movs	r2, #67	; 0x43
     186:	701a      	strb	r2, [r3, #0]
     188:	f240 0330 	movw	r3, #48	; 0x30
     18c:	f6c0 0300 	movt	r3, #2048	; 0x800
     190:	2220      	movs	r2, #32
     192:	701a      	strb	r2, [r3, #0]
     194:	f240 034c 	movw	r3, #76	; 0x4c
     198:	f6c0 0300 	movt	r3, #2048	; 0x800
     19c:	2246      	movs	r2, #70	; 0x46
     19e:	701a      	strb	r2, [r3, #0]
     1a0:	f64b 62b8 	movw	r2, #48824	; 0xbeb8
     1a4:	f2c0 0200 	movt	r2, #0
     1a8:	f240 032c 	movw	r3, #44	; 0x2c
     1ac:	f6c0 0300 	movt	r3, #2048	; 0x800
     1b0:	601a      	str	r2, [r3, #0]
     1b2:	f240 0340 	movw	r3, #64	; 0x40
     1b6:	f6c0 0300 	movt	r3, #2048	; 0x800
     1ba:	2200      	movs	r2, #0
     1bc:	601a      	str	r2, [r3, #0]
     1be:	f240 13bc 	movw	r3, #444	; 0x1bc
     1c2:	f6c0 0300 	movt	r3, #2048	; 0x800
     1c6:	f04f 32ff 	mov.w	r2, #4294967295
     1ca:	601a      	str	r2, [r3, #0]
     1cc:	f64b 62bc 	movw	r2, #48828	; 0xbebc
     1d0:	f2c0 0200 	movt	r2, #0
     1d4:	f240 0364 	movw	r3, #100	; 0x64
     1d8:	f6c0 0300 	movt	r3, #2048	; 0x800
     1dc:	601a      	str	r2, [r3, #0]
     1de:	f240 035c 	movw	r3, #92	; 0x5c
     1e2:	f6c0 0300 	movt	r3, #2048	; 0x800
     1e6:	2200      	movs	r2, #0
     1e8:	601a      	str	r2, [r3, #0]
     1ea:	f240 0348 	movw	r3, #72	; 0x48
     1ee:	f6c0 0300 	movt	r3, #2048	; 0x800
     1f2:	2200      	movs	r2, #0
     1f4:	601a      	str	r2, [r3, #0]
     1f6:	f240 0354 	movw	r3, #84	; 0x54
     1fa:	f6c0 0300 	movt	r3, #2048	; 0x800
     1fe:	2201      	movs	r2, #1
     200:	601a      	str	r2, [r3, #0]
     202:	f240 0358 	movw	r3, #88	; 0x58
     206:	f6c0 0300 	movt	r3, #2048	; 0x800
     20a:	f04f 32ff 	mov.w	r2, #4294967295
     20e:	601a      	str	r2, [r3, #0]
     210:	f240 0334 	movw	r3, #52	; 0x34
     214:	f6c0 0300 	movt	r3, #2048	; 0x800
     218:	2200      	movs	r2, #0
     21a:	601a      	str	r2, [r3, #0]
     21c:	2001      	movs	r0, #1
     21e:	f001 fe37 	bl	1e90 <__gnat_runtime_initialize>
     222:	f003 fa65 	bl	36f0 <system__bb__timing_events___elabs>
     226:	f240 1348 	movw	r3, #328	; 0x148
     22a:	f6c0 0300 	movt	r3, #2048	; 0x800
     22e:	881b      	ldrh	r3, [r3, #0]
     230:	b29b      	uxth	r3, r3
     232:	3301      	adds	r3, #1
     234:	b29a      	uxth	r2, r3
     236:	f240 1348 	movw	r3, #328	; 0x148
     23a:	f6c0 0300 	movt	r3, #2048	; 0x800
     23e:	801a      	strh	r2, [r3, #0]
     240:	f002 f99e 	bl	2580 <system__soft_links___elabs>
     244:	f240 0384 	movw	r3, #132	; 0x84
     248:	f6c0 0300 	movt	r3, #2048	; 0x800
     24c:	881b      	ldrh	r3, [r3, #0]
     24e:	b29b      	uxth	r3, r3
     250:	3301      	adds	r3, #1
     252:	b29a      	uxth	r2, r3
     254:	f240 0384 	movw	r3, #132	; 0x84
     258:	f6c0 0300 	movt	r3, #2048	; 0x800
     25c:	801a      	strh	r2, [r3, #0]
     25e:	f001 fde3 	bl	1e28 <ada__text_io___elabb>
     262:	f240 032a 	movw	r3, #42	; 0x2a
     266:	f6c0 0300 	movt	r3, #2048	; 0x800
     26a:	881b      	ldrh	r3, [r3, #0]
     26c:	b29b      	uxth	r3, r3
     26e:	3301      	adds	r3, #1
     270:	b29a      	uxth	r2, r3
     272:	f240 032a 	movw	r3, #42	; 0x2a
     276:	f6c0 0300 	movt	r3, #2048	; 0x800
     27a:	801a      	strh	r2, [r3, #0]
     27c:	f002 fbbc 	bl	29f8 <system__exception_table___elabb>
     280:	f240 1334 	movw	r3, #308	; 0x134
     284:	f6c0 0300 	movt	r3, #2048	; 0x800
     288:	881b      	ldrh	r3, [r3, #0]
     28a:	b29b      	uxth	r3, r3
     28c:	3301      	adds	r3, #1
     28e:	b29a      	uxth	r2, r3
     290:	f240 1334 	movw	r3, #308	; 0x134
     294:	f6c0 0300 	movt	r3, #2048	; 0x800
     298:	801a      	strh	r2, [r3, #0]
     29a:	f006 fd0d 	bl	6cb8 <ada__tags___elabb>
     29e:	f240 136e 	movw	r3, #366	; 0x16e
     2a2:	f6c0 0300 	movt	r3, #2048	; 0x800
     2a6:	881b      	ldrh	r3, [r3, #0]
     2a8:	b29b      	uxth	r3, r3
     2aa:	3301      	adds	r3, #1
     2ac:	b29a      	uxth	r2, r3
     2ae:	f240 136e 	movw	r3, #366	; 0x16e
     2b2:	f6c0 0300 	movt	r3, #2048	; 0x800
     2b6:	801a      	strh	r2, [r3, #0]
     2b8:	f001 fd7c 	bl	1db4 <system__tasking__restricted__stages___elabb>
     2bc:	f240 0320 	movw	r3, #32
     2c0:	f6c0 0300 	movt	r3, #2048	; 0x800
     2c4:	881b      	ldrh	r3, [r3, #0]
     2c6:	b29b      	uxth	r3, r3
     2c8:	3301      	adds	r3, #1
     2ca:	b29a      	uxth	r2, r3
     2cc:	f240 0320 	movw	r3, #32
     2d0:	f6c0 0300 	movt	r3, #2048	; 0x800
     2d4:	801a      	strh	r2, [r3, #0]
     2d6:	f007 f92b 	bl	7530 <ada__real_time___elabs>
     2da:	f007 f927 	bl	752c <ada__real_time___elabb>
     2de:	f240 1390 	movw	r3, #400	; 0x190
     2e2:	f6c0 0300 	movt	r3, #2048	; 0x800
     2e6:	881b      	ldrh	r3, [r3, #0]
     2e8:	b29b      	uxth	r3, r3
     2ea:	3301      	adds	r3, #1
     2ec:	b29a      	uxth	r2, r3
     2ee:	f240 1390 	movw	r3, #400	; 0x190
     2f2:	f6c0 0300 	movt	r3, #2048	; 0x800
     2f6:	801a      	strh	r2, [r3, #0]
     2f8:	f000 fe78 	bl	fec <driver___elabs>
     2fc:	f000 fe5a 	bl	fb4 <driver___elabb>
     300:	f240 0308 	movw	r3, #8
     304:	f6c0 0300 	movt	r3, #2048	; 0x800
     308:	881b      	ldrh	r3, [r3, #0]
     30a:	b29b      	uxth	r3, r3
     30c:	3301      	adds	r3, #1
     30e:	b29a      	uxth	r2, r3
     310:	f240 0308 	movw	r3, #8
     314:	f6c0 0300 	movt	r3, #2048	; 0x800
     318:	801a      	strh	r2, [r3, #0]
     31a:	f240 031c 	movw	r3, #28
     31e:	f6c0 0300 	movt	r3, #2048	; 0x800
     322:	881b      	ldrh	r3, [r3, #0]
     324:	b29b      	uxth	r3, r3
     326:	3301      	adds	r3, #1
     328:	b29a      	uxth	r2, r3
     32a:	f240 031c 	movw	r3, #28
     32e:	f6c0 0300 	movt	r3, #2048	; 0x800
     332:	801a      	strh	r2, [r3, #0]
     334:	f240 031e 	movw	r3, #30
     338:	f6c0 0300 	movt	r3, #2048	; 0x800
     33c:	881b      	ldrh	r3, [r3, #0]
     33e:	b29b      	uxth	r3, r3
     340:	3301      	adds	r3, #1
     342:	b29a      	uxth	r2, r3
     344:	f240 031e 	movw	r3, #30
     348:	f6c0 0300 	movt	r3, #2048	; 0x800
     34c:	801a      	strh	r2, [r3, #0]
     34e:	e000      	b.n	352 <adainit+0x21a>
     350:	bf00      	nop
     352:	bd80      	pop	{r7, pc}

00000354 <main>:
     354:	b580      	push	{r7, lr}
     356:	b084      	sub	sp, #16
     358:	af00      	add	r7, sp, #0
     35a:	f64b 43a0 	movw	r3, #48288	; 0xbca0
     35e:	f2c0 0300 	movt	r3, #0
     362:	607b      	str	r3, [r7, #4]
     364:	f107 0308 	add.w	r3, r7, #8
     368:	4618      	mov	r0, r3
     36a:	f001 fd69 	bl	1e40 <__gnat_initialize>
     36e:	f7ff fee3 	bl	138 <adainit>
     372:	f7ff fe65 	bl	40 <_ada_demo>
     376:	f7ff fec5 	bl	104 <adafinal>
     37a:	f001 fd5f 	bl	1e3c <__gnat_finalize>
     37e:	3710      	adds	r7, #16
     380:	46bd      	mov	sp, r7
     382:	bd80      	pop	{r7, pc}

00000384 <sys__mux__mux_init>:
     384:	b480      	push	{r7}
     386:	af00      	add	r7, sp, #0
     388:	bf00      	nop
     38a:	46bd      	mov	sp, r7
     38c:	f85d 7b04 	ldr.w	r7, [sp], #4
     390:	4770      	bx	lr
     392:	bf00      	nop

00000394 <sys__periph__periph_init>:
     394:	b598      	push	{r3, r4, r7, lr}
     396:	af00      	add	r7, sp, #0
     398:	f06f 04ff 	mvn.w	r4, #255	; 0xff
     39c:	f06f 03ff 	mvn.w	r3, #255	; 0xff
     3a0:	f8d3 30d0 	ldr.w	r3, [r3, #208]	; 0xd0
     3a4:	4618      	mov	r0, r3
     3a6:	f64b 61c8 	movw	r1, #48840	; 0xbec8
     3aa:	f2c0 0100 	movt	r1, #0
     3ae:	2200      	movs	r2, #0
     3b0:	f007 fd62 	bl	7e78 <accessor__rmw__2>
     3b4:	4603      	mov	r3, r0
     3b6:	f8c4 30d0 	str.w	r3, [r4, #208]	; 0xd0
     3ba:	f44f 4460 	mov.w	r4, #57344	; 0xe000
     3be:	f6cf 74ff 	movt	r4, #65535	; 0xffff
     3c2:	f44f 4360 	mov.w	r3, #57344	; 0xe000
     3c6:	f6cf 73ff 	movt	r3, #65535	; 0xffff
     3ca:	f8d3 30a0 	ldr.w	r3, [r3, #160]	; 0xa0
     3ce:	4618      	mov	r0, r3
     3d0:	211f      	movs	r1, #31
     3d2:	2200      	movs	r2, #0
     3d4:	f04f 33ff 	mov.w	r3, #4294967295
     3d8:	f007 fd3a 	bl	7e50 <accessor__rmw>
     3dc:	4603      	mov	r3, r0
     3de:	f8c4 30a0 	str.w	r3, [r4, #160]	; 0xa0
     3e2:	f44f 4460 	mov.w	r4, #57344	; 0xe000
     3e6:	f6cf 74ff 	movt	r4, #65535	; 0xffff
     3ea:	f44f 4360 	mov.w	r3, #57344	; 0xe000
     3ee:	f6cf 73ff 	movt	r3, #65535	; 0xffff
     3f2:	f8d3 30a4 	ldr.w	r3, [r3, #164]	; 0xa4
     3f6:	4618      	mov	r0, r3
     3f8:	211f      	movs	r1, #31
     3fa:	2200      	movs	r2, #0
     3fc:	f04f 33ff 	mov.w	r3, #4294967295
     400:	f007 fd26 	bl	7e50 <accessor__rmw>
     404:	4603      	mov	r3, r0
     406:	f8c4 30a4 	str.w	r3, [r4, #164]	; 0xa4
     40a:	f44f 4460 	mov.w	r4, #57344	; 0xe000
     40e:	f6cf 74ff 	movt	r4, #65535	; 0xffff
     412:	f44f 4360 	mov.w	r3, #57344	; 0xe000
     416:	f6cf 73ff 	movt	r3, #65535	; 0xffff
     41a:	f8d3 30a8 	ldr.w	r3, [r3, #168]	; 0xa8
     41e:	4618      	mov	r0, r3
     420:	211f      	movs	r1, #31
     422:	2200      	movs	r2, #0
     424:	f04f 33ff 	mov.w	r3, #4294967295
     428:	f007 fd12 	bl	7e50 <accessor__rmw>
     42c:	4603      	mov	r3, r0
     42e:	f8c4 30a8 	str.w	r3, [r4, #168]	; 0xa8
     432:	f44f 4460 	mov.w	r4, #57344	; 0xe000
     436:	f6cf 74ff 	movt	r4, #65535	; 0xffff
     43a:	f44f 4360 	mov.w	r3, #57344	; 0xe000
     43e:	f6cf 73ff 	movt	r3, #65535	; 0xffff
     442:	f8d3 30ac 	ldr.w	r3, [r3, #172]	; 0xac
     446:	4618      	mov	r0, r3
     448:	211f      	movs	r1, #31
     44a:	2200      	movs	r2, #0
     44c:	f04f 33ff 	mov.w	r3, #4294967295
     450:	f007 fcfe 	bl	7e50 <accessor__rmw>
     454:	4603      	mov	r3, r0
     456:	f8c4 30ac 	str.w	r3, [r4, #172]	; 0xac
     45a:	f06f 04ff 	mvn.w	r4, #255	; 0xff
     45e:	f06f 03ff 	mvn.w	r3, #255	; 0xff
     462:	f8d3 30d0 	ldr.w	r3, [r3, #208]	; 0xd0
     466:	4618      	mov	r0, r3
     468:	f64b 61c8 	movw	r1, #48840	; 0xbec8
     46c:	f2c0 0100 	movt	r1, #0
     470:	2201      	movs	r2, #1
     472:	f007 fd01 	bl	7e78 <accessor__rmw__2>
     476:	4603      	mov	r3, r0
     478:	f8c4 30d0 	str.w	r3, [r4, #208]	; 0xd0
     47c:	bd98      	pop	{r3, r4, r7, pc}
     47e:	bf00      	nop

00000480 <sys__sys_init>:
     480:	b580      	push	{r7, lr}
     482:	af00      	add	r7, sp, #0
     484:	f7ff ff86 	bl	394 <sys__periph__periph_init>
     488:	f7ff ff7c 	bl	384 <sys__mux__mux_init>
     48c:	bd80      	pop	{r7, pc}
     48e:	bf00      	nop

00000490 <sys__pll__reset>:
     490:	b480      	push	{r7}
     492:	b083      	sub	sp, #12
     494:	af00      	add	r7, sp, #0
     496:	6078      	str	r0, [r7, #4]
     498:	6039      	str	r1, [r7, #0]
     49a:	683b      	ldr	r3, [r7, #0]
     49c:	43db      	mvns	r3, r3
     49e:	687a      	ldr	r2, [r7, #4]
     4a0:	4013      	ands	r3, r2
     4a2:	607b      	str	r3, [r7, #4]
     4a4:	687b      	ldr	r3, [r7, #4]
     4a6:	4618      	mov	r0, r3
     4a8:	370c      	adds	r7, #12
     4aa:	46bd      	mov	sp, r7
     4ac:	f85d 7b04 	ldr.w	r7, [sp], #4
     4b0:	4770      	bx	lr
     4b2:	bf00      	nop

000004b4 <sys__pll__set>:
     4b4:	b480      	push	{r7}
     4b6:	b083      	sub	sp, #12
     4b8:	af00      	add	r7, sp, #0
     4ba:	6078      	str	r0, [r7, #4]
     4bc:	6039      	str	r1, [r7, #0]
     4be:	687a      	ldr	r2, [r7, #4]
     4c0:	683b      	ldr	r3, [r7, #0]
     4c2:	4313      	orrs	r3, r2
     4c4:	607b      	str	r3, [r7, #4]
     4c6:	687b      	ldr	r3, [r7, #4]
     4c8:	4618      	mov	r0, r3
     4ca:	370c      	adds	r7, #12
     4cc:	46bd      	mov	sp, r7
     4ce:	f85d 7b04 	ldr.w	r7, [sp], #4
     4d2:	4770      	bx	lr

000004d4 <sys__pll__initialize_clocks>:
     4d4:	b590      	push	{r4, r7, lr}
     4d6:	b083      	sub	sp, #12
     4d8:	af00      	add	r7, sp, #0
     4da:	23a4      	movs	r3, #164	; 0xa4
     4dc:	607b      	str	r3, [r7, #4]
     4de:	2305      	movs	r3, #5
     4e0:	603b      	str	r3, [r7, #0]
     4e2:	f06f 04ff 	mvn.w	r4, #255	; 0xff
     4e6:	f06f 03ff 	mvn.w	r3, #255	; 0xff
     4ea:	6b5b      	ldr	r3, [r3, #52]	; 0x34
     4ec:	4618      	mov	r0, r3
     4ee:	2101      	movs	r1, #1
     4f0:	2200      	movs	r2, #0
     4f2:	2302      	movs	r3, #2
     4f4:	f007 fcac 	bl	7e50 <accessor__rmw>
     4f8:	4603      	mov	r3, r0
     4fa:	6363      	str	r3, [r4, #52]	; 0x34
     4fc:	f06f 04ff 	mvn.w	r4, #255	; 0xff
     500:	f06f 03ff 	mvn.w	r3, #255	; 0xff
     504:	6b5b      	ldr	r3, [r3, #52]	; 0x34
     506:	4618      	mov	r0, r3
     508:	2107      	movs	r1, #7
     50a:	2203      	movs	r2, #3
     50c:	2308      	movs	r3, #8
     50e:	f007 fc9f 	bl	7e50 <accessor__rmw>
     512:	4603      	mov	r3, r0
     514:	6363      	str	r3, [r4, #52]	; 0x34
     516:	f06f 03ff 	mvn.w	r3, #255	; 0xff
     51a:	6b1b      	ldr	r3, [r3, #48]	; 0x30
     51c:	f003 0342 	and.w	r3, r3, #66	; 0x42
     520:	2b42      	cmp	r3, #66	; 0x42
     522:	d000      	beq.n	526 <sys__pll__initialize_clocks+0x52>
     524:	e7f7      	b.n	516 <sys__pll__initialize_clocks+0x42>
     526:	f06f 04ff 	mvn.w	r4, #255	; 0xff
     52a:	f06f 03ff 	mvn.w	r3, #255	; 0xff
     52e:	f8d3 30ec 	ldr.w	r3, [r3, #236]	; 0xec
     532:	4618      	mov	r0, r3
     534:	f64b 7100 	movw	r1, #48896	; 0xbf00
     538:	f2c0 0100 	movt	r1, #0
     53c:	2201      	movs	r2, #1
     53e:	f007 fc9b 	bl	7e78 <accessor__rmw__2>
     542:	4603      	mov	r3, r0
     544:	f8c4 30ec 	str.w	r3, [r4, #236]	; 0xec
     548:	f06f 04ff 	mvn.w	r4, #255	; 0xff
     54c:	f06f 03ff 	mvn.w	r3, #255	; 0xff
     550:	f8d3 30ec 	ldr.w	r3, [r3, #236]	; 0xec
     554:	4618      	mov	r0, r3
     556:	f64b 7108 	movw	r1, #48904	; 0xbf08
     55a:	f2c0 0100 	movt	r1, #0
     55e:	2201      	movs	r2, #1
     560:	f007 fc8a 	bl	7e78 <accessor__rmw__2>
     564:	4603      	mov	r3, r0
     566:	f8c4 30ec 	str.w	r3, [r4, #236]	; 0xec
     56a:	f06f 04ff 	mvn.w	r4, #255	; 0xff
     56e:	f06f 03ff 	mvn.w	r3, #255	; 0xff
     572:	f8d3 30ec 	ldr.w	r3, [r3, #236]	; 0xec
     576:	4618      	mov	r0, r3
     578:	f64b 7110 	movw	r1, #48912	; 0xbf10
     57c:	f2c0 0100 	movt	r1, #0
     580:	2201      	movs	r2, #1
     582:	f007 fc79 	bl	7e78 <accessor__rmw__2>
     586:	4603      	mov	r3, r0
     588:	f8c4 30ec 	str.w	r3, [r4, #236]	; 0xec
     58c:	f06f 04ff 	mvn.w	r4, #255	; 0xff
     590:	f06f 03ff 	mvn.w	r3, #255	; 0xff
     594:	6f1b      	ldr	r3, [r3, #112]	; 0x70
     596:	4618      	mov	r0, r3
     598:	f64b 7118 	movw	r1, #48920	; 0xbf18
     59c:	f2c0 0100 	movt	r1, #0
     5a0:	f44f 4224 	mov.w	r2, #41984	; 0xa400
     5a4:	f007 fc68 	bl	7e78 <accessor__rmw__2>
     5a8:	4603      	mov	r3, r0
     5aa:	6723      	str	r3, [r4, #112]	; 0x70
     5ac:	f06f 04ff 	mvn.w	r4, #255	; 0xff
     5b0:	f06f 03ff 	mvn.w	r3, #255	; 0xff
     5b4:	6f1b      	ldr	r3, [r3, #112]	; 0x70
     5b6:	4618      	mov	r0, r3
     5b8:	f64b 7120 	movw	r1, #48928	; 0xbf20
     5bc:	f2c0 0100 	movt	r1, #0
     5c0:	2205      	movs	r2, #5
     5c2:	f007 fc59 	bl	7e78 <accessor__rmw__2>
     5c6:	4603      	mov	r3, r0
     5c8:	6723      	str	r3, [r4, #112]	; 0x70
     5ca:	f06f 04ff 	mvn.w	r4, #255	; 0xff
     5ce:	f06f 03ff 	mvn.w	r3, #255	; 0xff
     5d2:	6f1b      	ldr	r3, [r3, #112]	; 0x70
     5d4:	4618      	mov	r0, r3
     5d6:	f64b 7130 	movw	r1, #48944	; 0xbf30
     5da:	f2c0 0100 	movt	r1, #0
     5de:	221f      	movs	r2, #31
     5e0:	f007 fc4a 	bl	7e78 <accessor__rmw__2>
     5e4:	4603      	mov	r3, r0
     5e6:	6723      	str	r3, [r4, #112]	; 0x70
     5e8:	f06f 04ff 	mvn.w	r4, #255	; 0xff
     5ec:	f06f 03ff 	mvn.w	r3, #255	; 0xff
     5f0:	6f5b      	ldr	r3, [r3, #116]	; 0x74
     5f2:	4618      	mov	r0, r3
     5f4:	f64b 7160 	movw	r1, #48992	; 0xbf60
     5f8:	f2c0 0100 	movt	r1, #0
     5fc:	223d      	movs	r2, #61	; 0x3d
     5fe:	f007 fc3b 	bl	7e78 <accessor__rmw__2>
     602:	4603      	mov	r3, r0
     604:	6763      	str	r3, [r4, #116]	; 0x74
     606:	f06f 04ff 	mvn.w	r4, #255	; 0xff
     60a:	f06f 03ff 	mvn.w	r3, #255	; 0xff
     60e:	6f5b      	ldr	r3, [r3, #116]	; 0x74
     610:	4618      	mov	r0, r3
     612:	f64b 7168 	movw	r1, #49000	; 0xbf68
     616:	f2c0 0100 	movt	r1, #0
     61a:	2201      	movs	r2, #1
     61c:	f007 fc2c 	bl	7e78 <accessor__rmw__2>
     620:	4603      	mov	r3, r0
     622:	6763      	str	r3, [r4, #116]	; 0x74
     624:	f06f 04ff 	mvn.w	r4, #255	; 0xff
     628:	f06f 03ff 	mvn.w	r3, #255	; 0xff
     62c:	6f5b      	ldr	r3, [r3, #116]	; 0x74
     62e:	4618      	mov	r0, r3
     630:	f64b 7170 	movw	r1, #49008	; 0xbf70
     634:	f2c0 0100 	movt	r1, #0
     638:	2207      	movs	r2, #7
     63a:	f007 fc1d 	bl	7e78 <accessor__rmw__2>
     63e:	4603      	mov	r3, r0
     640:	6763      	str	r3, [r4, #116]	; 0x74
     642:	f06f 04ff 	mvn.w	r4, #255	; 0xff
     646:	f06f 03ff 	mvn.w	r3, #255	; 0xff
     64a:	6f5b      	ldr	r3, [r3, #116]	; 0x74
     64c:	4618      	mov	r0, r3
     64e:	f64b 7178 	movw	r1, #49016	; 0xbf78
     652:	f2c0 0100 	movt	r1, #0
     656:	22ff      	movs	r2, #255	; 0xff
     658:	f007 fc0e 	bl	7e78 <accessor__rmw__2>
     65c:	4603      	mov	r3, r0
     65e:	6763      	str	r3, [r4, #116]	; 0x74
     660:	f44f 4461 	mov.w	r4, #57600	; 0xe100
     664:	f6cf 74ff 	movt	r4, #65535	; 0xffff
     668:	f44f 4361 	mov.w	r3, #57600	; 0xe100
     66c:	f6cf 73ff 	movt	r3, #65535	; 0xffff
     670:	681b      	ldr	r3, [r3, #0]
     672:	4618      	mov	r0, r3
     674:	f64b 7188 	movw	r1, #49032	; 0xbf88
     678:	f2c0 0100 	movt	r1, #0
     67c:	f44f 4224 	mov.w	r2, #41984	; 0xa400
     680:	f007 fbfa 	bl	7e78 <accessor__rmw__2>
     684:	4603      	mov	r3, r0
     686:	6023      	str	r3, [r4, #0]
     688:	f44f 4461 	mov.w	r4, #57600	; 0xe100
     68c:	f6cf 74ff 	movt	r4, #65535	; 0xffff
     690:	f44f 4361 	mov.w	r3, #57600	; 0xe100
     694:	f6cf 73ff 	movt	r3, #65535	; 0xffff
     698:	681b      	ldr	r3, [r3, #0]
     69a:	4618      	mov	r0, r3
     69c:	f64b 7190 	movw	r1, #49040	; 0xbf90
     6a0:	f2c0 0100 	movt	r1, #0
     6a4:	2205      	movs	r2, #5
     6a6:	f007 fbe7 	bl	7e78 <accessor__rmw__2>
     6aa:	4603      	mov	r3, r0
     6ac:	6023      	str	r3, [r4, #0]
     6ae:	f44f 4461 	mov.w	r4, #57600	; 0xe100
     6b2:	f6cf 74ff 	movt	r4, #65535	; 0xffff
     6b6:	f44f 4361 	mov.w	r3, #57600	; 0xe100
     6ba:	f6cf 73ff 	movt	r3, #65535	; 0xffff
     6be:	681b      	ldr	r3, [r3, #0]
     6c0:	4618      	mov	r0, r3
     6c2:	f64b 7198 	movw	r1, #49048	; 0xbf98
     6c6:	f2c0 0100 	movt	r1, #0
     6ca:	221f      	movs	r2, #31
     6cc:	f007 fbd4 	bl	7e78 <accessor__rmw__2>
     6d0:	4603      	mov	r3, r0
     6d2:	6023      	str	r3, [r4, #0]
     6d4:	f44f 4461 	mov.w	r4, #57600	; 0xe100
     6d8:	f6cf 74ff 	movt	r4, #65535	; 0xffff
     6dc:	f44f 4361 	mov.w	r3, #57600	; 0xe100
     6e0:	f6cf 73ff 	movt	r3, #65535	; 0xffff
     6e4:	681b      	ldr	r3, [r3, #0]
     6e6:	4618      	mov	r0, r3
     6e8:	f64b 71a0 	movw	r1, #49056	; 0xbfa0
     6ec:	f2c0 0100 	movt	r1, #0
     6f0:	2201      	movs	r2, #1
     6f2:	f007 fbc1 	bl	7e78 <accessor__rmw__2>
     6f6:	4603      	mov	r3, r0
     6f8:	6023      	str	r3, [r4, #0]
     6fa:	f06f 04ff 	mvn.w	r4, #255	; 0xff
     6fe:	f06f 03ff 	mvn.w	r3, #255	; 0xff
     702:	6b1b      	ldr	r3, [r3, #48]	; 0x30
     704:	4618      	mov	r0, r3
     706:	2107      	movs	r1, #7
     708:	2200      	movs	r2, #0
     70a:	2388      	movs	r3, #136	; 0x88
     70c:	f007 fba0 	bl	7e50 <accessor__rmw>
     710:	4603      	mov	r3, r0
     712:	6323      	str	r3, [r4, #48]	; 0x30
     714:	370c      	adds	r7, #12
     716:	46bd      	mov	sp, r7
     718:	bd90      	pop	{r4, r7, pc}
     71a:	bf00      	nop

0000071c <sys__pll__pll_spinup>:
     71c:	b590      	push	{r4, r7, lr}
     71e:	b083      	sub	sp, #12
     720:	af00      	add	r7, sp, #0
     722:	f06f 04ff 	mvn.w	r4, #255	; 0xff
     726:	f06f 03ff 	mvn.w	r3, #255	; 0xff
     72a:	6bdb      	ldr	r3, [r3, #60]	; 0x3c
     72c:	4618      	mov	r0, r3
     72e:	f24c 0120 	movw	r1, #49184	; 0xc020
     732:	f2c0 0100 	movt	r1, #0
     736:	2200      	movs	r2, #0
     738:	f007 fb9e 	bl	7e78 <accessor__rmw__2>
     73c:	4603      	mov	r3, r0
     73e:	63e3      	str	r3, [r4, #60]	; 0x3c
     740:	f06f 04ff 	mvn.w	r4, #255	; 0xff
     744:	f06f 03ff 	mvn.w	r3, #255	; 0xff
     748:	6bdb      	ldr	r3, [r3, #60]	; 0x3c
     74a:	4618      	mov	r0, r3
     74c:	f24c 0128 	movw	r1, #49192	; 0xc028
     750:	f2c0 0100 	movt	r1, #0
     754:	2200      	movs	r2, #0
     756:	f007 fb8f 	bl	7e78 <accessor__rmw__2>
     75a:	4603      	mov	r3, r0
     75c:	63e3      	str	r3, [r4, #60]	; 0x3c
     75e:	f06f 04ff 	mvn.w	r4, #255	; 0xff
     762:	f06f 03ff 	mvn.w	r3, #255	; 0xff
     766:	6bdb      	ldr	r3, [r3, #60]	; 0x3c
     768:	4618      	mov	r0, r3
     76a:	f24c 0130 	movw	r1, #49200	; 0xc030
     76e:	f2c0 0100 	movt	r1, #0
     772:	2200      	movs	r2, #0
     774:	f007 fb80 	bl	7e78 <accessor__rmw__2>
     778:	4603      	mov	r3, r0
     77a:	63e3      	str	r3, [r4, #60]	; 0x3c
     77c:	f06f 04ff 	mvn.w	r4, #255	; 0xff
     780:	f06f 03ff 	mvn.w	r3, #255	; 0xff
     784:	6bdb      	ldr	r3, [r3, #60]	; 0x3c
     786:	4618      	mov	r0, r3
     788:	f24c 0140 	movw	r1, #49216	; 0xc040
     78c:	f2c0 0100 	movt	r1, #0
     790:	2201      	movs	r2, #1
     792:	f007 fb71 	bl	7e78 <accessor__rmw__2>
     796:	4603      	mov	r3, r0
     798:	63e3      	str	r3, [r4, #60]	; 0x3c
     79a:	f06f 04ff 	mvn.w	r4, #255	; 0xff
     79e:	f06f 03ff 	mvn.w	r3, #255	; 0xff
     7a2:	6bdb      	ldr	r3, [r3, #60]	; 0x3c
     7a4:	4618      	mov	r0, r3
     7a6:	f24c 0148 	movw	r1, #49224	; 0xc048
     7aa:	f2c0 0100 	movt	r1, #0
     7ae:	2200      	movs	r2, #0
     7b0:	f007 fb62 	bl	7e78 <accessor__rmw__2>
     7b4:	4603      	mov	r3, r0
     7b6:	63e3      	str	r3, [r4, #60]	; 0x3c
     7b8:	f06f 03ff 	mvn.w	r3, #255	; 0xff
     7bc:	6d5b      	ldr	r3, [r3, #84]	; 0x54
     7be:	607b      	str	r3, [r7, #4]
     7c0:	f06f 03ff 	mvn.w	r3, #255	; 0xff
     7c4:	6b1b      	ldr	r3, [r3, #48]	; 0x30
     7c6:	603b      	str	r3, [r7, #0]
     7c8:	683b      	ldr	r3, [r7, #0]
     7ca:	f083 02ff 	eor.w	r2, r3, #255	; 0xff
     7ce:	687b      	ldr	r3, [r7, #4]
     7d0:	401a      	ands	r2, r3
     7d2:	683b      	ldr	r3, [r7, #0]
     7d4:	43db      	mvns	r3, r3
     7d6:	b2db      	uxtb	r3, r3
     7d8:	429a      	cmp	r2, r3
     7da:	d000      	beq.n	7de <sys__pll__pll_spinup+0xc2>
     7dc:	e7ec      	b.n	7b8 <sys__pll__pll_spinup+0x9c>
     7de:	f06f 04ff 	mvn.w	r4, #255	; 0xff
     7e2:	f06f 03ff 	mvn.w	r3, #255	; 0xff
     7e6:	6f1b      	ldr	r3, [r3, #112]	; 0x70
     7e8:	4618      	mov	r0, r3
     7ea:	f64b 7130 	movw	r1, #48944	; 0xbf30
     7ee:	f2c0 0100 	movt	r1, #0
     7f2:	2201      	movs	r2, #1
     7f4:	f007 fb40 	bl	7e78 <accessor__rmw__2>
     7f8:	4603      	mov	r3, r0
     7fa:	6723      	str	r3, [r4, #112]	; 0x70
     7fc:	f44f 4461 	mov.w	r4, #57600	; 0xe100
     800:	f6cf 74ff 	movt	r4, #65535	; 0xffff
     804:	f44f 4361 	mov.w	r3, #57600	; 0xe100
     808:	f6cf 73ff 	movt	r3, #65535	; 0xffff
     80c:	681b      	ldr	r3, [r3, #0]
     80e:	4618      	mov	r0, r3
     810:	f64b 7198 	movw	r1, #49048	; 0xbf98
     814:	f2c0 0100 	movt	r1, #0
     818:	2201      	movs	r2, #1
     81a:	f007 fb2d 	bl	7e78 <accessor__rmw__2>
     81e:	4603      	mov	r3, r0
     820:	6023      	str	r3, [r4, #0]
     822:	f06f 04ff 	mvn.w	r4, #255	; 0xff
     826:	f06f 03ff 	mvn.w	r3, #255	; 0xff
     82a:	6f5b      	ldr	r3, [r3, #116]	; 0x74
     82c:	4618      	mov	r0, r3
     82e:	211f      	movs	r1, #31
     830:	221f      	movs	r2, #31
     832:	2300      	movs	r3, #0
     834:	f007 fb0c 	bl	7e50 <accessor__rmw>
     838:	4603      	mov	r3, r0
     83a:	6763      	str	r3, [r4, #116]	; 0x74
     83c:	f06f 04ff 	mvn.w	r4, #255	; 0xff
     840:	f06f 03ff 	mvn.w	r3, #255	; 0xff
     844:	6c9b      	ldr	r3, [r3, #72]	; 0x48
     846:	4618      	mov	r0, r3
     848:	f64b 7158 	movw	r1, #48984	; 0xbf58
     84c:	f2c0 0100 	movt	r1, #0
     850:	2200      	movs	r2, #0
     852:	f007 fb11 	bl	7e78 <accessor__rmw__2>
     856:	4603      	mov	r3, r0
     858:	64a3      	str	r3, [r4, #72]	; 0x48
     85a:	f06f 04ff 	mvn.w	r4, #255	; 0xff
     85e:	f06f 03ff 	mvn.w	r3, #255	; 0xff
     862:	6c9b      	ldr	r3, [r3, #72]	; 0x48
     864:	4618      	mov	r0, r3
     866:	f64b 7150 	movw	r1, #48976	; 0xbf50
     86a:	f2c0 0100 	movt	r1, #0
     86e:	2200      	movs	r2, #0
     870:	f007 fb02 	bl	7e78 <accessor__rmw__2>
     874:	4603      	mov	r3, r0
     876:	64a3      	str	r3, [r4, #72]	; 0x48
     878:	f06f 04ff 	mvn.w	r4, #255	; 0xff
     87c:	f06f 03ff 	mvn.w	r3, #255	; 0xff
     880:	6c9b      	ldr	r3, [r3, #72]	; 0x48
     882:	4618      	mov	r0, r3
     884:	f64b 7148 	movw	r1, #48968	; 0xbf48
     888:	f2c0 0100 	movt	r1, #0
     88c:	2201      	movs	r2, #1
     88e:	f007 faf3 	bl	7e78 <accessor__rmw__2>
     892:	4603      	mov	r3, r0
     894:	64a3      	str	r3, [r4, #72]	; 0x48
     896:	f06f 04ff 	mvn.w	r4, #255	; 0xff
     89a:	f06f 03ff 	mvn.w	r3, #255	; 0xff
     89e:	f8d3 30d0 	ldr.w	r3, [r3, #208]	; 0xd0
     8a2:	4618      	mov	r0, r3
     8a4:	f64b 71a8 	movw	r1, #49064	; 0xbfa8
     8a8:	f2c0 0100 	movt	r1, #0
     8ac:	2201      	movs	r2, #1
     8ae:	f007 fae3 	bl	7e78 <accessor__rmw__2>
     8b2:	4603      	mov	r3, r0
     8b4:	f8c4 30d0 	str.w	r3, [r4, #208]	; 0xd0
     8b8:	f06f 04ff 	mvn.w	r4, #255	; 0xff
     8bc:	f06f 03ff 	mvn.w	r3, #255	; 0xff
     8c0:	f8d3 30d0 	ldr.w	r3, [r3, #208]	; 0xd0
     8c4:	4618      	mov	r0, r3
     8c6:	f64b 71b0 	movw	r1, #49072	; 0xbfb0
     8ca:	f2c0 0100 	movt	r1, #0
     8ce:	2201      	movs	r2, #1
     8d0:	f007 fad2 	bl	7e78 <accessor__rmw__2>
     8d4:	4603      	mov	r3, r0
     8d6:	f8c4 30d0 	str.w	r3, [r4, #208]	; 0xd0
     8da:	f44f 4461 	mov.w	r4, #57600	; 0xe100
     8de:	f6cf 74ff 	movt	r4, #65535	; 0xffff
     8e2:	f44f 4361 	mov.w	r3, #57600	; 0xe100
     8e6:	f6cf 73ff 	movt	r3, #65535	; 0xffff
     8ea:	6bdb      	ldr	r3, [r3, #60]	; 0x3c
     8ec:	4618      	mov	r0, r3
     8ee:	2107      	movs	r1, #7
     8f0:	2204      	movs	r2, #4
     8f2:	2301      	movs	r3, #1
     8f4:	f007 faac 	bl	7e50 <accessor__rmw>
     8f8:	4603      	mov	r3, r0
     8fa:	63e3      	str	r3, [r4, #60]	; 0x3c
     8fc:	f44f 4461 	mov.w	r4, #57600	; 0xe100
     900:	f6cf 74ff 	movt	r4, #65535	; 0xffff
     904:	f44f 4361 	mov.w	r3, #57600	; 0xe100
     908:	f6cf 73ff 	movt	r3, #65535	; 0xffff
     90c:	6bdb      	ldr	r3, [r3, #60]	; 0x3c
     90e:	4618      	mov	r0, r3
     910:	2103      	movs	r1, #3
     912:	2200      	movs	r2, #0
     914:	2301      	movs	r3, #1
     916:	f007 fa9b 	bl	7e50 <accessor__rmw>
     91a:	4603      	mov	r3, r0
     91c:	63e3      	str	r3, [r4, #60]	; 0x3c
     91e:	f06f 04ff 	mvn.w	r4, #255	; 0xff
     922:	f06f 03ff 	mvn.w	r3, #255	; 0xff
     926:	6d1b      	ldr	r3, [r3, #80]	; 0x50
     928:	4618      	mov	r0, r3
     92a:	f64b 71c0 	movw	r1, #49088	; 0xbfc0
     92e:	f2c0 0100 	movt	r1, #0
     932:	2201      	movs	r2, #1
     934:	f007 faa0 	bl	7e78 <accessor__rmw__2>
     938:	4603      	mov	r3, r0
     93a:	6523      	str	r3, [r4, #80]	; 0x50
     93c:	f06f 04ff 	mvn.w	r4, #255	; 0xff
     940:	f06f 03ff 	mvn.w	r3, #255	; 0xff
     944:	6d1b      	ldr	r3, [r3, #80]	; 0x50
     946:	4618      	mov	r0, r3
     948:	f64b 71c8 	movw	r1, #49096	; 0xbfc8
     94c:	f2c0 0100 	movt	r1, #0
     950:	2209      	movs	r2, #9
     952:	f007 fa91 	bl	7e78 <accessor__rmw__2>
     956:	4603      	mov	r3, r0
     958:	6523      	str	r3, [r4, #80]	; 0x50
     95a:	f06f 04ff 	mvn.w	r4, #255	; 0xff
     95e:	f06f 03ff 	mvn.w	r3, #255	; 0xff
     962:	6d1b      	ldr	r3, [r3, #80]	; 0x50
     964:	4618      	mov	r0, r3
     966:	f64b 71d0 	movw	r1, #49104	; 0xbfd0
     96a:	f2c0 0100 	movt	r1, #0
     96e:	2201      	movs	r2, #1
     970:	f007 fa82 	bl	7e78 <accessor__rmw__2>
     974:	4603      	mov	r3, r0
     976:	6523      	str	r3, [r4, #80]	; 0x50
     978:	f06f 04ff 	mvn.w	r4, #255	; 0xff
     97c:	f06f 03ff 	mvn.w	r3, #255	; 0xff
     980:	6d1b      	ldr	r3, [r3, #80]	; 0x50
     982:	4618      	mov	r0, r3
     984:	f64b 71d8 	movw	r1, #49112	; 0xbfd8
     988:	f2c0 0100 	movt	r1, #0
     98c:	2209      	movs	r2, #9
     98e:	f007 fa73 	bl	7e78 <accessor__rmw__2>
     992:	4603      	mov	r3, r0
     994:	6523      	str	r3, [r4, #80]	; 0x50
     996:	f06f 04ff 	mvn.w	r4, #255	; 0xff
     99a:	f06f 03ff 	mvn.w	r3, #255	; 0xff
     99e:	6cdb      	ldr	r3, [r3, #76]	; 0x4c
     9a0:	4618      	mov	r0, r3
     9a2:	f64b 71e0 	movw	r1, #49120	; 0xbfe0
     9a6:	f2c0 0100 	movt	r1, #0
     9aa:	2209      	movs	r2, #9
     9ac:	f007 fa64 	bl	7e78 <accessor__rmw__2>
     9b0:	4603      	mov	r3, r0
     9b2:	64e3      	str	r3, [r4, #76]	; 0x4c
     9b4:	f06f 04ff 	mvn.w	r4, #255	; 0xff
     9b8:	f06f 03ff 	mvn.w	r3, #255	; 0xff
     9bc:	6cdb      	ldr	r3, [r3, #76]	; 0x4c
     9be:	4618      	mov	r0, r3
     9c0:	f64b 71e8 	movw	r1, #49128	; 0xbfe8
     9c4:	f2c0 0100 	movt	r1, #0
     9c8:	2209      	movs	r2, #9
     9ca:	f007 fa55 	bl	7e78 <accessor__rmw__2>
     9ce:	4603      	mov	r3, r0
     9d0:	64e3      	str	r3, [r4, #76]	; 0x4c
     9d2:	f44f 4461 	mov.w	r4, #57600	; 0xe100
     9d6:	f6cf 74ff 	movt	r4, #65535	; 0xffff
     9da:	f44f 4361 	mov.w	r3, #57600	; 0xe100
     9de:	f6cf 73ff 	movt	r3, #65535	; 0xffff
     9e2:	6c1b      	ldr	r3, [r3, #64]	; 0x40
     9e4:	4618      	mov	r0, r3
     9e6:	f64b 71f0 	movw	r1, #49136	; 0xbff0
     9ea:	f2c0 0100 	movt	r1, #0
     9ee:	2200      	movs	r2, #0
     9f0:	f007 fa42 	bl	7e78 <accessor__rmw__2>
     9f4:	4603      	mov	r3, r0
     9f6:	6423      	str	r3, [r4, #64]	; 0x40
     9f8:	f44f 4461 	mov.w	r4, #57600	; 0xe100
     9fc:	f6cf 74ff 	movt	r4, #65535	; 0xffff
     a00:	f44f 4361 	mov.w	r3, #57600	; 0xe100
     a04:	f6cf 73ff 	movt	r3, #65535	; 0xffff
     a08:	6c1b      	ldr	r3, [r3, #64]	; 0x40
     a0a:	4618      	mov	r0, r3
     a0c:	f64b 71f8 	movw	r1, #49144	; 0xbff8
     a10:	f2c0 0100 	movt	r1, #0
     a14:	2200      	movs	r2, #0
     a16:	f007 fa2f 	bl	7e78 <accessor__rmw__2>
     a1a:	4603      	mov	r3, r0
     a1c:	6423      	str	r3, [r4, #64]	; 0x40
     a1e:	f44f 4461 	mov.w	r4, #57600	; 0xe100
     a22:	f6cf 74ff 	movt	r4, #65535	; 0xffff
     a26:	f44f 4361 	mov.w	r3, #57600	; 0xe100
     a2a:	f6cf 73ff 	movt	r3, #65535	; 0xffff
     a2e:	6c1b      	ldr	r3, [r3, #64]	; 0x40
     a30:	4618      	mov	r0, r3
     a32:	f24c 0100 	movw	r1, #49152	; 0xc000
     a36:	f2c0 0100 	movt	r1, #0
     a3a:	2209      	movs	r2, #9
     a3c:	f007 fa1c 	bl	7e78 <accessor__rmw__2>
     a40:	4603      	mov	r3, r0
     a42:	6423      	str	r3, [r4, #64]	; 0x40
     a44:	f44f 4461 	mov.w	r4, #57600	; 0xe100
     a48:	f6cf 74ff 	movt	r4, #65535	; 0xffff
     a4c:	f44f 4361 	mov.w	r3, #57600	; 0xe100
     a50:	f6cf 73ff 	movt	r3, #65535	; 0xffff
     a54:	6c1b      	ldr	r3, [r3, #64]	; 0x40
     a56:	4618      	mov	r0, r3
     a58:	f24c 0108 	movw	r1, #49160	; 0xc008
     a5c:	f2c0 0100 	movt	r1, #0
     a60:	2200      	movs	r2, #0
     a62:	f007 fa09 	bl	7e78 <accessor__rmw__2>
     a66:	4603      	mov	r3, r0
     a68:	6423      	str	r3, [r4, #64]	; 0x40
     a6a:	f44f 4461 	mov.w	r4, #57600	; 0xe100
     a6e:	f6cf 74ff 	movt	r4, #65535	; 0xffff
     a72:	f44f 4361 	mov.w	r3, #57600	; 0xe100
     a76:	f6cf 73ff 	movt	r3, #65535	; 0xffff
     a7a:	6c1b      	ldr	r3, [r3, #64]	; 0x40
     a7c:	4618      	mov	r0, r3
     a7e:	f24c 0110 	movw	r1, #49168	; 0xc010
     a82:	f2c0 0100 	movt	r1, #0
     a86:	2200      	movs	r2, #0
     a88:	f007 f9f6 	bl	7e78 <accessor__rmw__2>
     a8c:	4603      	mov	r3, r0
     a8e:	6423      	str	r3, [r4, #64]	; 0x40
     a90:	f44f 4461 	mov.w	r4, #57600	; 0xe100
     a94:	f6cf 74ff 	movt	r4, #65535	; 0xffff
     a98:	f44f 4361 	mov.w	r3, #57600	; 0xe100
     a9c:	f6cf 73ff 	movt	r3, #65535	; 0xffff
     aa0:	6c1b      	ldr	r3, [r3, #64]	; 0x40
     aa2:	4618      	mov	r0, r3
     aa4:	f24c 0118 	movw	r1, #49176	; 0xc018
     aa8:	f2c0 0100 	movt	r1, #0
     aac:	2209      	movs	r2, #9
     aae:	f007 f9e3 	bl	7e78 <accessor__rmw__2>
     ab2:	4603      	mov	r3, r0
     ab4:	6423      	str	r3, [r4, #64]	; 0x40
     ab6:	370c      	adds	r7, #12
     ab8:	46bd      	mov	sp, r7
     aba:	bd90      	pop	{r4, r7, pc}

00000abc <gioports__gioinit>:
     abc:	b5b0      	push	{r4, r5, r7, lr}
     abe:	b082      	sub	sp, #8
     ac0:	af00      	add	r7, sp, #0
     ac2:	f44f 443c 	mov.w	r4, #48128	; 0xbc00
     ac6:	f6cf 74f7 	movt	r4, #65527	; 0xfff7
     aca:	f44f 433c 	mov.w	r3, #48128	; 0xbc00
     ace:	f6cf 73f7 	movt	r3, #65527	; 0xfff7
     ad2:	681b      	ldr	r3, [r3, #0]
     ad4:	4618      	mov	r0, r3
     ad6:	2100      	movs	r1, #0
     ad8:	2200      	movs	r2, #0
     ada:	2301      	movs	r3, #1
     adc:	f007 f9b8 	bl	7e50 <accessor__rmw>
     ae0:	4603      	mov	r3, r0
     ae2:	6023      	str	r3, [r4, #0]
     ae4:	f44f 443c 	mov.w	r4, #48128	; 0xbc00
     ae8:	f6cf 74f7 	movt	r4, #65527	; 0xfff7
     aec:	f44f 433c 	mov.w	r3, #48128	; 0xbc00
     af0:	f6cf 73f7 	movt	r3, #65527	; 0xfff7
     af4:	695b      	ldr	r3, [r3, #20]
     af6:	4618      	mov	r0, r3
     af8:	f24c 0170 	movw	r1, #49264	; 0xc070
     afc:	f2c0 0100 	movt	r1, #0
     b00:	22ff      	movs	r2, #255	; 0xff
     b02:	f007 f9b9 	bl	7e78 <accessor__rmw__2>
     b06:	4603      	mov	r3, r0
     b08:	6163      	str	r3, [r4, #20]
     b0a:	f44f 443c 	mov.w	r4, #48128	; 0xbc00
     b0e:	f6cf 74f7 	movt	r4, #65527	; 0xfff7
     b12:	f44f 433c 	mov.w	r3, #48128	; 0xbc00
     b16:	f6cf 73f7 	movt	r3, #65527	; 0xfff7
     b1a:	69db      	ldr	r3, [r3, #28]
     b1c:	4618      	mov	r0, r3
     b1e:	f24c 0190 	movw	r1, #49296	; 0xc090
     b22:	f2c0 0100 	movt	r1, #0
     b26:	22ff      	movs	r2, #255	; 0xff
     b28:	f007 f9a6 	bl	7e78 <accessor__rmw__2>
     b2c:	4603      	mov	r3, r0
     b2e:	61e3      	str	r3, [r4, #28]
     b30:	2300      	movs	r3, #0
     b32:	71bb      	strb	r3, [r7, #6]
     b34:	2301      	movs	r3, #1
     b36:	717b      	strb	r3, [r7, #5]
     b38:	2300      	movs	r3, #0
     b3a:	71fb      	strb	r3, [r7, #7]
     b3c:	f44f 443c 	mov.w	r4, #48128	; 0xbc00
     b40:	f6cf 74f7 	movt	r4, #65527	; 0xfff7
     b44:	79fa      	ldrb	r2, [r7, #7]
     b46:	4615      	mov	r5, r2
     b48:	f44f 433c 	mov.w	r3, #48128	; 0xbc00
     b4c:	f6cf 73f7 	movt	r3, #65527	; 0xfff7
     b50:	0152      	lsls	r2, r2, #5
     b52:	4413      	add	r3, r2
     b54:	3338      	adds	r3, #56	; 0x38
     b56:	685b      	ldr	r3, [r3, #4]
     b58:	4618      	mov	r0, r3
     b5a:	2107      	movs	r1, #7
     b5c:	2200      	movs	r2, #0
     b5e:	2300      	movs	r3, #0
     b60:	f007 f976 	bl	7e50 <accessor__rmw>
     b64:	4602      	mov	r2, r0
     b66:	016b      	lsls	r3, r5, #5
     b68:	4423      	add	r3, r4
     b6a:	3338      	adds	r3, #56	; 0x38
     b6c:	605a      	str	r2, [r3, #4]
     b6e:	f44f 443c 	mov.w	r4, #48128	; 0xbc00
     b72:	f6cf 74f7 	movt	r4, #65527	; 0xfff7
     b76:	79fa      	ldrb	r2, [r7, #7]
     b78:	4615      	mov	r5, r2
     b7a:	f44f 433c 	mov.w	r3, #48128	; 0xbc00
     b7e:	f6cf 73f7 	movt	r3, #65527	; 0xfff7
     b82:	0152      	lsls	r2, r2, #5
     b84:	4413      	add	r3, r2
     b86:	3330      	adds	r3, #48	; 0x30
     b88:	685b      	ldr	r3, [r3, #4]
     b8a:	4618      	mov	r0, r3
     b8c:	2107      	movs	r1, #7
     b8e:	2200      	movs	r2, #0
     b90:	2300      	movs	r3, #0
     b92:	f007 f95d 	bl	7e50 <accessor__rmw>
     b96:	4602      	mov	r2, r0
     b98:	016b      	lsls	r3, r5, #5
     b9a:	4423      	add	r3, r4
     b9c:	3330      	adds	r3, #48	; 0x30
     b9e:	605a      	str	r2, [r3, #4]
     ba0:	f44f 443c 	mov.w	r4, #48128	; 0xbc00
     ba4:	f6cf 74f7 	movt	r4, #65527	; 0xfff7
     ba8:	79fa      	ldrb	r2, [r7, #7]
     baa:	4615      	mov	r5, r2
     bac:	f44f 433c 	mov.w	r3, #48128	; 0xbc00
     bb0:	f6cf 73f7 	movt	r3, #65527	; 0xfff7
     bb4:	3202      	adds	r2, #2
     bb6:	0152      	lsls	r2, r2, #5
     bb8:	4413      	add	r3, r2
     bba:	689b      	ldr	r3, [r3, #8]
     bbc:	4618      	mov	r0, r3
     bbe:	2107      	movs	r1, #7
     bc0:	2200      	movs	r2, #0
     bc2:	2300      	movs	r3, #0
     bc4:	f007 f944 	bl	7e50 <accessor__rmw>
     bc8:	4602      	mov	r2, r0
     bca:	1cab      	adds	r3, r5, #2
     bcc:	015b      	lsls	r3, r3, #5
     bce:	4423      	add	r3, r4
     bd0:	609a      	str	r2, [r3, #8]
     bd2:	f44f 443c 	mov.w	r4, #48128	; 0xbc00
     bd6:	f6cf 74f7 	movt	r4, #65527	; 0xfff7
     bda:	79fa      	ldrb	r2, [r7, #7]
     bdc:	4615      	mov	r5, r2
     bde:	f44f 433c 	mov.w	r3, #48128	; 0xbc00
     be2:	f6cf 73f7 	movt	r3, #65527	; 0xfff7
     be6:	0152      	lsls	r2, r2, #5
     be8:	4413      	add	r3, r2
     bea:	3348      	adds	r3, #72	; 0x48
     bec:	689b      	ldr	r3, [r3, #8]
     bee:	4618      	mov	r0, r3
     bf0:	2107      	movs	r1, #7
     bf2:	2200      	movs	r2, #0
     bf4:	2300      	movs	r3, #0
     bf6:	f007 f92b 	bl	7e50 <accessor__rmw>
     bfa:	4602      	mov	r2, r0
     bfc:	016b      	lsls	r3, r5, #5
     bfe:	4423      	add	r3, r4
     c00:	3348      	adds	r3, #72	; 0x48
     c02:	609a      	str	r2, [r3, #8]
     c04:	f44f 443c 	mov.w	r4, #48128	; 0xbc00
     c08:	f6cf 74f7 	movt	r4, #65527	; 0xfff7
     c0c:	79fa      	ldrb	r2, [r7, #7]
     c0e:	4615      	mov	r5, r2
     c10:	f44f 433c 	mov.w	r3, #48128	; 0xbc00
     c14:	f6cf 73f7 	movt	r3, #65527	; 0xfff7
     c18:	0152      	lsls	r2, r2, #5
     c1a:	4413      	add	r3, r2
     c1c:	3348      	adds	r3, #72	; 0x48
     c1e:	685b      	ldr	r3, [r3, #4]
     c20:	4618      	mov	r0, r3
     c22:	2107      	movs	r1, #7
     c24:	2200      	movs	r2, #0
     c26:	2300      	movs	r3, #0
     c28:	f007 f912 	bl	7e50 <accessor__rmw>
     c2c:	4602      	mov	r2, r0
     c2e:	016b      	lsls	r3, r5, #5
     c30:	4423      	add	r3, r4
     c32:	3348      	adds	r3, #72	; 0x48
     c34:	605a      	str	r2, [r3, #4]
     c36:	79fb      	ldrb	r3, [r7, #7]
     c38:	2b01      	cmp	r3, #1
     c3a:	d003      	beq.n	c44 <gioports__gioinit+0x188>
     c3c:	79fb      	ldrb	r3, [r7, #7]
     c3e:	3301      	adds	r3, #1
     c40:	71fb      	strb	r3, [r7, #7]
     c42:	e77b      	b.n	b3c <gioports__gioinit+0x80>
     c44:	f44f 443c 	mov.w	r4, #48128	; 0xbc00
     c48:	f6cf 74f7 	movt	r4, #65527	; 0xfff7
     c4c:	f44f 433c 	mov.w	r3, #48128	; 0xbc00
     c50:	f6cf 73f7 	movt	r3, #65527	; 0xfff7
     c54:	6d5b      	ldr	r3, [r3, #84]	; 0x54
     c56:	4618      	mov	r0, r3
     c58:	2107      	movs	r1, #7
     c5a:	2200      	movs	r2, #0
     c5c:	2307      	movs	r3, #7
     c5e:	f007 f8f7 	bl	7e50 <accessor__rmw>
     c62:	4603      	mov	r3, r0
     c64:	6563      	str	r3, [r4, #84]	; 0x54
     c66:	3708      	adds	r7, #8
     c68:	46bd      	mov	sp, r7
     c6a:	bdb0      	pop	{r4, r5, r7, pc}

00000c6c <gioports__giosetbit>:
     c6c:	b5f0      	push	{r4, r5, r6, r7, lr}
     c6e:	b085      	sub	sp, #20
     c70:	af00      	add	r7, sp, #0
     c72:	4603      	mov	r3, r0
     c74:	6039      	str	r1, [r7, #0]
     c76:	71fb      	strb	r3, [r7, #7]
     c78:	4613      	mov	r3, r2
     c7a:	71bb      	strb	r3, [r7, #6]
     c7c:	79fb      	ldrb	r3, [r7, #7]
     c7e:	2b01      	cmp	r3, #1
     c80:	d906      	bls.n	c90 <gioports__giosetbit+0x24>
     c82:	f24c 00b0 	movw	r0, #49328	; 0xc0b0
     c86:	f2c0 0000 	movt	r0, #0
     c8a:	2138      	movs	r1, #56	; 0x38
     c8c:	f004 fc26 	bl	54dc <__gnat_rcheck_CE_Invalid_Data>
     c90:	f44f 443c 	mov.w	r4, #48128	; 0xbc00
     c94:	f6cf 74f7 	movt	r4, #65527	; 0xfff7
     c98:	79fd      	ldrb	r5, [r7, #7]
     c9a:	f44f 433c 	mov.w	r3, #48128	; 0xbc00
     c9e:	f6cf 73f7 	movt	r3, #65527	; 0xfff7
     ca2:	79fa      	ldrb	r2, [r7, #7]
     ca4:	0152      	lsls	r2, r2, #5
     ca6:	4413      	add	r3, r2
     ca8:	3338      	adds	r3, #56	; 0x38
     caa:	685a      	ldr	r2, [r3, #4]
     cac:	79bb      	ldrb	r3, [r7, #6]
     cae:	2b00      	cmp	r3, #0
     cb0:	d001      	beq.n	cb6 <gioports__giosetbit+0x4a>
     cb2:	2301      	movs	r3, #1
     cb4:	e000      	b.n	cb8 <gioports__giosetbit+0x4c>
     cb6:	2300      	movs	r3, #0
     cb8:	4610      	mov	r0, r2
     cba:	6839      	ldr	r1, [r7, #0]
     cbc:	683a      	ldr	r2, [r7, #0]
     cbe:	f007 f8c7 	bl	7e50 <accessor__rmw>
     cc2:	4602      	mov	r2, r0
     cc4:	016b      	lsls	r3, r5, #5
     cc6:	4423      	add	r3, r4
     cc8:	3338      	adds	r3, #56	; 0x38
     cca:	605a      	str	r2, [r3, #4]
     ccc:	e018      	b.n	d00 <gioports__giosetbit+0x94>
     cce:	4606      	mov	r6, r0
     cd0:	2401      	movs	r4, #1
     cd2:	e010      	b.n	cf6 <gioports__giosetbit+0x8a>
     cd4:	4633      	mov	r3, r6
     cd6:	4618      	mov	r0, r3
     cd8:	f009 fa8a 	bl	a1f0 <_Unwind_Resume>
     cdc:	4603      	mov	r3, r0
     cde:	460a      	mov	r2, r1
     ce0:	2a01      	cmp	r2, #1
     ce2:	d002      	beq.n	cea <gioports__giosetbit+0x7e>
     ce4:	4618      	mov	r0, r3
     ce6:	f009 fa83 	bl	a1f0 <_Unwind_Resume>
     cea:	60fb      	str	r3, [r7, #12]
     cec:	68f8      	ldr	r0, [r7, #12]
     cee:	f003 fdf9 	bl	48e4 <__gnat_begin_handler>
     cf2:	bf00      	nop
     cf4:	2400      	movs	r4, #0
     cf6:	68f8      	ldr	r0, [r7, #12]
     cf8:	f003 fdf6 	bl	48e8 <__gnat_end_handler>
     cfc:	2c01      	cmp	r4, #1
     cfe:	d0e9      	beq.n	cd4 <gioports__giosetbit+0x68>
     d00:	3714      	adds	r7, #20
     d02:	46bd      	mov	sp, r7
     d04:	bdf0      	pop	{r4, r5, r6, r7, pc}
     d06:	bf00      	nop

00000d08 <driver__controller1TKVIP>:
     d08:	b5b0      	push	{r4, r5, r7, lr}
     d0a:	b08e      	sub	sp, #56	; 0x38
     d0c:	af0a      	add	r7, sp, #40	; 0x28
     d0e:	60f8      	str	r0, [r7, #12]
     d10:	60b9      	str	r1, [r7, #8]
     d12:	607a      	str	r2, [r7, #4]
     d14:	68fb      	ldr	r3, [r7, #12]
     d16:	2200      	movs	r2, #0
     d18:	601a      	str	r2, [r3, #0]
     d1a:	68fb      	ldr	r3, [r7, #12]
     d1c:	f503 5397 	add.w	r3, r3, #4832	; 0x12e0
     d20:	3308      	adds	r3, #8
     d22:	2278      	movs	r2, #120	; 0x78
     d24:	601a      	str	r2, [r3, #0]
     d26:	68fb      	ldr	r3, [r7, #12]
     d28:	f503 5397 	add.w	r3, r3, #4832	; 0x12e0
     d2c:	330c      	adds	r3, #12
     d2e:	f44f 5280 	mov.w	r2, #4096	; 0x1000
     d32:	601a      	str	r2, [r3, #0]
     d34:	68fb      	ldr	r3, [r7, #12]
     d36:	f103 0208 	add.w	r2, r3, #8
     d3a:	68fb      	ldr	r3, [r7, #12]
     d3c:	601a      	str	r2, [r3, #0]
     d3e:	68fb      	ldr	r3, [r7, #12]
     d40:	f503 5397 	add.w	r3, r3, #4832	; 0x12e0
     d44:	3308      	adds	r3, #8
     d46:	6818      	ldr	r0, [r3, #0]
     d48:	68fb      	ldr	r3, [r7, #12]
     d4a:	f503 733a 	add.w	r3, r3, #744	; 0x2e8
     d4e:	461d      	mov	r5, r3
     d50:	68fb      	ldr	r3, [r7, #12]
     d52:	f503 5397 	add.w	r3, r3, #4832	; 0x12e0
     d56:	330c      	adds	r3, #12
     d58:	681c      	ldr	r4, [r3, #0]
     d5a:	68fa      	ldr	r2, [r7, #12]
     d5c:	68fb      	ldr	r3, [r7, #12]
     d5e:	6819      	ldr	r1, [r3, #0]
     d60:	f04f 33ff 	mov.w	r3, #4294967295
     d64:	9300      	str	r3, [sp, #0]
     d66:	f640 6345 	movw	r3, #3653	; 0xe45
     d6a:	f2c0 0300 	movt	r3, #0
     d6e:	9301      	str	r3, [sp, #4]
     d70:	9202      	str	r2, [sp, #8]
     d72:	f240 030a 	movw	r3, #10
     d76:	f6c0 0300 	movt	r3, #2048	; 0x800
     d7a:	9303      	str	r3, [sp, #12]
     d7c:	687b      	ldr	r3, [r7, #4]
     d7e:	9304      	str	r3, [sp, #16]
     d80:	e9d7 2308 	ldrd	r2, r3, [r7, #32]
     d84:	e9cd 2306 	strd	r2, r3, [sp, #24]
     d88:	9108      	str	r1, [sp, #32]
     d8a:	4629      	mov	r1, r5
     d8c:	4622      	mov	r2, r4
     d8e:	2302      	movs	r3, #2
     d90:	f000 ffbc 	bl	1d0c <system__tasking__restricted__stages__create_restricted_task>
     d94:	3710      	adds	r7, #16
     d96:	46bd      	mov	sp, r7
     d98:	bdb0      	pop	{r4, r5, r7, pc}
     d9a:	bf00      	nop

00000d9c <driver__controller2TKVIP>:
     d9c:	b5b0      	push	{r4, r5, r7, lr}
     d9e:	b08e      	sub	sp, #56	; 0x38
     da0:	af0a      	add	r7, sp, #40	; 0x28
     da2:	60f8      	str	r0, [r7, #12]
     da4:	60b9      	str	r1, [r7, #8]
     da6:	607a      	str	r2, [r7, #4]
     da8:	68fb      	ldr	r3, [r7, #12]
     daa:	2200      	movs	r2, #0
     dac:	601a      	str	r2, [r3, #0]
     dae:	68fb      	ldr	r3, [r7, #12]
     db0:	f503 5397 	add.w	r3, r3, #4832	; 0x12e0
     db4:	3308      	adds	r3, #8
     db6:	2278      	movs	r2, #120	; 0x78
     db8:	601a      	str	r2, [r3, #0]
     dba:	68fb      	ldr	r3, [r7, #12]
     dbc:	f503 5397 	add.w	r3, r3, #4832	; 0x12e0
     dc0:	330c      	adds	r3, #12
     dc2:	f44f 5280 	mov.w	r2, #4096	; 0x1000
     dc6:	601a      	str	r2, [r3, #0]
     dc8:	68fb      	ldr	r3, [r7, #12]
     dca:	f103 0208 	add.w	r2, r3, #8
     dce:	68fb      	ldr	r3, [r7, #12]
     dd0:	601a      	str	r2, [r3, #0]
     dd2:	68fb      	ldr	r3, [r7, #12]
     dd4:	f503 5397 	add.w	r3, r3, #4832	; 0x12e0
     dd8:	3308      	adds	r3, #8
     dda:	6818      	ldr	r0, [r3, #0]
     ddc:	68fb      	ldr	r3, [r7, #12]
     dde:	f503 733a 	add.w	r3, r3, #744	; 0x2e8
     de2:	461d      	mov	r5, r3
     de4:	68fb      	ldr	r3, [r7, #12]
     de6:	f503 5397 	add.w	r3, r3, #4832	; 0x12e0
     dea:	330c      	adds	r3, #12
     dec:	681c      	ldr	r4, [r3, #0]
     dee:	68fa      	ldr	r2, [r7, #12]
     df0:	68fb      	ldr	r3, [r7, #12]
     df2:	6819      	ldr	r1, [r3, #0]
     df4:	f04f 33ff 	mov.w	r3, #4294967295
     df8:	9300      	str	r3, [sp, #0]
     dfa:	f640 7301 	movw	r3, #3841	; 0xf01
     dfe:	f2c0 0300 	movt	r3, #0
     e02:	9301      	str	r3, [sp, #4]
     e04:	9202      	str	r2, [sp, #8]
     e06:	f240 0311 	movw	r3, #17
     e0a:	f6c0 0300 	movt	r3, #2048	; 0x800
     e0e:	9303      	str	r3, [sp, #12]
     e10:	687b      	ldr	r3, [r7, #4]
     e12:	9304      	str	r3, [sp, #16]
     e14:	e9d7 2308 	ldrd	r2, r3, [r7, #32]
     e18:	e9cd 2306 	strd	r2, r3, [sp, #24]
     e1c:	9108      	str	r1, [sp, #32]
     e1e:	4629      	mov	r1, r5
     e20:	4622      	mov	r2, r4
     e22:	2302      	movs	r3, #2
     e24:	f000 ff72 	bl	1d0c <system__tasking__restricted__stages__create_restricted_task>
     e28:	3710      	adds	r7, #16
     e2a:	46bd      	mov	sp, r7
     e2c:	bdb0      	pop	{r4, r5, r7, pc}
     e2e:	bf00      	nop

00000e30 <driver__controller1TK___finalizer.4578>:
     e30:	b580      	push	{r7, lr}
     e32:	b082      	sub	sp, #8
     e34:	af00      	add	r7, sp, #0
     e36:	f8c7 c004 	str.w	ip, [r7, #4]
     e3a:	f000 ff5d 	bl	1cf8 <system__tasking__restricted__stages__complete_restricted_task>
     e3e:	3708      	adds	r7, #8
     e40:	46bd      	mov	sp, r7
     e42:	bd80      	pop	{r7, pc}

00000e44 <driver__controller1TKB>:
     e44:	b5b0      	push	{r4, r5, r7, lr}
     e46:	b086      	sub	sp, #24
     e48:	af00      	add	r7, sp, #0
     e4a:	6078      	str	r0, [r7, #4]
     e4c:	f44f 60fa 	mov.w	r0, #2000	; 0x7d0
     e50:	f006 f92a 	bl	70a8 <ada__real_time__milliseconds>
     e54:	4602      	mov	r2, r0
     e56:	460b      	mov	r3, r1
     e58:	e9c7 2304 	strd	r2, r3, [r7, #16]
     e5c:	f000 ff4a 	bl	1cf4 <system__tasking__restricted__stages__complete_restricted_activation>
     e60:	f006 f8de 	bl	7020 <ada__real_time__clock>
     e64:	4602      	mov	r2, r0
     e66:	460b      	mov	r3, r1
     e68:	e9c7 2302 	strd	r2, r3, [r7, #8]
     e6c:	2001      	movs	r0, #1
     e6e:	2101      	movs	r1, #1
     e70:	2201      	movs	r2, #1
     e72:	f7ff fefb 	bl	c6c <gioports__giosetbit>
     e76:	e9d7 0102 	ldrd	r0, r1, [r7, #8]
     e7a:	e9d7 2304 	ldrd	r2, r3, [r7, #16]
     e7e:	f005 ff8f 	bl	6da0 <ada__real_time__Oadd>
     e82:	4602      	mov	r2, r0
     e84:	460b      	mov	r3, r1
     e86:	e9c7 2302 	strd	r2, r3, [r7, #8]
     e8a:	e9d7 0102 	ldrd	r0, r1, [r7, #8]
     e8e:	f001 fa13 	bl	22b8 <ada__real_time__delays__delay_until>
     e92:	f642 0000 	movw	r0, #10240	; 0x2800
     e96:	f6c0 0000 	movt	r0, #2048	; 0x800
     e9a:	f002 fc61 	bl	3760 <ada__synchronous_task_control__set_true>
     e9e:	2001      	movs	r0, #1
     ea0:	2101      	movs	r1, #1
     ea2:	2200      	movs	r2, #0
     ea4:	f7ff fee2 	bl	c6c <gioports__giosetbit>
     ea8:	e9d7 0102 	ldrd	r0, r1, [r7, #8]
     eac:	e9d7 2304 	ldrd	r2, r3, [r7, #16]
     eb0:	f005 ff76 	bl	6da0 <ada__real_time__Oadd>
     eb4:	4602      	mov	r2, r0
     eb6:	460b      	mov	r3, r1
     eb8:	e9c7 2302 	strd	r2, r3, [r7, #8]
     ebc:	e9d7 0102 	ldrd	r0, r1, [r7, #8]
     ec0:	f001 f9fa 	bl	22b8 <ada__real_time__delays__delay_until>
     ec4:	e7cc      	b.n	e60 <driver__controller1TKB+0x1c>
     ec6:	4605      	mov	r5, r0
     ec8:	2401      	movs	r4, #1
     eca:	bf00      	nop
     ecc:	f107 0308 	add.w	r3, r7, #8
     ed0:	469c      	mov	ip, r3
     ed2:	f7ff ffad 	bl	e30 <driver__controller1TK___finalizer.4578>
     ed6:	2c01      	cmp	r4, #1
     ed8:	d103      	bne.n	ee2 <driver__controller1TKB+0x9e>
     eda:	462b      	mov	r3, r5
     edc:	4618      	mov	r0, r3
     ede:	f009 f987 	bl	a1f0 <_Unwind_Resume>
     ee2:	bf00      	nop
     ee4:	3718      	adds	r7, #24
     ee6:	46bd      	mov	sp, r7
     ee8:	bdb0      	pop	{r4, r5, r7, pc}
     eea:	bf00      	nop

00000eec <driver__controller2TK___finalizer.4615>:
     eec:	b580      	push	{r7, lr}
     eee:	b082      	sub	sp, #8
     ef0:	af00      	add	r7, sp, #0
     ef2:	f8c7 c004 	str.w	ip, [r7, #4]
     ef6:	f000 feff 	bl	1cf8 <system__tasking__restricted__stages__complete_restricted_task>
     efa:	3708      	adds	r7, #8
     efc:	46bd      	mov	sp, r7
     efe:	bd80      	pop	{r7, pc}

00000f00 <driver__controller2TKB>:
     f00:	b5b0      	push	{r4, r5, r7, lr}
     f02:	b086      	sub	sp, #24
     f04:	af00      	add	r7, sp, #0
     f06:	6078      	str	r0, [r7, #4]
     f08:	f44f 707a 	mov.w	r0, #1000	; 0x3e8
     f0c:	f006 f8cc 	bl	70a8 <ada__real_time__milliseconds>
     f10:	4602      	mov	r2, r0
     f12:	460b      	mov	r3, r1
     f14:	e9c7 2304 	strd	r2, r3, [r7, #16]
     f18:	f000 feec 	bl	1cf4 <system__tasking__restricted__stages__complete_restricted_activation>
     f1c:	f642 0000 	movw	r0, #10240	; 0x2800
     f20:	f6c0 0000 	movt	r0, #2048	; 0x800
     f24:	f002 fc90 	bl	3848 <ada__synchronous_task_control__suspend_until_true>
     f28:	2001      	movs	r0, #1
     f2a:	2102      	movs	r1, #2
     f2c:	2201      	movs	r2, #1
     f2e:	f7ff fe9d 	bl	c6c <gioports__giosetbit>
     f32:	f006 f875 	bl	7020 <ada__real_time__clock>
     f36:	4602      	mov	r2, r0
     f38:	460b      	mov	r3, r1
     f3a:	e9c7 2302 	strd	r2, r3, [r7, #8]
     f3e:	e9d7 0102 	ldrd	r0, r1, [r7, #8]
     f42:	e9d7 2304 	ldrd	r2, r3, [r7, #16]
     f46:	f005 ff2b 	bl	6da0 <ada__real_time__Oadd>
     f4a:	4602      	mov	r2, r0
     f4c:	460b      	mov	r3, r1
     f4e:	e9c7 2302 	strd	r2, r3, [r7, #8]
     f52:	e9d7 0102 	ldrd	r0, r1, [r7, #8]
     f56:	f001 f9af 	bl	22b8 <ada__real_time__delays__delay_until>
     f5a:	2001      	movs	r0, #1
     f5c:	2102      	movs	r1, #2
     f5e:	2200      	movs	r2, #0
     f60:	f7ff fe84 	bl	c6c <gioports__giosetbit>
     f64:	e9d7 0102 	ldrd	r0, r1, [r7, #8]
     f68:	e9d7 2304 	ldrd	r2, r3, [r7, #16]
     f6c:	f005 ff18 	bl	6da0 <ada__real_time__Oadd>
     f70:	4602      	mov	r2, r0
     f72:	460b      	mov	r3, r1
     f74:	e9c7 2302 	strd	r2, r3, [r7, #8]
     f78:	e9d7 0102 	ldrd	r0, r1, [r7, #8]
     f7c:	f001 f99c 	bl	22b8 <ada__real_time__delays__delay_until>
     f80:	f642 0000 	movw	r0, #10240	; 0x2800
     f84:	f6c0 0000 	movt	r0, #2048	; 0x800
     f88:	f002 fbe6 	bl	3758 <ada__synchronous_task_control__set_false>
     f8c:	e7c6      	b.n	f1c <driver__controller2TKB+0x1c>
     f8e:	4605      	mov	r5, r0
     f90:	2401      	movs	r4, #1
     f92:	bf00      	nop
     f94:	f107 0308 	add.w	r3, r7, #8
     f98:	469c      	mov	ip, r3
     f9a:	f7ff ffa7 	bl	eec <driver__controller2TK___finalizer.4615>
     f9e:	2c01      	cmp	r4, #1
     fa0:	d103      	bne.n	faa <driver__controller2TKB+0xaa>
     fa2:	462b      	mov	r3, r5
     fa4:	4618      	mov	r0, r3
     fa6:	f009 f923 	bl	a1f0 <_Unwind_Resume>
     faa:	bf00      	nop
     fac:	3718      	adds	r7, #24
     fae:	46bd      	mov	sp, r7
     fb0:	bdb0      	pop	{r4, r5, r7, pc}
     fb2:	bf00      	nop

00000fb4 <driver___elabb>:
     fb4:	b580      	push	{r7, lr}
     fb6:	af00      	add	r7, sp, #0
     fb8:	f642 0000 	movw	r0, #10240	; 0x2800
     fbc:	f6c0 0000 	movt	r0, #2048	; 0x800
     fc0:	f002 fbc2 	bl	3748 <ada__synchronous_task_control__suspension_objectIP>
     fc4:	f240 030a 	movw	r3, #10
     fc8:	f6c0 0300 	movt	r3, #2048	; 0x800
     fcc:	2201      	movs	r2, #1
     fce:	701a      	strb	r2, [r3, #0]
     fd0:	f240 0311 	movw	r3, #17
     fd4:	f6c0 0300 	movt	r3, #2048	; 0x800
     fd8:	2201      	movs	r2, #1
     fda:	701a      	strb	r2, [r3, #0]
     fdc:	f240 2018 	movw	r0, #536	; 0x218
     fe0:	f6c0 0000 	movt	r0, #2048	; 0x800
     fe4:	f000 fe76 	bl	1cd4 <system__tasking__restricted__stages__activate_restricted_tasks>
     fe8:	bd80      	pop	{r7, pc}
     fea:	bf00      	nop

00000fec <driver___elabs>:
     fec:	e92d 43b0 	stmdb	sp!, {r4, r5, r7, r8, r9, lr}
     ff0:	b082      	sub	sp, #8
     ff2:	af02      	add	r7, sp, #8
     ff4:	f240 2018 	movw	r0, #536	; 0x218
     ff8:	f6c0 0000 	movt	r0, #2048	; 0x800
     ffc:	f006 faa6 	bl	754c <system__tasking__activation_chainIP>
    1000:	f240 0810 	movw	r8, #16
    1004:	f6c0 0800 	movt	r8, #2048	; 0x800
    1008:	f24c 09c0 	movw	r9, #49344	; 0xc0c0
    100c:	f2c0 0900 	movt	r9, #0
    1010:	e9cd 8900 	strd	r8, r9, [sp]
    1014:	f240 2020 	movw	r0, #544	; 0x220
    1018:	f6c0 0000 	movt	r0, #2048	; 0x800
    101c:	2103      	movs	r1, #3
    101e:	f240 2218 	movw	r2, #536	; 0x218
    1022:	f6c0 0200 	movt	r2, #2048	; 0x800
    1026:	f7ff fe6f 	bl	d08 <driver__controller1TKVIP>
    102a:	f240 0418 	movw	r4, #24
    102e:	f6c0 0400 	movt	r4, #2048	; 0x800
    1032:	f24c 05c0 	movw	r5, #49344	; 0xc0c0
    1036:	f2c0 0500 	movt	r5, #0
    103a:	e9cd 4500 	strd	r4, r5, [sp]
    103e:	f241 5010 	movw	r0, #5392	; 0x1510
    1042:	f6c0 0000 	movt	r0, #2048	; 0x800
    1046:	2103      	movs	r1, #3
    1048:	f240 2218 	movw	r2, #536	; 0x218
    104c:	f6c0 0200 	movt	r2, #2048	; 0x800
    1050:	f7ff fea4 	bl	d9c <driver__controller2TKVIP>
    1054:	46bd      	mov	sp, r7
    1056:	e8bd 83b0 	ldmia.w	sp!, {r4, r5, r7, r8, r9, pc}
    105a:	bf00      	nop

0000105c <rm46_init>:
    105c:	b580      	push	{r7, lr}
    105e:	af00      	add	r7, sp, #0
    1060:	f7ff fa38 	bl	4d4 <sys__pll__initialize_clocks>
    1064:	f7ff fb5a 	bl	71c <sys__pll__pll_spinup>
    1068:	f7ff fa0a 	bl	480 <sys__sys_init>
    106c:	f7ff fd26 	bl	abc <gioports__gioinit>
    1070:	bd80      	pop	{r7, pc}
    1072:	bf00      	nop

00001074 <__gnat_last_chance_handler>:
    1074:	b480      	push	{r7}
    1076:	b083      	sub	sp, #12
    1078:	af00      	add	r7, sp, #0
    107a:	6078      	str	r0, [r7, #4]
    107c:	6039      	str	r1, [r7, #0]
    107e:	e7fe      	b.n	107e <__gnat_last_chance_handler+0xa>

00001080 <_start_rom>:
    1080:	e59f03d8 	ldr	r0, [pc, #984]	; 1460 <undefSp+0x14>
    1084:	e12fff10 	bx	r0

00001088 <_start_rom_t>:
    1088:	f000 e936 	blx	12f8 <_coreInitRegisters_>
    108c:	f000 e9ba 	blx	1404 <_coreInitStackPointer_>
    1090:	f240 0000 	movw	r0, #0
    1094:	f6c0 0000 	movt	r0, #2048	; 0x800
    1098:	f240 0186 	movw	r1, #134	; 0x86
    109c:	f24d 623c 	movw	r2, #54844	; 0xd63c
    10a0:	f2c0 0200 	movt	r2, #0
    10a4:	b129      	cbz	r1, 10b2 <_start_rom_t+0x2a>
    10a6:	f852 4b04 	ldr.w	r4, [r2], #4
    10aa:	f840 4b04 	str.w	r4, [r0], #4
    10ae:	3901      	subs	r1, #1
    10b0:	d1f9      	bne.n	10a6 <_start_rom_t+0x1e>
    10b2:	f248 70f0 	movw	r0, #34800	; 0x87f0
    10b6:	f6c0 0000 	movt	r0, #2048	; 0x800
    10ba:	f240 0100 	movw	r1, #0
    10be:	f04f 0200 	mov.w	r2, #0
    10c2:	b119      	cbz	r1, 10cc <_start_rom_t+0x44>
    10c4:	f840 2b04 	str.w	r2, [r0], #4
    10c8:	3901      	subs	r1, #1
    10ca:	d1fb      	bne.n	10c4 <_start_rom_t+0x3c>
    10cc:	f000 f806 	bl	10dc <_mpuInit_>
    10d0:	f7ff ffc4 	bl	105c <rm46_init>
    10d4:	f7ff f93e 	bl	354 <main>
    10d8:	f006 fea4 	bl	7e24 <exit>

000010dc <_mpuInit_>:
    10dc:	f84d 0d04 	str.w	r0, [sp, #-4]!
    10e0:	ee11 0f10 	mrc	15, 0, r0, cr1, cr0, {0}
    10e4:	f020 0001 	bic.w	r0, r0, #1
    10e8:	f3bf 8f4f 	dsb	sy
    10ec:	ee01 0f10 	mcr	15, 0, r0, cr1, cr0, {0}
    10f0:	f3bf 8f6f 	isb	sy
    10f4:	ee11 0f10 	mrc	15, 0, r0, cr1, cr0, {0}
    10f8:	f420 3000 	bic.w	r0, r0, #131072	; 0x20000
    10fc:	ee01 0f10 	mcr	15, 0, r0, cr1, cr0, {0}
    1100:	f04f 0000 	mov.w	r0, #0
    1104:	ee06 0f12 	mcr	15, 0, r0, cr6, cr2, {0}
    1108:	4847      	ldr	r0, [pc, #284]	; (1228 <r1Base>)
    110a:	ee06 0f11 	mcr	15, 0, r0, cr6, cr1, {0}
    110e:	f04f 0008 	mov.w	r0, #8
    1112:	f440 5080 	orr.w	r0, r0, #4096	; 0x1000
    1116:	ee06 0f91 	mcr	15, 0, r0, cr6, cr1, {4}
    111a:	f64f 703f 	movw	r0, #65343	; 0xff3f
    111e:	ee06 0f51 	mcr	15, 0, r0, cr6, cr1, {2}
    1122:	f04f 0001 	mov.w	r0, #1
    1126:	ee06 0f12 	mcr	15, 0, r0, cr6, cr2, {0}
    112a:	4840      	ldr	r0, [pc, #256]	; (122c <r2Base>)
    112c:	ee06 0f11 	mcr	15, 0, r0, cr6, cr1, {0}
    1130:	f04f 0002 	mov.w	r0, #2
    1134:	f440 60c0 	orr.w	r0, r0, #1536	; 0x600
    1138:	ee06 0f91 	mcr	15, 0, r0, cr6, cr1, {4}
    113c:	f240 002b 	movw	r0, #43	; 0x2b
    1140:	ee06 0f51 	mcr	15, 0, r0, cr6, cr1, {2}
    1144:	f04f 0002 	mov.w	r0, #2
    1148:	ee06 0f12 	mcr	15, 0, r0, cr6, cr2, {0}
    114c:	4838      	ldr	r0, [pc, #224]	; (1230 <r3Base>)
    114e:	ee06 0f11 	mcr	15, 0, r0, cr6, cr1, {0}
    1152:	f04f 000b 	mov.w	r0, #11
    1156:	f440 5098 	orr.w	r0, r0, #4864	; 0x1300
    115a:	ee06 0f91 	mcr	15, 0, r0, cr6, cr1, {4}
    115e:	f240 0025 	movw	r0, #37	; 0x25
    1162:	ee06 0f51 	mcr	15, 0, r0, cr6, cr1, {2}
    1166:	f04f 0003 	mov.w	r0, #3
    116a:	ee06 0f12 	mcr	15, 0, r0, cr6, cr2, {0}
    116e:	4831      	ldr	r0, [pc, #196]	; (1234 <r4Base>)
    1170:	ee06 0f11 	mcr	15, 0, r0, cr6, cr1, {0}
    1174:	f04f 0010 	mov.w	r0, #16
    1178:	f440 5098 	orr.w	r0, r0, #4864	; 0x1300
    117c:	ee06 0f91 	mcr	15, 0, r0, cr6, cr1, {4}
    1180:	f240 7035 	movw	r0, #1845	; 0x735
    1184:	ee06 0f51 	mcr	15, 0, r0, cr6, cr1, {2}
    1188:	f04f 0004 	mov.w	r0, #4
    118c:	ee06 0f12 	mcr	15, 0, r0, cr6, cr2, {0}
    1190:	4829      	ldr	r0, [pc, #164]	; (1238 <r5Base>)
    1192:	ee06 0f11 	mcr	15, 0, r0, cr6, cr1, {0}
    1196:	f04f 0000 	mov.w	r0, #0
    119a:	f440 5098 	orr.w	r0, r0, #4864	; 0x1300
    119e:	ee06 0f91 	mcr	15, 0, r0, cr6, cr1, {4}
    11a2:	f24c 0037 	movw	r0, #49207	; 0xc037
    11a6:	ee06 0f51 	mcr	15, 0, r0, cr6, cr1, {2}
    11aa:	f04f 0005 	mov.w	r0, #5
    11ae:	ee06 0f12 	mcr	15, 0, r0, cr6, cr2, {0}
    11b2:	4822      	ldr	r0, [pc, #136]	; (123c <r6Base>)
    11b4:	ee06 0f11 	mcr	15, 0, r0, cr6, cr1, {0}
    11b8:	f04f 0006 	mov.w	r0, #6
    11bc:	f440 5098 	orr.w	r0, r0, #4864	; 0x1300
    11c0:	ee06 0f91 	mcr	15, 0, r0, cr6, cr1, {4}
    11c4:	f240 0035 	movw	r0, #53	; 0x35
    11c8:	ee06 0f51 	mcr	15, 0, r0, cr6, cr1, {2}
    11cc:	f04f 0006 	mov.w	r0, #6
    11d0:	ee06 0f12 	mcr	15, 0, r0, cr6, cr2, {0}
    11d4:	481a      	ldr	r0, [pc, #104]	; (1240 <r7Base>)
    11d6:	ee06 0f11 	mcr	15, 0, r0, cr6, cr1, {0}
    11da:	f04f 0002 	mov.w	r0, #2
    11de:	f440 5090 	orr.w	r0, r0, #4608	; 0x1200
    11e2:	ee06 0f91 	mcr	15, 0, r0, cr6, cr1, {4}
    11e6:	f240 002d 	movw	r0, #45	; 0x2d
    11ea:	ee06 0f51 	mcr	15, 0, r0, cr6, cr1, {2}
    11ee:	f04f 000f 	mov.w	r0, #15
    11f2:	ee06 0f12 	mcr	15, 0, r0, cr6, cr2, {0}
    11f6:	4813      	ldr	r0, [pc, #76]	; (1244 <r16Base>)
    11f8:	ee06 0f11 	mcr	15, 0, r0, cr6, cr1, {0}
    11fc:	f04f 0010 	mov.w	r0, #16
    1200:	f440 5090 	orr.w	r0, r0, #4608	; 0x1200
    1204:	ee06 0f91 	mcr	15, 0, r0, cr6, cr1, {4}
    1208:	f240 0025 	movw	r0, #37	; 0x25
    120c:	ee06 0f51 	mcr	15, 0, r0, cr6, cr1, {2}
    1210:	ee11 0f10 	mrc	15, 0, r0, cr1, cr0, {0}
    1214:	f040 0001 	orr.w	r0, r0, #1
    1218:	f3bf 8f4f 	dsb	sy
    121c:	ee01 0f10 	mcr	15, 0, r0, cr1, cr0, {0}
    1220:	f3bf 8f6f 	isb	sy
    1224:	bc01      	pop	{r0}
    1226:	4770      	bx	lr

00001228 <r1Base>:
    1228:	00000000 	.word	0x00000000

0000122c <r2Base>:
    122c:	00000000 	.word	0x00000000

00001230 <r3Base>:
    1230:	08000000 	.word	0x08000000

00001234 <r4Base>:
    1234:	f8000000 	.word	0xf8000000

00001238 <r5Base>:
    1238:	60000000 	.word	0x60000000

0000123c <r6Base>:
    123c:	80000000 	.word	0x80000000

00001240 <r7Base>:
    1240:	f0000000 	.word	0xf0000000

00001244 <r16Base>:
    1244:	fff80000 	.word	0xfff80000

00001248 <_mpuEnable_>:
    1248:	f84d 0d04 	str.w	r0, [sp, #-4]!
    124c:	ee11 0f10 	mrc	15, 0, r0, cr1, cr0, {0}
    1250:	f040 0001 	orr.w	r0, r0, #1
    1254:	f3bf 8f4f 	dsb	sy
    1258:	ee01 0f10 	mcr	15, 0, r0, cr1, cr0, {0}
    125c:	f3bf 8f6f 	isb	sy
    1260:	bc01      	pop	{r0}
    1262:	4770      	bx	lr

00001264 <_mpuDisable_>:
    1264:	f84d 0d04 	str.w	r0, [sp, #-4]!
    1268:	ee11 0f10 	mrc	15, 0, r0, cr1, cr0, {0}
    126c:	f020 0001 	bic.w	r0, r0, #1
    1270:	f3bf 8f4f 	dsb	sy
    1274:	ee01 0f10 	mcr	15, 0, r0, cr1, cr0, {0}
    1278:	f3bf 8f6f 	isb	sy
    127c:	bc01      	pop	{r0}
    127e:	4770      	bx	lr

00001280 <_mpuEnableBackgroundRegion_>:
    1280:	f84d 0d04 	str.w	r0, [sp, #-4]!
    1284:	ee11 0f10 	mrc	15, 0, r0, cr1, cr0, {0}
    1288:	f440 3000 	orr.w	r0, r0, #131072	; 0x20000
    128c:	ee01 0f10 	mcr	15, 0, r0, cr1, cr0, {0}
    1290:	bc01      	pop	{r0}
    1292:	4770      	bx	lr

00001294 <_mpuDisableBackgroundRegion_>:
    1294:	f84d 0d04 	str.w	r0, [sp, #-4]!
    1298:	ee11 0f10 	mrc	15, 0, r0, cr1, cr0, {0}
    129c:	f420 3000 	bic.w	r0, r0, #131072	; 0x20000
    12a0:	ee01 0f10 	mcr	15, 0, r0, cr1, cr0, {0}
    12a4:	bc01      	pop	{r0}
    12a6:	4770      	bx	lr

000012a8 <_mpuGetNumberOfRegions_>:
    12a8:	ee10 0f90 	mrc	15, 0, r0, cr0, cr0, {4}
    12ac:	fa5f f090 	uxtb.w	r0, r0, ror #8
    12b0:	4770      	bx	lr

000012b2 <_mpuAreRegionsSeparate_>:
    12b2:	ee10 0f90 	mrc	15, 0, r0, cr0, cr0, {4}
    12b6:	b2c0      	uxtb	r0, r0
    12b8:	4770      	bx	lr

000012ba <_mpuSetRegion_>:
    12ba:	ee06 0f12 	mcr	15, 0, r0, cr6, cr2, {0}
    12be:	4770      	bx	lr

000012c0 <_mpuGetRegion_>:
    12c0:	ee16 0f12 	mrc	15, 0, r0, cr6, cr2, {0}
    12c4:	4770      	bx	lr

000012c6 <_mpuSetRegionBaseAddress_>:
    12c6:	ee06 0f11 	mcr	15, 0, r0, cr6, cr1, {0}
    12ca:	4770      	bx	lr

000012cc <_mpuGetRegionBaseAddress_>:
    12cc:	ee16 0f11 	mrc	15, 0, r0, cr6, cr1, {0}
    12d0:	4770      	bx	lr

000012d2 <_mpuSetRegionTypeAndPermission_>:
    12d2:	ea40 0001 	orr.w	r0, r0, r1
    12d6:	ee06 0f91 	mcr	15, 0, r0, cr6, cr1, {4}
    12da:	4770      	bx	lr

000012dc <_mpuGetRegionType_>:
    12dc:	ee16 0f91 	mrc	15, 0, r0, cr6, cr1, {4}
    12e0:	f420 407f 	bic.w	r0, r0, #65280	; 0xff00
    12e4:	4770      	bx	lr

000012e6 <_mpuGetRegionPermission_>:
    12e6:	ee16 0f91 	mrc	15, 0, r0, cr6, cr1, {4}
    12ea:	f020 00ff 	bic.w	r0, r0, #255	; 0xff
    12ee:	4770      	bx	lr

000012f0 <_mpuSetRegionSizeRegister_>:
    12f0:	ee06 0f51 	mcr	15, 0, r0, cr6, cr1, {2}
    12f4:	4770      	bx	lr
	...

000012f8 <_coreInitRegisters_>:
    12f8:	e1a0000e 	mov	r0, lr
    12fc:	e3a01000 	mov	r1, #0
    1300:	e3a02000 	mov	r2, #0
    1304:	e3a03000 	mov	r3, #0
    1308:	e3a04000 	mov	r4, #0
    130c:	e3a05000 	mov	r5, #0
    1310:	e3a06000 	mov	r6, #0
    1314:	e3a07000 	mov	r7, #0
    1318:	e3a08000 	mov	r8, #0
    131c:	e3a09000 	mov	r9, #0
    1320:	e3a0a000 	mov	sl, #0
    1324:	e3a0b000 	mov	fp, #0
    1328:	e3a0c000 	mov	ip, #0
    132c:	e3a0d000 	mov	sp, #0
    1330:	e10f1000 	mrs	r1, CPSR
    1334:	e16ff001 	msr	SPSR_fsxc, r1
    1338:	f1020011 	cps	#17
    133c:	e1a0e000 	mov	lr, r0
    1340:	e3a08000 	mov	r8, #0
    1344:	e3a09000 	mov	r9, #0
    1348:	e3a0a000 	mov	sl, #0
    134c:	e3a0b000 	mov	fp, #0
    1350:	e3a0c000 	mov	ip, #0
    1354:	e10f1000 	mrs	r1, CPSR
    1358:	e16ff001 	msr	SPSR_fsxc, r1
    135c:	f1020012 	cps	#18
    1360:	e1a0e000 	mov	lr, r0
    1364:	e10f1000 	mrs	r1, CPSR
    1368:	e16ff001 	msr	SPSR_fsxc, r1
    136c:	f1020017 	cps	#23
    1370:	e1a0e000 	mov	lr, r0
    1374:	e10f1000 	mrs	r1, CPSR
    1378:	e16ff001 	msr	SPSR_fsxc, r1
    137c:	f102001b 	cps	#27
    1380:	e1a0e000 	mov	lr, r0
    1384:	e10f1000 	mrs	r1, CPSR
    1388:	e16ff001 	msr	SPSR_fsxc, r1
    138c:	f102001f 	cps	#31
    1390:	e1a0e000 	mov	lr, r0
    1394:	e10f1000 	mrs	r1, CPSR
    1398:	e16ff001 	msr	SPSR_fsxc, r1
    139c:	ee112f50 	mrc	15, 0, r2, cr1, cr0, {2}
    13a0:	e382260f 	orr	r2, r2, #15728640	; 0xf00000
    13a4:	ee012f50 	mcr	15, 0, r2, cr1, cr0, {2}
    13a8:	e3a02101 	mov	r2, #1073741824	; 0x40000000
    13ac:	eee82a10 	vmsr	fpexc, r2
    13b0:	ec411b10 	vmov	d0, r1, r1
    13b4:	ec411b11 	vmov	d1, r1, r1
    13b8:	ec411b12 	vmov	d2, r1, r1
    13bc:	ec411b13 	vmov	d3, r1, r1
    13c0:	ec411b14 	vmov	d4, r1, r1
    13c4:	ec411b15 	vmov	d5, r1, r1
    13c8:	ec411b16 	vmov	d6, r1, r1
    13cc:	ec411b17 	vmov	d7, r1, r1
    13d0:	ec411b18 	vmov	d8, r1, r1
    13d4:	ec411b19 	vmov	d9, r1, r1
    13d8:	ec411b1a 	vmov	d10, r1, r1
    13dc:	ec411b1b 	vmov	d11, r1, r1
    13e0:	ec411b1c 	vmov	d12, r1, r1
    13e4:	ec411b1d 	vmov	d13, r1, r1
    13e8:	ec411b1e 	vmov	d14, r1, r1
    13ec:	ec411b1f 	vmov	d15, r1, r1
    13f0:	ebffffff 	bl	13f4 <next1>

000013f4 <next1>:
    13f4:	ebffffff 	bl	13f8 <next2>

000013f8 <next2>:
    13f8:	ebffffff 	bl	13fc <next3>

000013fc <next3>:
    13fc:	ebffffff 	bl	1400 <next4>

00001400 <next4>:
    1400:	e12fff10 	bx	r0

00001404 <_coreInitStackPointer_>:
    1404:	f1020011 	cps	#17
    1408:	e59fd030 	ldr	sp, [pc, #48]	; 1440 <fiqSp>
    140c:	f1020012 	cps	#18
    1410:	e59fd02c 	ldr	sp, [pc, #44]	; 1444 <irqSp>
    1414:	f1020013 	cps	#19
    1418:	e59fd01c 	ldr	sp, [pc, #28]	; 143c <svcSp>
    141c:	f1020017 	cps	#23
    1420:	e59fd020 	ldr	sp, [pc, #32]	; 1448 <abortSp>
    1424:	f102001b 	cps	#27
    1428:	e59fd01c 	ldr	sp, [pc, #28]	; 144c <undefSp>
    142c:	f102001f 	cps	#31
    1430:	e59fd000 	ldr	sp, [pc]	; 1438 <userSp>
    1434:	e12fff1e 	bx	lr

00001438 <userSp>:
    1438:	080092f0 	.word	0x080092f0

0000143c <svcSp>:
    143c:	080093f0 	.word	0x080093f0

00001440 <fiqSp>:
    1440:	080094f0 	.word	0x080094f0

00001444 <irqSp>:
    1444:	080095f0 	.word	0x080095f0

00001448 <abortSp>:
    1448:	080096f0 	.word	0x080096f0

0000144c <undefSp>:
    144c:	080097f0 	.word	0x080097f0
    1450:	eafffffe 	b	1450 <undefSp+0x4>
    1454:	eafffffe 	b	1454 <undefSp+0x8>
    1458:	eafffffe 	b	1458 <undefSp+0xc>
    145c:	eafffffe 	b	145c <undefSp+0x10>
    1460:	00001089 	.word	0x00001089

00001464 <read_sleb128>:
    1464:	b430      	push	{r4, r5}
    1466:	2500      	movs	r5, #0
    1468:	462a      	mov	r2, r5
    146a:	f810 4b01 	ldrb.w	r4, [r0], #1
    146e:	f004 037f 	and.w	r3, r4, #127	; 0x7f
    1472:	4093      	lsls	r3, r2
    1474:	431d      	orrs	r5, r3
    1476:	0623      	lsls	r3, r4, #24
    1478:	f102 0207 	add.w	r2, r2, #7
    147c:	d4f5      	bmi.n	146a <read_sleb128+0x6>
    147e:	2a1f      	cmp	r2, #31
    1480:	d805      	bhi.n	148e <read_sleb128+0x2a>
    1482:	0663      	lsls	r3, r4, #25
    1484:	bf42      	ittt	mi
    1486:	f04f 33ff 	movmi.w	r3, #4294967295
    148a:	4093      	lslmi	r3, r2
    148c:	431d      	orrmi	r5, r3
    148e:	600d      	str	r5, [r1, #0]
    1490:	bc30      	pop	{r4, r5}
    1492:	4770      	bx	lr

00001494 <read_encoded_value_with_base>:
    1494:	2850      	cmp	r0, #80	; 0x50
    1496:	e92d 41f0 	stmdb	sp!, {r4, r5, r6, r7, r8, lr}
    149a:	4606      	mov	r6, r0
    149c:	b084      	sub	sp, #16
    149e:	d048      	beq.n	1532 <read_encoded_value_with_base+0x9e>
    14a0:	4688      	mov	r8, r1
    14a2:	f000 010f 	and.w	r1, r0, #15
    14a6:	290c      	cmp	r1, #12
    14a8:	d841      	bhi.n	152e <read_encoded_value_with_base+0x9a>
    14aa:	e8df f001 	tbb	[pc, r1]
    14ae:	2c07      	.short	0x2c07
    14b0:	4019073c 	.word	0x4019073c
    14b4:	21404040 	.word	0x21404040
    14b8:	071d      	.short	0x071d
    14ba:	19          	.byte	0x19
    14bb:	00          	.byte	0x00
    14bc:	4615      	mov	r5, r2
    14be:	f855 4b04 	ldr.w	r4, [r5], #4
    14c2:	b144      	cbz	r4, 14d6 <read_encoded_value_with_base+0x42>
    14c4:	f006 0070 	and.w	r0, r6, #112	; 0x70
    14c8:	2810      	cmp	r0, #16
    14ca:	bf18      	it	ne
    14cc:	4642      	movne	r2, r8
    14ce:	4414      	add	r4, r2
    14d0:	0632      	lsls	r2, r6, #24
    14d2:	bf48      	it	mi
    14d4:	6824      	ldrmi	r4, [r4, #0]
    14d6:	4628      	mov	r0, r5
    14d8:	601c      	str	r4, [r3, #0]
    14da:	b004      	add	sp, #16
    14dc:	e8bd 81f0 	ldmia.w	sp!, {r4, r5, r6, r7, r8, pc}
    14e0:	4615      	mov	r5, r2
    14e2:	f855 4b08 	ldr.w	r4, [r5], #8
    14e6:	e7ec      	b.n	14c2 <read_encoded_value_with_base+0x2e>
    14e8:	4615      	mov	r5, r2
    14ea:	f935 4b02 	ldrsh.w	r4, [r5], #2
    14ee:	e7e8      	b.n	14c2 <read_encoded_value_with_base+0x2e>
    14f0:	4610      	mov	r0, r2
    14f2:	a903      	add	r1, sp, #12
    14f4:	9301      	str	r3, [sp, #4]
    14f6:	9200      	str	r2, [sp, #0]
    14f8:	f7ff ffb4 	bl	1464 <read_sleb128>
    14fc:	9c03      	ldr	r4, [sp, #12]
    14fe:	e89d 000c 	ldmia.w	sp, {r2, r3}
    1502:	4605      	mov	r5, r0
    1504:	e7dd      	b.n	14c2 <read_encoded_value_with_base+0x2e>
    1506:	2400      	movs	r4, #0
    1508:	4615      	mov	r5, r2
    150a:	46a6      	mov	lr, r4
    150c:	f815 1b01 	ldrb.w	r1, [r5], #1
    1510:	f001 077f 	and.w	r7, r1, #127	; 0x7f
    1514:	0609      	lsls	r1, r1, #24
    1516:	fa07 f70e 	lsl.w	r7, r7, lr
    151a:	ea44 0407 	orr.w	r4, r4, r7
    151e:	f10e 0e07 	add.w	lr, lr, #7
    1522:	d4f3      	bmi.n	150c <read_encoded_value_with_base+0x78>
    1524:	e7cd      	b.n	14c2 <read_encoded_value_with_base+0x2e>
    1526:	4615      	mov	r5, r2
    1528:	f835 4b02 	ldrh.w	r4, [r5], #2
    152c:	e7c9      	b.n	14c2 <read_encoded_value_with_base+0x2e>
    152e:	f006 fc6f 	bl	7e10 <abort>
    1532:	1cd5      	adds	r5, r2, #3
    1534:	f025 0503 	bic.w	r5, r5, #3
    1538:	f855 4b04 	ldr.w	r4, [r5], #4
    153c:	4628      	mov	r0, r5
    153e:	601c      	str	r4, [r3, #0]
    1540:	b004      	add	sp, #16
    1542:	e8bd 81f0 	ldmia.w	sp!, {r4, r5, r6, r7, r8, pc}
    1546:	bf00      	nop

00001548 <base_of_encoded_value>:
    1548:	28ff      	cmp	r0, #255	; 0xff
    154a:	d015      	beq.n	1578 <_bss_words+0x2>
    154c:	b508      	push	{r3, lr}
    154e:	f000 0370 	and.w	r3, r0, #112	; 0x70
    1552:	2b20      	cmp	r3, #32
    1554:	d012      	beq.n	157c <_bss_words+0x6>
    1556:	d90a      	bls.n	156e <base_of_encoded_value+0x26>
    1558:	2b40      	cmp	r3, #64	; 0x40
    155a:	d014      	beq.n	1586 <_bss_words+0x10>
    155c:	2b50      	cmp	r3, #80	; 0x50
    155e:	d017      	beq.n	1590 <_bss_words+0x1a>
    1560:	2b30      	cmp	r3, #48	; 0x30
    1562:	d107      	bne.n	1574 <base_of_encoded_value+0x2c>
    1564:	4608      	mov	r0, r1
    1566:	e8bd 4008 	ldmia.w	sp!, {r3, lr}
    156a:	f009 b857 	b.w	a61c <_Unwind_GetDataRelBase>
    156e:	b17b      	cbz	r3, 1590 <_bss_words+0x1a>
    1570:	2b10      	cmp	r3, #16
    1572:	d00d      	beq.n	1590 <_bss_words+0x1a>
    1574:	f006 fc4c 	bl	7e10 <abort>
    1578:	2000      	movs	r0, #0
    157a:	4770      	bx	lr
    157c:	4608      	mov	r0, r1
    157e:	e8bd 4008 	ldmia.w	sp!, {r3, lr}
    1582:	f009 b84f 	b.w	a624 <_Unwind_GetTextRelBase>
    1586:	4608      	mov	r0, r1
    1588:	e8bd 4008 	ldmia.w	sp!, {r3, lr}
    158c:	f009 b836 	b.w	a5fc <_Unwind_GetRegionStart>
    1590:	2000      	movs	r0, #0
    1592:	bd08      	pop	{r3, pc}

00001594 <__gnat_personality_v0>:
    1594:	f000 0303 	and.w	r3, r0, #3
    1598:	2b01      	cmp	r3, #1
    159a:	e92d 4ff0 	stmdb	sp!, {r4, r5, r6, r7, r8, r9, sl, fp, lr}
    159e:	4604      	mov	r4, r0
    15a0:	b093      	sub	sp, #76	; 0x4c
    15a2:	4689      	mov	r9, r1
    15a4:	4690      	mov	r8, r2
    15a6:	f000 80d7 	beq.w	1758 <__gnat_personality_v0+0x1c4>
    15aa:	d310      	bcc.n	15ce <__gnat_personality_v0+0x3a>
    15ac:	2b02      	cmp	r3, #2
    15ae:	d003      	beq.n	15b8 <__gnat_personality_v0+0x24>
    15b0:	2009      	movs	r0, #9
    15b2:	b013      	add	sp, #76	; 0x4c
    15b4:	e8bd 8ff0 	ldmia.w	sp!, {r4, r5, r6, r7, r8, r9, sl, fp, pc}
    15b8:	4608      	mov	r0, r1
    15ba:	4611      	mov	r1, r2
    15bc:	f009 f808 	bl	a5d0 <__gnu_unwind_frame>
    15c0:	2800      	cmp	r0, #0
    15c2:	bf14      	ite	ne
    15c4:	2009      	movne	r0, #9
    15c6:	2008      	moveq	r0, #8
    15c8:	b013      	add	sp, #76	; 0x4c
    15ca:	e8bd 8ff0 	ldmia.w	sp!, {r4, r5, r6, r7, r8, r9, sl, fp, pc}
    15ce:	2501      	movs	r5, #1
    15d0:	ae12      	add	r6, sp, #72	; 0x48
    15d2:	2100      	movs	r1, #0
    15d4:	4640      	mov	r0, r8
    15d6:	f846 9d34 	str.w	r9, [r6, #-52]!
    15da:	460b      	mov	r3, r1
    15dc:	220c      	movs	r2, #12
    15de:	9600      	str	r6, [sp, #0]
    15e0:	f008 fa1e 	bl	9a20 <_Unwind_VRS_Set>
    15e4:	f1b8 0f00 	cmp.w	r8, #0
    15e8:	f000 80b8 	beq.w	175c <__gnat_personality_v0+0x1c8>
    15ec:	4640      	mov	r0, r8
    15ee:	f009 f80b 	bl	a608 <_Unwind_GetLanguageSpecificData>
    15f2:	4606      	mov	r6, r0
    15f4:	900a      	str	r0, [sp, #40]	; 0x28
    15f6:	2800      	cmp	r0, #0
    15f8:	f000 80a3 	beq.w	1742 <__gnat_personality_v0+0x1ae>
    15fc:	4640      	mov	r0, r8
    15fe:	f106 0a01 	add.w	sl, r6, #1
    1602:	f008 fffb 	bl	a5fc <_Unwind_GetRegionStart>
    1606:	9009      	str	r0, [sp, #36]	; 0x24
    1608:	7836      	ldrb	r6, [r6, #0]
    160a:	2eff      	cmp	r6, #255	; 0xff
    160c:	bf08      	it	eq
    160e:	900d      	streq	r0, [sp, #52]	; 0x34
    1610:	d00a      	beq.n	1628 <__gnat_personality_v0+0x94>
    1612:	4641      	mov	r1, r8
    1614:	4630      	mov	r0, r6
    1616:	f7ff ff97 	bl	1548 <base_of_encoded_value>
    161a:	4652      	mov	r2, sl
    161c:	ab0d      	add	r3, sp, #52	; 0x34
    161e:	4601      	mov	r1, r0
    1620:	4630      	mov	r0, r6
    1622:	f7ff ff37 	bl	1494 <read_encoded_value_with_base>
    1626:	4682      	mov	sl, r0
    1628:	f89a 0000 	ldrb.w	r0, [sl]
    162c:	28ff      	cmp	r0, #255	; 0xff
    162e:	f10a 0a01 	add.w	sl, sl, #1
    1632:	f88d 003c 	strb.w	r0, [sp, #60]	; 0x3c
    1636:	f000 8107 	beq.w	1848 <__gnat_personality_v0+0x2b4>
    163a:	2600      	movs	r6, #0
    163c:	4632      	mov	r2, r6
    163e:	f81a 1b01 	ldrb.w	r1, [sl], #1
    1642:	f001 037f 	and.w	r3, r1, #127	; 0x7f
    1646:	060f      	lsls	r7, r1, #24
    1648:	fa03 f302 	lsl.w	r3, r3, r2
    164c:	ea46 0603 	orr.w	r6, r6, r3
    1650:	f102 0207 	add.w	r2, r2, #7
    1654:	d4f3      	bmi.n	163e <__gnat_personality_v0+0xaa>
    1656:	4456      	add	r6, sl
    1658:	9610      	str	r6, [sp, #64]	; 0x40
    165a:	4641      	mov	r1, r8
    165c:	2600      	movs	r6, #0
    165e:	f7ff ff73 	bl	1548 <base_of_encoded_value>
    1662:	f10a 0701 	add.w	r7, sl, #1
    1666:	4632      	mov	r2, r6
    1668:	9011      	str	r0, [sp, #68]	; 0x44
    166a:	f89a 3000 	ldrb.w	r3, [sl]
    166e:	f88d 302c 	strb.w	r3, [sp, #44]	; 0x2c
    1672:	f817 1b01 	ldrb.w	r1, [r7], #1
    1676:	f001 037f 	and.w	r3, r1, #127	; 0x7f
    167a:	0609      	lsls	r1, r1, #24
    167c:	fa03 f302 	lsl.w	r3, r3, r2
    1680:	ea46 0603 	orr.w	r6, r6, r3
    1684:	f102 0207 	add.w	r2, r2, #7
    1688:	d4f3      	bmi.n	1672 <__gnat_personality_v0+0xde>
    168a:	9b0a      	ldr	r3, [sp, #40]	; 0x28
    168c:	443e      	add	r6, r7
    168e:	970c      	str	r7, [sp, #48]	; 0x30
    1690:	960e      	str	r6, [sp, #56]	; 0x38
    1692:	2b00      	cmp	r3, #0
    1694:	d055      	beq.n	1742 <__gnat_personality_v0+0x1ae>
    1696:	ab08      	add	r3, sp, #32
    1698:	2100      	movs	r1, #0
    169a:	f004 0408 	and.w	r4, r4, #8
    169e:	9300      	str	r3, [sp, #0]
    16a0:	220f      	movs	r2, #15
    16a2:	460b      	mov	r3, r1
    16a4:	4640      	mov	r0, r8
    16a6:	f008 f991 	bl	99cc <_Unwind_VRS_Get>
    16aa:	ea45 0704 	orr.w	r7, r5, r4
    16ae:	9a0e      	ldr	r2, [sp, #56]	; 0x38
    16b0:	9c0c      	ldr	r4, [sp, #48]	; 0x30
    16b2:	9b08      	ldr	r3, [sp, #32]
    16b4:	4294      	cmp	r4, r2
    16b6:	f023 0301 	bic.w	r3, r3, #1
    16ba:	f103 3aff 	add.w	sl, r3, #4294967295
    16be:	d240      	bcs.n	1742 <__gnat_personality_v0+0x1ae>
    16c0:	f89d 502c 	ldrb.w	r5, [sp, #44]	; 0x2c
    16c4:	2100      	movs	r1, #0
    16c6:	4628      	mov	r0, r5
    16c8:	2600      	movs	r6, #0
    16ca:	f7ff ff3d 	bl	1548 <base_of_encoded_value>
    16ce:	4622      	mov	r2, r4
    16d0:	ab06      	add	r3, sp, #24
    16d2:	4601      	mov	r1, r0
    16d4:	4628      	mov	r0, r5
    16d6:	f7ff fedd 	bl	1494 <read_encoded_value_with_base>
    16da:	f89d 402c 	ldrb.w	r4, [sp, #44]	; 0x2c
    16de:	2100      	movs	r1, #0
    16e0:	4605      	mov	r5, r0
    16e2:	4620      	mov	r0, r4
    16e4:	f7ff ff30 	bl	1548 <base_of_encoded_value>
    16e8:	462a      	mov	r2, r5
    16ea:	ab07      	add	r3, sp, #28
    16ec:	4601      	mov	r1, r0
    16ee:	4620      	mov	r0, r4
    16f0:	f7ff fed0 	bl	1494 <read_encoded_value_with_base>
    16f4:	f89d 402c 	ldrb.w	r4, [sp, #44]	; 0x2c
    16f8:	2100      	movs	r1, #0
    16fa:	4605      	mov	r5, r0
    16fc:	4620      	mov	r0, r4
    16fe:	f7ff ff23 	bl	1548 <base_of_encoded_value>
    1702:	462a      	mov	r2, r5
    1704:	ab08      	add	r3, sp, #32
    1706:	4601      	mov	r1, r0
    1708:	4620      	mov	r0, r4
    170a:	f7ff fec3 	bl	1494 <read_encoded_value_with_base>
    170e:	4634      	mov	r4, r6
    1710:	f810 5b01 	ldrb.w	r5, [r0], #1
    1714:	f005 037f 	and.w	r3, r5, #127	; 0x7f
    1718:	062a      	lsls	r2, r5, #24
    171a:	fa03 f304 	lsl.w	r3, r3, r4
    171e:	ea46 0603 	orr.w	r6, r6, r3
    1722:	f104 0407 	add.w	r4, r4, #7
    1726:	d4f3      	bmi.n	1710 <__gnat_personality_v0+0x17c>
    1728:	9b06      	ldr	r3, [sp, #24]
    172a:	4604      	mov	r4, r0
    172c:	9a09      	ldr	r2, [sp, #36]	; 0x24
    172e:	4413      	add	r3, r2
    1730:	459a      	cmp	sl, r3
    1732:	d306      	bcc.n	1742 <__gnat_personality_v0+0x1ae>
    1734:	9a07      	ldr	r2, [sp, #28]
    1736:	4413      	add	r3, r2
    1738:	459a      	cmp	sl, r3
    173a:	d312      	bcc.n	1762 <__gnat_personality_v0+0x1ce>
    173c:	9b0e      	ldr	r3, [sp, #56]	; 0x38
    173e:	4283      	cmp	r3, r0
    1740:	d8be      	bhi.n	16c0 <__gnat_personality_v0+0x12c>
    1742:	4648      	mov	r0, r9
    1744:	4641      	mov	r1, r8
    1746:	f008 ff43 	bl	a5d0 <__gnu_unwind_frame>
    174a:	2800      	cmp	r0, #0
    174c:	f47f af30 	bne.w	15b0 <__gnat_personality_v0+0x1c>
    1750:	2008      	movs	r0, #8
    1752:	b013      	add	sp, #76	; 0x4c
    1754:	e8bd 8ff0 	ldmia.w	sp!, {r4, r5, r6, r7, r8, r9, sl, fp, pc}
    1758:	2502      	movs	r5, #2
    175a:	e739      	b.n	15d0 <__gnat_personality_v0+0x3c>
    175c:	f8cd 8028 	str.w	r8, [sp, #40]	; 0x28
    1760:	e7ef      	b.n	1742 <__gnat_personality_v0+0x1ae>
    1762:	9b08      	ldr	r3, [sp, #32]
    1764:	bb43      	cbnz	r3, 17b8 <__gnat_personality_v0+0x224>
    1766:	2e00      	cmp	r6, #0
    1768:	d0eb      	beq.n	1742 <__gnat_personality_v0+0x1ae>
    176a:	9303      	str	r3, [sp, #12]
    176c:	9b03      	ldr	r3, [sp, #12]
    176e:	3e01      	subs	r6, #1
    1770:	980e      	ldr	r0, [sp, #56]	; 0x38
    1772:	4430      	add	r0, r6
    1774:	2b00      	cmp	r3, #0
    1776:	d0e4      	beq.n	1742 <__gnat_personality_v0+0x1ae>
    1778:	b330      	cbz	r0, 17c8 <__gnat_personality_v0+0x234>
    177a:	f64c 56f1 	movw	r6, #52721	; 0xcdf1
    177e:	f64c 5bf0 	movw	fp, #52720	; 0xcdf0
    1782:	f2c0 0600 	movt	r6, #0
    1786:	f2c0 0b00 	movt	fp, #0
    178a:	2501      	movs	r5, #1
    178c:	e008      	b.n	17a0 <__gnat_personality_v0+0x20c>
    178e:	dd02      	ble.n	1796 <__gnat_personality_v0+0x202>
    1790:	f017 0208 	ands.w	r2, r7, #8
    1794:	d04b      	beq.n	182e <__gnat_personality_v0+0x29a>
    1796:	9807      	ldr	r0, [sp, #28]
    1798:	2800      	cmp	r0, #0
    179a:	f000 80c7 	beq.w	192c <__gnat_personality_v0+0x398>
    179e:	4420      	add	r0, r4
    17a0:	a906      	add	r1, sp, #24
    17a2:	f7ff fe5f 	bl	1464 <read_sleb128>
    17a6:	a907      	add	r1, sp, #28
    17a8:	4604      	mov	r4, r0
    17aa:	f7ff fe5b 	bl	1464 <read_sleb128>
    17ae:	9b06      	ldr	r3, [sp, #24]
    17b0:	2b00      	cmp	r3, #0
    17b2:	d1ec      	bne.n	178e <__gnat_personality_v0+0x1fa>
    17b4:	2502      	movs	r5, #2
    17b6:	e7ee      	b.n	1796 <__gnat_personality_v0+0x202>
    17b8:	9a0d      	ldr	r2, [sp, #52]	; 0x34
    17ba:	4413      	add	r3, r2
    17bc:	9303      	str	r3, [sp, #12]
    17be:	2e00      	cmp	r6, #0
    17c0:	d1d4      	bne.n	176c <__gnat_personality_v0+0x1d8>
    17c2:	9b03      	ldr	r3, [sp, #12]
    17c4:	2b00      	cmp	r3, #0
    17c6:	d0bc      	beq.n	1742 <__gnat_personality_v0+0x1ae>
    17c8:	f017 0001 	ands.w	r0, r7, #1
    17cc:	bf08      	it	eq
    17ce:	4604      	moveq	r4, r0
    17d0:	d1b7      	bne.n	1742 <__gnat_personality_v0+0x1ae>
    17d2:	ab08      	add	r3, sp, #32
    17d4:	2100      	movs	r1, #0
    17d6:	4640      	mov	r0, r8
    17d8:	460a      	mov	r2, r1
    17da:	9300      	str	r3, [sp, #0]
    17dc:	460b      	mov	r3, r1
    17de:	f8cd 9020 	str.w	r9, [sp, #32]
    17e2:	f008 f91d 	bl	9a20 <_Unwind_VRS_Set>
    17e6:	ab07      	add	r3, sp, #28
    17e8:	2100      	movs	r1, #0
    17ea:	2201      	movs	r2, #1
    17ec:	9300      	str	r3, [sp, #0]
    17ee:	4640      	mov	r0, r8
    17f0:	460b      	mov	r3, r1
    17f2:	9407      	str	r4, [sp, #28]
    17f4:	f008 f914 	bl	9a20 <_Unwind_VRS_Set>
    17f8:	ab06      	add	r3, sp, #24
    17fa:	2100      	movs	r1, #0
    17fc:	220f      	movs	r2, #15
    17fe:	9300      	str	r3, [sp, #0]
    1800:	4640      	mov	r0, r8
    1802:	460b      	mov	r3, r1
    1804:	f008 f8e2 	bl	99cc <_Unwind_VRS_Get>
    1808:	9b06      	ldr	r3, [sp, #24]
    180a:	9c03      	ldr	r4, [sp, #12]
    180c:	2100      	movs	r1, #0
    180e:	f003 0301 	and.w	r3, r3, #1
    1812:	431c      	orrs	r4, r3
    1814:	ab06      	add	r3, sp, #24
    1816:	220f      	movs	r2, #15
    1818:	4640      	mov	r0, r8
    181a:	9300      	str	r3, [sp, #0]
    181c:	460b      	mov	r3, r1
    181e:	9406      	str	r4, [sp, #24]
    1820:	f008 f8fe 	bl	9a20 <_Unwind_VRS_Set>
    1824:	4648      	mov	r0, r9
    1826:	f003 f83f 	bl	48a8 <__gnat_setup_current_excep>
    182a:	2007      	movs	r0, #7
    182c:	e6c1      	b.n	15b2 <__gnat_personality_v0+0x1e>
    182e:	f89d 003c 	ldrb.w	r0, [sp, #60]	; 0x3c
    1832:	28ff      	cmp	r0, #255	; 0xff
    1834:	d05d      	beq.n	18f2 <__gnat_personality_v0+0x35e>
    1836:	f000 0207 	and.w	r2, r0, #7
    183a:	2a04      	cmp	r2, #4
    183c:	d857      	bhi.n	18ee <__gnat_personality_v0+0x35a>
    183e:	e8df f002 	tbb	[pc, r2]
    1842:	5652      	.short	0x5652
    1844:	524e      	.short	0x524e
    1846:	06          	.byte	0x06
    1847:	00          	.byte	0x00
    1848:	2300      	movs	r3, #0
    184a:	9310      	str	r3, [sp, #64]	; 0x40
    184c:	e705      	b.n	165a <__gnat_personality_v0+0xc6>
    184e:	00db      	lsls	r3, r3, #3
    1850:	f1c3 0e00 	rsb	lr, r3, #0
    1854:	9a10      	ldr	r2, [sp, #64]	; 0x40
    1856:	ab08      	add	r3, sp, #32
    1858:	9911      	ldr	r1, [sp, #68]	; 0x44
    185a:	4472      	add	r2, lr
    185c:	f7ff fe1a 	bl	1494 <read_encoded_value_with_base>
    1860:	f8dd a020 	ldr.w	sl, [sp, #32]
    1864:	45b2      	cmp	sl, r6
    1866:	d02a      	beq.n	18be <__gnat_personality_v0+0x32a>
    1868:	f24c 01c8 	movw	r1, #49352	; 0xc0c8
    186c:	4648      	mov	r0, r9
    186e:	f2c0 0100 	movt	r1, #0
    1872:	2208      	movs	r2, #8
    1874:	f001 fdac 	bl	33d0 <memcmp>
    1878:	2800      	cmp	r0, #0
    187a:	d03f      	beq.n	18fc <__gnat_personality_v0+0x368>
    187c:	45da      	cmp	sl, fp
    187e:	d01e      	beq.n	18be <__gnat_personality_v0+0x32a>
    1880:	f240 1294 	movw	r2, #404	; 0x194
    1884:	f6c0 0200 	movt	r2, #2048	; 0x800
    1888:	4592      	cmp	sl, r2
    188a:	d018      	beq.n	18be <__gnat_personality_v0+0x32a>
    188c:	f24c 01d0 	movw	r1, #49360	; 0xc0d0
    1890:	4648      	mov	r0, r9
    1892:	f2c0 0100 	movt	r1, #0
    1896:	2208      	movs	r2, #8
    1898:	f001 fd9a 	bl	33d0 <memcmp>
    189c:	2800      	cmp	r0, #0
    189e:	f47f af7a 	bne.w	1796 <__gnat_personality_v0+0x202>
    18a2:	4650      	mov	r0, sl
    18a4:	f003 f868 	bl	4978 <__gnat_language_for>
    18a8:	2843      	cmp	r0, #67	; 0x43
    18aa:	f47f af74 	bne.w	1796 <__gnat_personality_v0+0x202>
    18ae:	4650      	mov	r0, sl
    18b0:	f003 f85c 	bl	496c <__gnat_foreign_data_for>
    18b4:	f859 3c20 	ldr.w	r3, [r9, #-32]
    18b8:	4283      	cmp	r3, r0
    18ba:	f47f af6c 	bne.w	1796 <__gnat_personality_v0+0x202>
    18be:	2503      	movs	r5, #3
    18c0:	9c06      	ldr	r4, [sp, #24]
    18c2:	07fb      	lsls	r3, r7, #31
    18c4:	d585      	bpl.n	17d2 <__gnat_personality_v0+0x23e>
    18c6:	2d02      	cmp	r5, #2
    18c8:	f43f af3b 	beq.w	1742 <__gnat_personality_v0+0x1ae>
    18cc:	4648      	mov	r0, r9
    18ce:	f002 ffeb 	bl	48a8 <__gnat_setup_current_excep>
    18d2:	2d04      	cmp	r5, #4
    18d4:	d00f      	beq.n	18f6 <__gnat_personality_v0+0x362>
    18d6:	f003 f8dd 	bl	4a94 <__gnat_notify_handled_exception>
    18da:	2006      	movs	r0, #6
    18dc:	e669      	b.n	15b2 <__gnat_personality_v0+0x1e>
    18de:	005b      	lsls	r3, r3, #1
    18e0:	f1c3 0e00 	rsb	lr, r3, #0
    18e4:	e7b6      	b.n	1854 <__gnat_personality_v0+0x2c0>
    18e6:	009b      	lsls	r3, r3, #2
    18e8:	f1c3 0e00 	rsb	lr, r3, #0
    18ec:	e7b2      	b.n	1854 <__gnat_personality_v0+0x2c0>
    18ee:	f006 fa8f 	bl	7e10 <abort>
    18f2:	4696      	mov	lr, r2
    18f4:	e7ae      	b.n	1854 <__gnat_personality_v0+0x2c0>
    18f6:	f003 f8d3 	bl	4aa0 <__gnat_notify_unhandled_exception>
    18fa:	e7ee      	b.n	18da <__gnat_personality_v0+0x346>
    18fc:	4648      	mov	r0, r9
    18fe:	f003 f833 	bl	4968 <__gnat_eid_for>
    1902:	f64c 52f2 	movw	r2, #52722	; 0xcdf2
    1906:	f2c0 0200 	movt	r2, #0
    190a:	4592      	cmp	sl, r2
    190c:	d101      	bne.n	1912 <__gnat_personality_v0+0x37e>
    190e:	2504      	movs	r5, #4
    1910:	e7d6      	b.n	18c0 <__gnat_personality_v0+0x32c>
    1912:	4648      	mov	r0, r9
    1914:	f003 f828 	bl	4968 <__gnat_eid_for>
    1918:	4582      	cmp	sl, r0
    191a:	d0d0      	beq.n	18be <__gnat_personality_v0+0x32a>
    191c:	45da      	cmp	sl, fp
    191e:	f47f af3a 	bne.w	1796 <__gnat_personality_v0+0x202>
    1922:	f003 f825 	bl	4970 <__gnat_is_handled_by_others>
    1926:	2800      	cmp	r0, #0
    1928:	d1c9      	bne.n	18be <__gnat_personality_v0+0x32a>
    192a:	e734      	b.n	1796 <__gnat_personality_v0+0x202>
    192c:	2d01      	cmp	r5, #1
    192e:	4604      	mov	r4, r0
    1930:	f43f af07 	beq.w	1742 <__gnat_personality_v0+0x1ae>
    1934:	e7c5      	b.n	18c2 <__gnat_personality_v0+0x32e>
    1936:	bf00      	nop

00001938 <__gnat_cleanupunwind_handler>:
    1938:	06ca      	lsls	r2, r1, #27
    193a:	d401      	bmi.n	1940 <__gnat_cleanupunwind_handler+0x8>
    193c:	2000      	movs	r0, #0
    193e:	4770      	bx	lr
    1940:	4618      	mov	r0, r3
    1942:	b508      	push	{r3, lr}
    1944:	f003 f80a 	bl	495c <__gnat_unhandled_except_handler>
    1948:	2000      	movs	r0, #0
    194a:	bd08      	pop	{r3, pc}

0000194c <__gnat_Unwind_RaiseException>:
    194c:	f008 bc3e 	b.w	a1cc <_Unwind_RaiseException>

00001950 <__gnat_Unwind_ForcedUnwind>:
    1950:	f008 bc72 	b.w	a238 <_Unwind_ForcedUnwind>

00001954 <system__tasking__restricted__stages__create_restricted_task__2>:
    1954:	b570      	push	{r4, r5, r6, lr}
    1956:	b088      	sub	sp, #32
    1958:	9c0c      	ldr	r4, [sp, #48]	; 0x30
    195a:	4616      	mov	r6, r2
    195c:	f1b0 3fff 	cmp.w	r0, #4294967295
    1960:	bf14      	ite	ne
    1962:	4602      	movne	r2, r0
    1964:	2278      	moveq	r2, #120	; 0x78
    1966:	1c60      	adds	r0, r4, #1
    1968:	9d0f      	ldr	r5, [sp, #60]	; 0x3c
    196a:	d011      	beq.n	1990 <system__tasking__restricted__stages__create_restricted_task__2+0x3c>
    196c:	2c01      	cmp	r4, #1
    196e:	bf98      	it	ls
    1970:	b2e4      	uxtbls	r4, r4
    1972:	d817      	bhi.n	19a4 <system__tasking__restricted__stages__create_restricted_task__2+0x50>
    1974:	9300      	str	r3, [sp, #0]
    1976:	4623      	mov	r3, r4
    1978:	9101      	str	r1, [sp, #4]
    197a:	9602      	str	r6, [sp, #8]
    197c:	980d      	ldr	r0, [sp, #52]	; 0x34
    197e:	9503      	str	r5, [sp, #12]
    1980:	990e      	ldr	r1, [sp, #56]	; 0x38
    1982:	f005 fdf3 	bl	756c <system__tasking__initialize_atcb>
    1986:	b1c8      	cbz	r0, 19bc <system__tasking__restricted__stages__create_restricted_task__2+0x68>
    1988:	f8c5 52d0 	str.w	r5, [r5, #720]	; 0x2d0
    198c:	b008      	add	sp, #32
    198e:	bd70      	pop	{r4, r5, r6, pc}
    1990:	9307      	str	r3, [sp, #28]
    1992:	9106      	str	r1, [sp, #24]
    1994:	9205      	str	r2, [sp, #20]
    1996:	f005 ff97 	bl	78c8 <system__tasking__self>
    199a:	9a05      	ldr	r2, [sp, #20]
    199c:	9906      	ldr	r1, [sp, #24]
    199e:	9b07      	ldr	r3, [sp, #28]
    19a0:	7a44      	ldrb	r4, [r0, #9]
    19a2:	e7e7      	b.n	1974 <system__tasking__restricted__stages__create_restricted_task__2+0x20>
    19a4:	f24c 02dc 	movw	r2, #49372	; 0xc0dc
    19a8:	f240 0098 	movw	r0, #152	; 0x98
    19ac:	f2c0 0200 	movt	r2, #0
    19b0:	f6c0 0000 	movt	r0, #2048	; 0x800
    19b4:	f102 034c 	add.w	r3, r2, #76	; 0x4c
    19b8:	f003 fbda 	bl	5170 <__gnat_raise_exception>
    19bc:	4802      	ldr	r0, [pc, #8]	; (19c8 <system__tasking__restricted__stages__create_restricted_task__2+0x74>)
    19be:	f44f 71af 	mov.w	r1, #350	; 0x15e
    19c2:	f003 fe0b 	bl	55dc <__gnat_rcheck_PE_Explicit_Raise>
    19c6:	bf00      	nop
    19c8:	0000c130 	.word	0x0000c130

000019cc <system__tasking__restricted__stages__task_wrapper>:
    19cc:	e92d 41f0 	stmdb	sp!, {r4, r5, r6, r7, r8, lr}
    19d0:	b082      	sub	sp, #8
    19d2:	af00      	add	r7, sp, #0
    19d4:	f246 6367 	movw	r3, #26215	; 0x6667
    19d8:	4604      	mov	r4, r0
    19da:	f8d0 210c 	ldr.w	r2, [r0, #268]	; 0x10c
    19de:	f2c6 6366 	movt	r3, #26214	; 0x6666
    19e2:	2600      	movs	r6, #0
    19e4:	f240 0574 	movw	r5, #116	; 0x74
    19e8:	f6c0 0500 	movt	r5, #2048	; 0x800
    19ec:	fb83 1302 	smull	r1, r3, r3, r2
    19f0:	17d2      	asrs	r2, r2, #31
    19f2:	603e      	str	r6, [r7, #0]
    19f4:	ebc2 03a3 	rsb	r3, r2, r3, asr #2
    19f8:	4619      	mov	r1, r3
    19fa:	ea23 73e3 	bic.w	r3, r3, r3, asr #31
    19fe:	3307      	adds	r3, #7
    1a00:	f023 0307 	bic.w	r3, r3, #7
    1a04:	3308      	adds	r3, #8
    1a06:	ebad 0d03 	sub.w	sp, sp, r3
    1a0a:	4668      	mov	r0, sp
    1a0c:	f8c4 d110 	str.w	sp, [r4, #272]	; 0x110
    1a10:	607e      	str	r6, [r7, #4]
    1a12:	f000 fddd 	bl	25d0 <system__secondary_stack__ss_init>
    1a16:	f240 1350 	movw	r3, #336	; 0x150
    1a1a:	f6c0 0300 	movt	r3, #2048	; 0x800
    1a1e:	682a      	ldr	r2, [r5, #0]
    1a20:	f8c2 40a0 	str.w	r4, [r2, #160]	; 0xa0
    1a24:	681a      	ldr	r2, [r3, #0]
    1a26:	f8c4 60fc 	str.w	r6, [r4, #252]	; 0xfc
    1a2a:	2a00      	cmp	r2, #0
    1a2c:	f000 80a8 	beq.w	1b80 <system__tasking__restricted__stages__task_wrapper+0x1b4>
    1a30:	f8c2 42c0 	str.w	r4, [r2, #704]	; 0x2c0
    1a34:	601c      	str	r4, [r3, #0]
    1a36:	68e0      	ldr	r0, [r4, #12]
    1a38:	b672      	cpsid	i
    1a3a:	682e      	ldr	r6, [r5, #0]
    1a3c:	f896 30a4 	ldrb.w	r3, [r6, #164]	; 0xa4
    1a40:	2b00      	cmp	r3, #0
    1a42:	f8c6 00ac 	str.w	r0, [r6, #172]	; 0xac
    1a46:	bf08      	it	eq
    1a48:	2301      	moveq	r3, #1
    1a4a:	f8d6 20b8 	ldr.w	r2, [r6, #184]	; 0xb8
    1a4e:	b1ea      	cbz	r2, 1a8c <system__tasking__restricted__stages__task_wrapper+0xc0>
    1a50:	f8d2 10ac 	ldr.w	r1, [r2, #172]	; 0xac
    1a54:	4288      	cmp	r0, r1
    1a56:	da19      	bge.n	1a8c <system__tasking__restricted__stages__task_wrapper+0xc0>
    1a58:	b25b      	sxtb	r3, r3
    1a5a:	f103 4380 	add.w	r3, r3, #1073741824	; 0x40000000
    1a5e:	f240 0168 	movw	r1, #104	; 0x68
    1a62:	3b01      	subs	r3, #1
    1a64:	f6c0 0100 	movt	r1, #2048	; 0x800
    1a68:	f841 2023 	str.w	r2, [r1, r3, lsl #2]
    1a6c:	f851 2023 	ldr.w	r2, [r1, r3, lsl #2]
    1a70:	e004      	b.n	1a7c <system__tasking__restricted__stages__task_wrapper+0xb0>
    1a72:	f8d3 10ac 	ldr.w	r1, [r3, #172]	; 0xac
    1a76:	4288      	cmp	r0, r1
    1a78:	da04      	bge.n	1a84 <system__tasking__restricted__stages__task_wrapper+0xb8>
    1a7a:	461a      	mov	r2, r3
    1a7c:	f8d2 30b8 	ldr.w	r3, [r2, #184]	; 0xb8
    1a80:	2b00      	cmp	r3, #0
    1a82:	d1f6      	bne.n	1a72 <system__tasking__restricted__stages__task_wrapper+0xa6>
    1a84:	f8c6 30b8 	str.w	r3, [r6, #184]	; 0xb8
    1a88:	f8c2 60b8 	str.w	r6, [r2, #184]	; 0xb8
    1a8c:	f000 fffa 	bl	2a84 <system__bb__protection__leave_kernel>
    1a90:	f8d4 3104 	ldr.w	r3, [r4, #260]	; 0x104
    1a94:	f8d4 0100 	ldr.w	r0, [r4, #256]	; 0x100
    1a98:	4798      	blx	r3
    1a9a:	b672      	cpsid	i
    1a9c:	6828      	ldr	r0, [r5, #0]
    1a9e:	22f2      	movs	r2, #242	; 0xf2
    1aa0:	f890 30a4 	ldrb.w	r3, [r0, #164]	; 0xa4
    1aa4:	2b00      	cmp	r3, #0
    1aa6:	f8c0 20ac 	str.w	r2, [r0, #172]	; 0xac
    1aaa:	bf08      	it	eq
    1aac:	2301      	moveq	r3, #1
    1aae:	f8d0 20b8 	ldr.w	r2, [r0, #184]	; 0xb8
    1ab2:	b1ea      	cbz	r2, 1af0 <system__tasking__restricted__stages__task_wrapper+0x124>
    1ab4:	f8d2 10ac 	ldr.w	r1, [r2, #172]	; 0xac
    1ab8:	29f2      	cmp	r1, #242	; 0xf2
    1aba:	dd19      	ble.n	1af0 <system__tasking__restricted__stages__task_wrapper+0x124>
    1abc:	b25b      	sxtb	r3, r3
    1abe:	f103 4380 	add.w	r3, r3, #1073741824	; 0x40000000
    1ac2:	f240 0168 	movw	r1, #104	; 0x68
    1ac6:	3b01      	subs	r3, #1
    1ac8:	f6c0 0100 	movt	r1, #2048	; 0x800
    1acc:	f841 2023 	str.w	r2, [r1, r3, lsl #2]
    1ad0:	f851 2023 	ldr.w	r2, [r1, r3, lsl #2]
    1ad4:	e004      	b.n	1ae0 <system__tasking__restricted__stages__task_wrapper+0x114>
    1ad6:	f8d3 10ac 	ldr.w	r1, [r3, #172]	; 0xac
    1ada:	29f2      	cmp	r1, #242	; 0xf2
    1adc:	dd04      	ble.n	1ae8 <system__tasking__restricted__stages__task_wrapper+0x11c>
    1ade:	461a      	mov	r2, r3
    1ae0:	f8d2 30b8 	ldr.w	r3, [r2, #184]	; 0xb8
    1ae4:	2b00      	cmp	r3, #0
    1ae6:	d1f6      	bne.n	1ad6 <system__tasking__restricted__stages__task_wrapper+0x10a>
    1ae8:	f8c0 30b8 	str.w	r3, [r0, #184]	; 0xb8
    1aec:	f8c2 00b8 	str.w	r0, [r2, #184]	; 0xb8
    1af0:	f000 ffc8 	bl	2a84 <system__bb__protection__leave_kernel>
    1af4:	f240 13b4 	movw	r3, #436	; 0x1b4
    1af8:	f6c0 0300 	movt	r3, #2048	; 0x800
    1afc:	46b8      	mov	r8, r7
    1afe:	68e6      	ldr	r6, [r4, #12]
    1b00:	e893 0003 	ldmia.w	r3, {r0, r1}
    1b04:	e887 0003 	stmia.w	r7, {r0, r1}
    1b08:	b672      	cpsid	i
    1b0a:	6828      	ldr	r0, [r5, #0]
    1b0c:	f890 30a4 	ldrb.w	r3, [r0, #164]	; 0xa4
    1b10:	2b00      	cmp	r3, #0
    1b12:	f8c0 60ac 	str.w	r6, [r0, #172]	; 0xac
    1b16:	bf08      	it	eq
    1b18:	2301      	moveq	r3, #1
    1b1a:	f8d0 20b8 	ldr.w	r2, [r0, #184]	; 0xb8
    1b1e:	b1ea      	cbz	r2, 1b5c <system__tasking__restricted__stages__task_wrapper+0x190>
    1b20:	f8d2 10ac 	ldr.w	r1, [r2, #172]	; 0xac
    1b24:	428e      	cmp	r6, r1
    1b26:	da19      	bge.n	1b5c <system__tasking__restricted__stages__task_wrapper+0x190>
    1b28:	b25b      	sxtb	r3, r3
    1b2a:	f103 4380 	add.w	r3, r3, #1073741824	; 0x40000000
    1b2e:	f240 0168 	movw	r1, #104	; 0x68
    1b32:	3b01      	subs	r3, #1
    1b34:	f6c0 0100 	movt	r1, #2048	; 0x800
    1b38:	f841 2023 	str.w	r2, [r1, r3, lsl #2]
    1b3c:	f851 2023 	ldr.w	r2, [r1, r3, lsl #2]
    1b40:	e004      	b.n	1b4c <system__tasking__restricted__stages__task_wrapper+0x180>
    1b42:	f8d3 10ac 	ldr.w	r1, [r3, #172]	; 0xac
    1b46:	428e      	cmp	r6, r1
    1b48:	da04      	bge.n	1b54 <system__tasking__restricted__stages__task_wrapper+0x188>
    1b4a:	461a      	mov	r2, r3
    1b4c:	f8d2 30b8 	ldr.w	r3, [r2, #184]	; 0xb8
    1b50:	2b00      	cmp	r3, #0
    1b52:	d1f6      	bne.n	1b42 <system__tasking__restricted__stages__task_wrapper+0x176>
    1b54:	f8c0 30b8 	str.w	r3, [r0, #184]	; 0xb8
    1b58:	f8c2 00b8 	str.w	r0, [r2, #184]	; 0xb8
    1b5c:	f000 ff92 	bl	2a84 <system__bb__protection__leave_kernel>
    1b60:	4640      	mov	r0, r8
    1b62:	490a      	ldr	r1, [pc, #40]	; (1b8c <system__tasking__restricted__stages__task_wrapper+0x1c0>)
    1b64:	2208      	movs	r2, #8
    1b66:	f001 fc33 	bl	33d0 <memcmp>
    1b6a:	b118      	cbz	r0, 1b74 <system__tasking__restricted__stages__task_wrapper+0x1a8>
    1b6c:	4621      	mov	r1, r4
    1b6e:	e897 0009 	ldmia.w	r7, {r0, r3}
    1b72:	4798      	blx	r3
    1b74:	f001 fafe 	bl	3174 <system__bb__threads__sleep>
    1b78:	3708      	adds	r7, #8
    1b7a:	46bd      	mov	sp, r7
    1b7c:	e8bd 81f0 	ldmia.w	sp!, {r4, r5, r6, r7, r8, pc}
    1b80:	f240 124c 	movw	r2, #332	; 0x14c
    1b84:	f6c0 0200 	movt	r2, #2048	; 0x800
    1b88:	6014      	str	r4, [r2, #0]
    1b8a:	e753      	b.n	1a34 <system__tasking__restricted__stages__task_wrapper+0x68>
    1b8c:	0000c140 	.word	0x0000c140

00001b90 <system__tasking__restricted__stages__activate_tasks>:
    1b90:	e92d 4ff0 	stmdb	sp!, {r4, r5, r6, r7, r8, r9, sl, fp, lr}
    1b94:	b085      	sub	sp, #20
    1b96:	f240 0a74 	movw	sl, #116	; 0x74
    1b9a:	4604      	mov	r4, r0
    1b9c:	f6c0 0a00 	movt	sl, #2048	; 0x800
    1ba0:	f8da 3000 	ldr.w	r3, [sl]
    1ba4:	f8d3 90a0 	ldr.w	r9, [r3, #160]	; 0xa0
    1ba8:	b672      	cpsid	i
    1baa:	f8da 5000 	ldr.w	r5, [sl]
    1bae:	22f2      	movs	r2, #242	; 0xf2
    1bb0:	f895 30a4 	ldrb.w	r3, [r5, #164]	; 0xa4
    1bb4:	2b00      	cmp	r3, #0
    1bb6:	f8c5 20ac 	str.w	r2, [r5, #172]	; 0xac
    1bba:	bf08      	it	eq
    1bbc:	2301      	moveq	r3, #1
    1bbe:	f8d5 20b8 	ldr.w	r2, [r5, #184]	; 0xb8
    1bc2:	b1ea      	cbz	r2, 1c00 <system__tasking__restricted__stages__activate_tasks+0x70>
    1bc4:	f8d2 10ac 	ldr.w	r1, [r2, #172]	; 0xac
    1bc8:	29f2      	cmp	r1, #242	; 0xf2
    1bca:	dd19      	ble.n	1c00 <system__tasking__restricted__stages__activate_tasks+0x70>
    1bcc:	b25b      	sxtb	r3, r3
    1bce:	f103 4380 	add.w	r3, r3, #1073741824	; 0x40000000
    1bd2:	f240 0168 	movw	r1, #104	; 0x68
    1bd6:	3b01      	subs	r3, #1
    1bd8:	f6c0 0100 	movt	r1, #2048	; 0x800
    1bdc:	f841 2023 	str.w	r2, [r1, r3, lsl #2]
    1be0:	f851 2023 	ldr.w	r2, [r1, r3, lsl #2]
    1be4:	e004      	b.n	1bf0 <system__tasking__restricted__stages__activate_tasks+0x60>
    1be6:	f8d3 10ac 	ldr.w	r1, [r3, #172]	; 0xac
    1bea:	29f2      	cmp	r1, #242	; 0xf2
    1bec:	dd04      	ble.n	1bf8 <system__tasking__restricted__stages__activate_tasks+0x68>
    1bee:	461a      	mov	r2, r3
    1bf0:	f8d2 30b8 	ldr.w	r3, [r2, #184]	; 0xb8
    1bf4:	2b00      	cmp	r3, #0
    1bf6:	d1f6      	bne.n	1be6 <system__tasking__restricted__stages__activate_tasks+0x56>
    1bf8:	f8c5 30b8 	str.w	r3, [r5, #184]	; 0xb8
    1bfc:	f8c2 50b8 	str.w	r5, [r2, #184]	; 0xb8
    1c00:	f000 ff40 	bl	2a84 <system__bb__protection__leave_kernel>
    1c04:	f04f 0b00 	mov.w	fp, #0
    1c08:	f04f 0801 	mov.w	r8, #1
    1c0c:	b304      	cbz	r4, 1c50 <system__tasking__restricted__stages__activate_tasks+0xc0>
    1c0e:	f104 0018 	add.w	r0, r4, #24
    1c12:	f894 e009 	ldrb.w	lr, [r4, #9]
    1c16:	f8d4 52c0 	ldr.w	r5, [r4, #704]	; 0x2c0
    1c1a:	f641 11cd 	movw	r1, #6605	; 0x19cd
    1c1e:	f8c4 b2c0 	str.w	fp, [r4, #704]	; 0x2c0
    1c22:	4622      	mov	r2, r4
    1c24:	68e3      	ldr	r3, [r4, #12]
    1c26:	f2c0 0100 	movt	r1, #0
    1c2a:	f8c4 00f8 	str.w	r0, [r4, #248]	; 0xf8
    1c2e:	f8d4 00f8 	ldr.w	r0, [r4, #248]	; 0xf8
    1c32:	f8d4 6108 	ldr.w	r6, [r4, #264]	; 0x108
    1c36:	f8d4 710c 	ldr.w	r7, [r4, #268]	; 0x10c
    1c3a:	9702      	str	r7, [sp, #8]
    1c3c:	f8cd e000 	str.w	lr, [sp]
    1c40:	9601      	str	r6, [sp, #4]
    1c42:	f001 fac1 	bl	31c8 <system__bb__threads__thread_create>
    1c46:	f884 8008 	strb.w	r8, [r4, #8]
    1c4a:	462c      	mov	r4, r5
    1c4c:	2d00      	cmp	r5, #0
    1c4e:	d1de      	bne.n	1c0e <system__tasking__restricted__stages__activate_tasks+0x7e>
    1c50:	2301      	movs	r3, #1
    1c52:	f889 3008 	strb.w	r3, [r9, #8]
    1c56:	f8d9 000c 	ldr.w	r0, [r9, #12]
    1c5a:	b672      	cpsid	i
    1c5c:	f8da 4000 	ldr.w	r4, [sl]
    1c60:	f894 30a4 	ldrb.w	r3, [r4, #164]	; 0xa4
    1c64:	2b00      	cmp	r3, #0
    1c66:	f8c4 00ac 	str.w	r0, [r4, #172]	; 0xac
    1c6a:	bf08      	it	eq
    1c6c:	2301      	moveq	r3, #1
    1c6e:	f8d4 20b8 	ldr.w	r2, [r4, #184]	; 0xb8
    1c72:	b1ea      	cbz	r2, 1cb0 <system__tasking__restricted__stages__activate_tasks+0x120>
    1c74:	f8d2 10ac 	ldr.w	r1, [r2, #172]	; 0xac
    1c78:	4288      	cmp	r0, r1
    1c7a:	da19      	bge.n	1cb0 <system__tasking__restricted__stages__activate_tasks+0x120>
    1c7c:	b25b      	sxtb	r3, r3
    1c7e:	f103 4380 	add.w	r3, r3, #1073741824	; 0x40000000
    1c82:	f240 0168 	movw	r1, #104	; 0x68
    1c86:	3b01      	subs	r3, #1
    1c88:	f6c0 0100 	movt	r1, #2048	; 0x800
    1c8c:	f841 2023 	str.w	r2, [r1, r3, lsl #2]
    1c90:	f851 2023 	ldr.w	r2, [r1, r3, lsl #2]
    1c94:	e004      	b.n	1ca0 <system__tasking__restricted__stages__activate_tasks+0x110>
    1c96:	f8d3 10ac 	ldr.w	r1, [r3, #172]	; 0xac
    1c9a:	4288      	cmp	r0, r1
    1c9c:	da04      	bge.n	1ca8 <system__tasking__restricted__stages__activate_tasks+0x118>
    1c9e:	461a      	mov	r2, r3
    1ca0:	f8d2 30b8 	ldr.w	r3, [r2, #184]	; 0xb8
    1ca4:	2b00      	cmp	r3, #0
    1ca6:	d1f6      	bne.n	1c96 <system__tasking__restricted__stages__activate_tasks+0x106>
    1ca8:	f8c4 30b8 	str.w	r3, [r4, #184]	; 0xb8
    1cac:	f8c2 40b8 	str.w	r4, [r2, #184]	; 0xb8
    1cb0:	b005      	add	sp, #20
    1cb2:	e8bd 4ff0 	ldmia.w	sp!, {r4, r5, r6, r7, r8, r9, sl, fp, lr}
    1cb6:	f000 bee5 	b.w	2a84 <system__bb__protection__leave_kernel>
    1cba:	bf00      	nop

00001cbc <__gnat_activate_all_tasks>:
    1cbc:	b510      	push	{r4, lr}
    1cbe:	f240 0424 	movw	r4, #36	; 0x24
    1cc2:	f6c0 0400 	movt	r4, #2048	; 0x800
    1cc6:	6820      	ldr	r0, [r4, #0]
    1cc8:	f7ff ff62 	bl	1b90 <system__tasking__restricted__stages__activate_tasks>
    1ccc:	2300      	movs	r3, #0
    1cce:	6023      	str	r3, [r4, #0]
    1cd0:	bd10      	pop	{r4, pc}
    1cd2:	bf00      	nop

00001cd4 <system__tasking__restricted__stages__activate_restricted_tasks>:
    1cd4:	f240 0328 	movw	r3, #40	; 0x28
    1cd8:	f6c0 0300 	movt	r3, #2048	; 0x800
    1cdc:	781b      	ldrb	r3, [r3, #0]
    1cde:	2b53      	cmp	r3, #83	; 0x53
    1ce0:	d007      	beq.n	1cf2 <system__tasking__restricted__stages__activate_restricted_tasks+0x1e>
    1ce2:	b510      	push	{r4, lr}
    1ce4:	4604      	mov	r4, r0
    1ce6:	6800      	ldr	r0, [r0, #0]
    1ce8:	f7ff ff52 	bl	1b90 <system__tasking__restricted__stages__activate_tasks>
    1cec:	2300      	movs	r3, #0
    1cee:	6023      	str	r3, [r4, #0]
    1cf0:	bd10      	pop	{r4, pc}
    1cf2:	4770      	bx	lr

00001cf4 <system__tasking__restricted__stages__complete_restricted_activation>:
    1cf4:	4770      	bx	lr
    1cf6:	bf00      	nop

00001cf8 <system__tasking__restricted__stages__complete_restricted_task>:
    1cf8:	f240 0374 	movw	r3, #116	; 0x74
    1cfc:	f6c0 0300 	movt	r3, #2048	; 0x800
    1d00:	2202      	movs	r2, #2
    1d02:	681b      	ldr	r3, [r3, #0]
    1d04:	f8d3 30a0 	ldr.w	r3, [r3, #160]	; 0xa0
    1d08:	721a      	strb	r2, [r3, #8]
    1d0a:	4770      	bx	lr

00001d0c <system__tasking__restricted__stages__create_restricted_task>:
    1d0c:	b570      	push	{r4, r5, r6, lr}
    1d0e:	b084      	sub	sp, #16
    1d10:	f240 0428 	movw	r4, #40	; 0x28
    1d14:	f6c0 0400 	movt	r4, #2048	; 0x800
    1d18:	7826      	ldrb	r6, [r4, #0]
    1d1a:	2e53      	cmp	r6, #83	; 0x53
    1d1c:	9d0c      	ldr	r5, [sp, #48]	; 0x30
    1d1e:	9c10      	ldr	r4, [sp, #64]	; 0x40
    1d20:	d00e      	beq.n	1d40 <system__tasking__restricted__stages__create_restricted_task+0x34>
    1d22:	9e08      	ldr	r6, [sp, #32]
    1d24:	9600      	str	r6, [sp, #0]
    1d26:	9e09      	ldr	r6, [sp, #36]	; 0x24
    1d28:	9601      	str	r6, [sp, #4]
    1d2a:	9e0a      	ldr	r6, [sp, #40]	; 0x28
    1d2c:	9602      	str	r6, [sp, #8]
    1d2e:	9403      	str	r4, [sp, #12]
    1d30:	f7ff fe10 	bl	1954 <system__tasking__restricted__stages__create_restricted_task__2>
    1d34:	682b      	ldr	r3, [r5, #0]
    1d36:	f8c4 32c0 	str.w	r3, [r4, #704]	; 0x2c0
    1d3a:	602c      	str	r4, [r5, #0]
    1d3c:	b004      	add	sp, #16
    1d3e:	bd70      	pop	{r4, r5, r6, pc}
    1d40:	9d08      	ldr	r5, [sp, #32]
    1d42:	9500      	str	r5, [sp, #0]
    1d44:	9d09      	ldr	r5, [sp, #36]	; 0x24
    1d46:	9501      	str	r5, [sp, #4]
    1d48:	9d0a      	ldr	r5, [sp, #40]	; 0x28
    1d4a:	9502      	str	r5, [sp, #8]
    1d4c:	9403      	str	r4, [sp, #12]
    1d4e:	f7ff fe01 	bl	1954 <system__tasking__restricted__stages__create_restricted_task__2>
    1d52:	f240 0324 	movw	r3, #36	; 0x24
    1d56:	f6c0 0300 	movt	r3, #2048	; 0x800
    1d5a:	681a      	ldr	r2, [r3, #0]
    1d5c:	f8c4 22c0 	str.w	r2, [r4, #704]	; 0x2c0
    1d60:	601c      	str	r4, [r3, #0]
    1d62:	b004      	add	sp, #16
    1d64:	bd70      	pop	{r4, r5, r6, pc}
    1d66:	bf00      	nop

00001d68 <system__tasking__restricted__stages__create_restricted_task_sequential>:
    1d68:	b5f0      	push	{r4, r5, r6, r7, lr}
    1d6a:	b085      	sub	sp, #20
    1d6c:	9c10      	ldr	r4, [sp, #64]	; 0x40
    1d6e:	9f0a      	ldr	r7, [sp, #40]	; 0x28
    1d70:	9e0b      	ldr	r6, [sp, #44]	; 0x2c
    1d72:	9d0c      	ldr	r5, [sp, #48]	; 0x30
    1d74:	9700      	str	r7, [sp, #0]
    1d76:	9601      	str	r6, [sp, #4]
    1d78:	9502      	str	r5, [sp, #8]
    1d7a:	9403      	str	r4, [sp, #12]
    1d7c:	f7ff fdea 	bl	1954 <system__tasking__restricted__stages__create_restricted_task__2>
    1d80:	f240 0324 	movw	r3, #36	; 0x24
    1d84:	f6c0 0300 	movt	r3, #2048	; 0x800
    1d88:	681a      	ldr	r2, [r3, #0]
    1d8a:	f8c4 22c0 	str.w	r2, [r4, #704]	; 0x2c0
    1d8e:	601c      	str	r4, [r3, #0]
    1d90:	b005      	add	sp, #20
    1d92:	bdf0      	pop	{r4, r5, r6, r7, pc}

00001d94 <system__tasking__restricted__stages__finalize_global_tasks>:
    1d94:	b508      	push	{r3, lr}
    1d96:	4802      	ldr	r0, [pc, #8]	; (1da0 <system__tasking__restricted__stages__finalize_global_tasks+0xc>)
    1d98:	f240 11ad 	movw	r1, #429	; 0x1ad
    1d9c:	f003 fc1e 	bl	55dc <__gnat_rcheck_PE_Explicit_Raise>
    1da0:	0000c130 	.word	0x0000c130

00001da4 <system__tasking__restricted__stages__restricted_terminated>:
    1da4:	7a00      	ldrb	r0, [r0, #8]
    1da6:	f1a0 0002 	sub.w	r0, r0, #2
    1daa:	fab0 f080 	clz	r0, r0
    1dae:	0940      	lsrs	r0, r0, #5
    1db0:	4770      	bx	lr
    1db2:	bf00      	nop

00001db4 <system__tasking__restricted__stages___elabb>:
    1db4:	f005 bbf4 	b.w	75a0 <system__tasking__initialize>

00001db8 <ada__text_io__get>:
    1db8:	b508      	push	{r3, lr}
    1dba:	f006 f8bf 	bl	7f3c <system__text_io__is_rx_ready>
    1dbe:	2800      	cmp	r0, #0
    1dc0:	d0fb      	beq.n	1dba <ada__text_io__get+0x2>
    1dc2:	e8bd 4008 	ldmia.w	sp!, {r3, lr}
    1dc6:	f006 b86d 	b.w	7ea4 <system__text_io__get>
    1dca:	bf00      	nop

00001dcc <ada__text_io__put>:
    1dcc:	b510      	push	{r4, lr}
    1dce:	4604      	mov	r4, r0
    1dd0:	f006 f8ac 	bl	7f2c <system__text_io__is_tx_ready>
    1dd4:	2800      	cmp	r0, #0
    1dd6:	d0fb      	beq.n	1dd0 <ada__text_io__put+0x4>
    1dd8:	4620      	mov	r0, r4
    1dda:	e8bd 4010 	ldmia.w	sp!, {r4, lr}
    1dde:	f006 b8b5 	b.w	7f4c <system__text_io__put>
    1de2:	bf00      	nop

00001de4 <ada__text_io__new_line>:
    1de4:	b508      	push	{r3, lr}
    1de6:	f006 f8b7 	bl	7f58 <system__text_io__use_cr_lf_for_new_line>
    1dea:	b110      	cbz	r0, 1df2 <ada__text_io__new_line+0xe>
    1dec:	200d      	movs	r0, #13
    1dee:	f7ff ffed 	bl	1dcc <ada__text_io__put>
    1df2:	200a      	movs	r0, #10
    1df4:	e8bd 4008 	ldmia.w	sp!, {r3, lr}
    1df8:	f7ff bfe8 	b.w	1dcc <ada__text_io__put>

00001dfc <ada__text_io__put__2>:
    1dfc:	b570      	push	{r4, r5, r6, lr}
    1dfe:	e891 0050 	ldmia.w	r1, {r4, r6}
    1e02:	42b4      	cmp	r4, r6
    1e04:	dc07      	bgt.n	1e16 <ada__text_io__put__2+0x1a>
    1e06:	1b05      	subs	r5, r0, r4
    1e08:	3c01      	subs	r4, #1
    1e0a:	3401      	adds	r4, #1
    1e0c:	5d28      	ldrb	r0, [r5, r4]
    1e0e:	f7ff ffdd 	bl	1dcc <ada__text_io__put>
    1e12:	42b4      	cmp	r4, r6
    1e14:	d1f9      	bne.n	1e0a <ada__text_io__put__2+0xe>
    1e16:	bd70      	pop	{r4, r5, r6, pc}

00001e18 <ada__text_io__put_line>:
    1e18:	b508      	push	{r3, lr}
    1e1a:	f7ff ffef 	bl	1dfc <ada__text_io__put__2>
    1e1e:	e8bd 4008 	ldmia.w	sp!, {r3, lr}
    1e22:	f7ff bfdf 	b.w	1de4 <ada__text_io__new_line>
    1e26:	bf00      	nop

00001e28 <ada__text_io___elabb>:
    1e28:	f240 13ee 	movw	r3, #494	; 0x1ee
    1e2c:	f6c0 0300 	movt	r3, #2048	; 0x800
    1e30:	781b      	ldrb	r3, [r3, #0]
    1e32:	b103      	cbz	r3, 1e36 <ada__text_io___elabb+0xe>
    1e34:	4770      	bx	lr
    1e36:	f006 b83d 	b.w	7eb4 <system__text_io__initialize>
    1e3a:	bf00      	nop

00001e3c <__gnat_finalize>:
    1e3c:	4770      	bx	lr
    1e3e:	bf00      	nop

00001e40 <__gnat_initialize>:
    1e40:	4770      	bx	lr
    1e42:	bf00      	nop

00001e44 <system__init__install_handler>:
    1e44:	b510      	push	{r4, lr}
    1e46:	f643 14c5 	movw	r4, #14789	; 0x39c5
    1e4a:	2100      	movs	r1, #0
    1e4c:	f2c0 0400 	movt	r4, #0
    1e50:	460a      	mov	r2, r1
    1e52:	4620      	mov	r0, r4
    1e54:	f001 ff30 	bl	3cb8 <system__bb__cpu_primitives__install_trap_handler>
    1e58:	2101      	movs	r1, #1
    1e5a:	4620      	mov	r0, r4
    1e5c:	460a      	mov	r2, r1
    1e5e:	f001 ff2b 	bl	3cb8 <system__bb__cpu_primitives__install_trap_handler>
    1e62:	4620      	mov	r0, r4
    1e64:	2102      	movs	r1, #2
    1e66:	2201      	movs	r2, #1
    1e68:	f001 ff26 	bl	3cb8 <system__bb__cpu_primitives__install_trap_handler>
    1e6c:	4620      	mov	r0, r4
    1e6e:	2103      	movs	r1, #3
    1e70:	2201      	movs	r2, #1
    1e72:	f001 ff21 	bl	3cb8 <system__bb__cpu_primitives__install_trap_handler>
    1e76:	4620      	mov	r0, r4
    1e78:	2104      	movs	r1, #4
    1e7a:	2200      	movs	r2, #0
    1e7c:	f001 ff1c 	bl	3cb8 <system__bb__cpu_primitives__install_trap_handler>
    1e80:	4620      	mov	r0, r4
    1e82:	2106      	movs	r1, #6
    1e84:	2200      	movs	r2, #0
    1e86:	e8bd 4010 	ldmia.w	sp!, {r4, lr}
    1e8a:	f001 bf15 	b.w	3cb8 <system__bb__cpu_primitives__install_trap_handler>
    1e8e:	bf00      	nop

00001e90 <__gnat_runtime_initialize>:
    1e90:	b510      	push	{r4, lr}
    1e92:	f005 fb85 	bl	75a0 <system__tasking__initialize>
    1e96:	f643 14c5 	movw	r4, #14789	; 0x39c5
    1e9a:	2100      	movs	r1, #0
    1e9c:	f2c0 0400 	movt	r4, #0
    1ea0:	460a      	mov	r2, r1
    1ea2:	4620      	mov	r0, r4
    1ea4:	f001 ff08 	bl	3cb8 <system__bb__cpu_primitives__install_trap_handler>
    1ea8:	2101      	movs	r1, #1
    1eaa:	4620      	mov	r0, r4
    1eac:	460a      	mov	r2, r1
    1eae:	f001 ff03 	bl	3cb8 <system__bb__cpu_primitives__install_trap_handler>
    1eb2:	4620      	mov	r0, r4
    1eb4:	2102      	movs	r1, #2
    1eb6:	2201      	movs	r2, #1
    1eb8:	f001 fefe 	bl	3cb8 <system__bb__cpu_primitives__install_trap_handler>
    1ebc:	4620      	mov	r0, r4
    1ebe:	2103      	movs	r1, #3
    1ec0:	2201      	movs	r2, #1
    1ec2:	f001 fef9 	bl	3cb8 <system__bb__cpu_primitives__install_trap_handler>
    1ec6:	4620      	mov	r0, r4
    1ec8:	2104      	movs	r1, #4
    1eca:	2200      	movs	r2, #0
    1ecc:	f001 fef4 	bl	3cb8 <system__bb__cpu_primitives__install_trap_handler>
    1ed0:	4620      	mov	r0, r4
    1ed2:	2106      	movs	r1, #6
    1ed4:	2200      	movs	r2, #0
    1ed6:	e8bd 4010 	ldmia.w	sp!, {r4, lr}
    1eda:	f001 beed 	b.w	3cb8 <system__bb__cpu_primitives__install_trap_handler>
    1ede:	bf00      	nop

00001ee0 <__gnat_runtime_finalize>:
    1ee0:	4770      	bx	lr
    1ee2:	bf00      	nop

00001ee4 <memcpy>:
    1ee4:	b470      	push	{r4, r5, r6}
    1ee6:	ea40 0301 	orr.w	r3, r0, r1
    1eea:	079b      	lsls	r3, r3, #30
    1eec:	d11b      	bne.n	1f26 <memcpy+0x42>
    1eee:	2a03      	cmp	r2, #3
    1ef0:	d919      	bls.n	1f26 <memcpy+0x42>
    1ef2:	1f16      	subs	r6, r2, #4
    1ef4:	f026 0603 	bic.w	r6, r6, #3
    1ef8:	1d0b      	adds	r3, r1, #4
    1efa:	4433      	add	r3, r6
    1efc:	4604      	mov	r4, r0
    1efe:	f851 5b04 	ldr.w	r5, [r1], #4
    1f02:	f844 5b04 	str.w	r5, [r4], #4
    1f06:	4299      	cmp	r1, r3
    1f08:	d1f9      	bne.n	1efe <memcpy+0x1a>
    1f0a:	1d01      	adds	r1, r0, #4
    1f0c:	f002 0203 	and.w	r2, r2, #3
    1f10:	4431      	add	r1, r6
    1f12:	b132      	cbz	r2, 1f22 <memcpy+0x3e>
    1f14:	441a      	add	r2, r3
    1f16:	f813 4b01 	ldrb.w	r4, [r3], #1
    1f1a:	4293      	cmp	r3, r2
    1f1c:	f801 4b01 	strb.w	r4, [r1], #1
    1f20:	d1f9      	bne.n	1f16 <memcpy+0x32>
    1f22:	bc70      	pop	{r4, r5, r6}
    1f24:	4770      	bx	lr
    1f26:	460b      	mov	r3, r1
    1f28:	4601      	mov	r1, r0
    1f2a:	e7f2      	b.n	1f12 <memcpy+0x2e>

00001f2c <system__bb__threads__queues__change_priority>:
    1f2c:	b570      	push	{r4, r5, r6, lr}
    1f2e:	4606      	mov	r6, r0
    1f30:	460d      	mov	r5, r1
    1f32:	f001 f865 	bl	3000 <system__bb__threads__get_cpu>
    1f36:	f8c6 50ac 	str.w	r5, [r6, #172]	; 0xac
    1f3a:	f8d6 20b8 	ldr.w	r2, [r6, #184]	; 0xb8
    1f3e:	b1ea      	cbz	r2, 1f7c <system__bb__threads__queues__change_priority+0x50>
    1f40:	f8d2 30ac 	ldr.w	r3, [r2, #172]	; 0xac
    1f44:	429d      	cmp	r5, r3
    1f46:	da19      	bge.n	1f7c <system__bb__threads__queues__change_priority+0x50>
    1f48:	b243      	sxtb	r3, r0
    1f4a:	f103 4380 	add.w	r3, r3, #1073741824	; 0x40000000
    1f4e:	f240 0168 	movw	r1, #104	; 0x68
    1f52:	3b01      	subs	r3, #1
    1f54:	f6c0 0100 	movt	r1, #2048	; 0x800
    1f58:	f841 2023 	str.w	r2, [r1, r3, lsl #2]
    1f5c:	f851 2023 	ldr.w	r2, [r1, r3, lsl #2]
    1f60:	e004      	b.n	1f6c <system__bb__threads__queues__change_priority+0x40>
    1f62:	f8d3 40ac 	ldr.w	r4, [r3, #172]	; 0xac
    1f66:	42a5      	cmp	r5, r4
    1f68:	da04      	bge.n	1f74 <system__bb__threads__queues__change_priority+0x48>
    1f6a:	461a      	mov	r2, r3
    1f6c:	f8d2 30b8 	ldr.w	r3, [r2, #184]	; 0xb8
    1f70:	2b00      	cmp	r3, #0
    1f72:	d1f6      	bne.n	1f62 <system__bb__threads__queues__change_priority+0x36>
    1f74:	f8c6 30b8 	str.w	r3, [r6, #184]	; 0xb8
    1f78:	f8c2 60b8 	str.w	r6, [r2, #184]	; 0xb8
    1f7c:	bd70      	pop	{r4, r5, r6, pc}
    1f7e:	bf00      	nop

00001f80 <context_switch_needed>:
    1f80:	f240 0268 	movw	r2, #104	; 0x68
    1f84:	f240 0374 	movw	r3, #116	; 0x74
    1f88:	f6c0 0200 	movt	r2, #2048	; 0x800
    1f8c:	f6c0 0300 	movt	r3, #2048	; 0x800
    1f90:	6810      	ldr	r0, [r2, #0]
    1f92:	681b      	ldr	r3, [r3, #0]
    1f94:	1a18      	subs	r0, r3, r0
    1f96:	bf18      	it	ne
    1f98:	2001      	movne	r0, #1
    1f9a:	4770      	bx	lr

00001f9c <system__bb__threads__queues__current_priority>:
    1f9c:	b240      	sxtb	r0, r0
    1f9e:	f100 4080 	add.w	r0, r0, #1073741824	; 0x40000000
    1fa2:	f240 0374 	movw	r3, #116	; 0x74
    1fa6:	3801      	subs	r0, #1
    1fa8:	f6c0 0300 	movt	r3, #2048	; 0x800
    1fac:	f853 3020 	ldr.w	r3, [r3, r0, lsl #2]
    1fb0:	b12b      	cbz	r3, 1fbe <system__bb__threads__queues__current_priority+0x22>
    1fb2:	f893 20cc 	ldrb.w	r2, [r3, #204]	; 0xcc
    1fb6:	b912      	cbnz	r2, 1fbe <system__bb__threads__queues__current_priority+0x22>
    1fb8:	f8d3 00ac 	ldr.w	r0, [r3, #172]	; 0xac
    1fbc:	4770      	bx	lr
    1fbe:	2000      	movs	r0, #0
    1fc0:	4770      	bx	lr
    1fc2:	bf00      	nop

00001fc4 <system__bb__threads__queues__extract>:
    1fc4:	b538      	push	{r3, r4, r5, lr}
    1fc6:	4604      	mov	r4, r0
    1fc8:	f001 f81a 	bl	3000 <system__bb__threads__get_cpu>
    1fcc:	f06f 4240 	mvn.w	r2, #3221225472	; 0xc0000000
    1fd0:	f240 0368 	movw	r3, #104	; 0x68
    1fd4:	2500      	movs	r5, #0
    1fd6:	f6c0 0300 	movt	r3, #2048	; 0x800
    1fda:	f8d4 10b8 	ldr.w	r1, [r4, #184]	; 0xb8
    1fde:	f8c4 50b8 	str.w	r5, [r4, #184]	; 0xb8
    1fe2:	fa42 f080 	sxtab	r0, r2, r0
    1fe6:	f843 1020 	str.w	r1, [r3, r0, lsl #2]
    1fea:	bd38      	pop	{r3, r4, r5, pc}

00001fec <system__bb__threads__queues__extract_first_alarm>:
    1fec:	b430      	push	{r4, r5}
    1fee:	f240 0370 	movw	r3, #112	; 0x70
    1ff2:	f04f 34ff 	mov.w	r4, #4294967295
    1ff6:	f6c0 0300 	movt	r3, #2048	; 0x800
    1ffa:	f04f 35ff 	mov.w	r5, #4294967295
    1ffe:	2200      	movs	r2, #0
    2000:	6818      	ldr	r0, [r3, #0]
    2002:	e9c0 4530 	strd	r4, r5, [r0, #192]	; 0xc0
    2006:	f8d0 10c8 	ldr.w	r1, [r0, #200]	; 0xc8
    200a:	6019      	str	r1, [r3, #0]
    200c:	f8c0 20c8 	str.w	r2, [r0, #200]	; 0xc8
    2010:	bc30      	pop	{r4, r5}
    2012:	4770      	bx	lr

00002014 <system__bb__threads__queues__first_thread>:
    2014:	f240 0368 	movw	r3, #104	; 0x68
    2018:	f6c0 0300 	movt	r3, #2048	; 0x800
    201c:	6818      	ldr	r0, [r3, #0]
    201e:	4770      	bx	lr

00002020 <system__bb__threads__queues__get_next_alarm_time>:
    2020:	b240      	sxtb	r0, r0
    2022:	f100 4080 	add.w	r0, r0, #1073741824	; 0x40000000
    2026:	f240 0370 	movw	r3, #112	; 0x70
    202a:	3801      	subs	r0, #1
    202c:	f6c0 0300 	movt	r3, #2048	; 0x800
    2030:	f853 3020 	ldr.w	r3, [r3, r0, lsl #2]
    2034:	b113      	cbz	r3, 203c <system__bb__threads__queues__get_next_alarm_time+0x1c>
    2036:	e9d3 0130 	ldrd	r0, r1, [r3, #192]	; 0xc0
    203a:	4770      	bx	lr
    203c:	f04f 30ff 	mov.w	r0, #4294967295
    2040:	f04f 31ff 	mov.w	r1, #4294967295
    2044:	4770      	bx	lr
    2046:	bf00      	nop

00002048 <system__bb__threads__queues__insert>:
    2048:	b510      	push	{r4, lr}
    204a:	4604      	mov	r4, r0
    204c:	f000 ffd8 	bl	3000 <system__bb__threads__get_cpu>
    2050:	f240 0368 	movw	r3, #104	; 0x68
    2054:	f6c0 0300 	movt	r3, #2048	; 0x800
    2058:	b240      	sxtb	r0, r0
    205a:	f100 4080 	add.w	r0, r0, #1073741824	; 0x40000000
    205e:	3801      	subs	r0, #1
    2060:	f853 2020 	ldr.w	r2, [r3, r0, lsl #2]
    2064:	4294      	cmp	r4, r2
    2066:	d021      	beq.n	20ac <system__bb__threads__queues__insert+0x64>
    2068:	f853 2020 	ldr.w	r2, [r3, r0, lsl #2]
    206c:	b1fa      	cbz	r2, 20ae <system__bb__threads__queues__insert+0x66>
    206e:	f8d4 10ac 	ldr.w	r1, [r4, #172]	; 0xac
    2072:	f853 2020 	ldr.w	r2, [r3, r0, lsl #2]
    2076:	f8d2 20ac 	ldr.w	r2, [r2, #172]	; 0xac
    207a:	4291      	cmp	r1, r2
    207c:	dc17      	bgt.n	20ae <system__bb__threads__queues__insert+0x66>
    207e:	f853 2020 	ldr.w	r2, [r3, r0, lsl #2]
    2082:	e008      	b.n	2096 <system__bb__threads__queues__insert+0x4e>
    2084:	429c      	cmp	r4, r3
    2086:	d019      	beq.n	20bc <system__bb__threads__queues__insert+0x74>
    2088:	f8d3 00ac 	ldr.w	r0, [r3, #172]	; 0xac
    208c:	f8d4 10ac 	ldr.w	r1, [r4, #172]	; 0xac
    2090:	4288      	cmp	r0, r1
    2092:	db05      	blt.n	20a0 <system__bb__threads__queues__insert+0x58>
    2094:	461a      	mov	r2, r3
    2096:	f8d2 30b8 	ldr.w	r3, [r2, #184]	; 0xb8
    209a:	2b00      	cmp	r3, #0
    209c:	d1f2      	bne.n	2084 <system__bb__threads__queues__insert+0x3c>
    209e:	b16c      	cbz	r4, 20bc <system__bb__threads__queues__insert+0x74>
    20a0:	f8d2 30b8 	ldr.w	r3, [r2, #184]	; 0xb8
    20a4:	f8c4 30b8 	str.w	r3, [r4, #184]	; 0xb8
    20a8:	f8c2 40b8 	str.w	r4, [r2, #184]	; 0xb8
    20ac:	bd10      	pop	{r4, pc}
    20ae:	f853 2020 	ldr.w	r2, [r3, r0, lsl #2]
    20b2:	f8c4 20b8 	str.w	r2, [r4, #184]	; 0xb8
    20b6:	f843 4020 	str.w	r4, [r3, r0, lsl #2]
    20ba:	bd10      	pop	{r4, pc}
    20bc:	f8d4 30b8 	ldr.w	r3, [r4, #184]	; 0xb8
    20c0:	f8c2 30b8 	str.w	r3, [r2, #184]	; 0xb8
    20c4:	e006      	b.n	20d4 <system__bb__threads__queues__insert+0x8c>
    20c6:	f8d3 00ac 	ldr.w	r0, [r3, #172]	; 0xac
    20ca:	f8d4 10ac 	ldr.w	r1, [r4, #172]	; 0xac
    20ce:	4288      	cmp	r0, r1
    20d0:	dbe6      	blt.n	20a0 <system__bb__threads__queues__insert+0x58>
    20d2:	461a      	mov	r2, r3
    20d4:	f8d2 30b8 	ldr.w	r3, [r2, #184]	; 0xb8
    20d8:	2b00      	cmp	r3, #0
    20da:	d1f4      	bne.n	20c6 <system__bb__threads__queues__insert+0x7e>
    20dc:	e7e0      	b.n	20a0 <system__bb__threads__queues__insert+0x58>
    20de:	bf00      	nop

000020e0 <system__bb__threads__queues__insert_alarm>:
    20e0:	e92d 43d0 	stmdb	sp!, {r4, r6, r7, r8, r9, lr}
    20e4:	4606      	mov	r6, r0
    20e6:	4610      	mov	r0, r2
    20e8:	4614      	mov	r4, r2
    20ea:	460f      	mov	r7, r1
    20ec:	f000 ff88 	bl	3000 <system__bb__threads__get_cpu>
    20f0:	f240 0270 	movw	r2, #112	; 0x70
    20f4:	f6c0 0200 	movt	r2, #2048	; 0x800
    20f8:	e9c4 6730 	strd	r6, r7, [r4, #192]	; 0xc0
    20fc:	b240      	sxtb	r0, r0
    20fe:	f100 4380 	add.w	r3, r0, #1073741824	; 0x40000000
    2102:	3b01      	subs	r3, #1
    2104:	f852 1023 	ldr.w	r1, [r2, r3, lsl #2]
    2108:	b1c1      	cbz	r1, 213c <system__bb__threads__queues__insert_alarm+0x5c>
    210a:	e9d1 8930 	ldrd	r8, r9, [r1, #192]	; 0xc0
    210e:	454f      	cmp	r7, r9
    2110:	bf08      	it	eq
    2112:	4546      	cmpeq	r6, r8
    2114:	d207      	bcs.n	2126 <system__bb__threads__queues__insert_alarm+0x46>
    2116:	e011      	b.n	213c <system__bb__threads__queues__insert_alarm+0x5c>
    2118:	e9d3 8930 	ldrd	r8, r9, [r3, #192]	; 0xc0
    211c:	45b9      	cmp	r9, r7
    211e:	bf08      	it	eq
    2120:	45b0      	cmpeq	r8, r6
    2122:	d204      	bcs.n	212e <system__bb__threads__queues__insert_alarm+0x4e>
    2124:	4619      	mov	r1, r3
    2126:	f8d1 30c8 	ldr.w	r3, [r1, #200]	; 0xc8
    212a:	2b00      	cmp	r3, #0
    212c:	d1f4      	bne.n	2118 <system__bb__threads__queues__insert_alarm+0x38>
    212e:	f8c4 30c8 	str.w	r3, [r4, #200]	; 0xc8
    2132:	2000      	movs	r0, #0
    2134:	f8c1 40c8 	str.w	r4, [r1, #200]	; 0xc8
    2138:	e8bd 83d0 	ldmia.w	sp!, {r4, r6, r7, r8, r9, pc}
    213c:	f8c4 10c8 	str.w	r1, [r4, #200]	; 0xc8
    2140:	2001      	movs	r0, #1
    2142:	f842 4023 	str.w	r4, [r2, r3, lsl #2]
    2146:	e8bd 83d0 	ldmia.w	sp!, {r4, r6, r7, r8, r9, pc}
    214a:	bf00      	nop

0000214c <system__bb__threads__queues__running_thread>:
    214c:	f240 0374 	movw	r3, #116	; 0x74
    2150:	f6c0 0300 	movt	r3, #2048	; 0x800
    2154:	6818      	ldr	r0, [r3, #0]
    2156:	4770      	bx	lr

00002158 <system__bb__threads__queues__wakeup_expired_alarms>:
    2158:	e92d 47f0 	stmdb	sp!, {r4, r5, r6, r7, r8, r9, sl, lr}
    215c:	f240 0a70 	movw	sl, #112	; 0x70
    2160:	f240 0968 	movw	r9, #104	; 0x68
    2164:	4604      	mov	r4, r0
    2166:	460d      	mov	r5, r1
    2168:	f6c0 0a00 	movt	sl, #2048	; 0x800
    216c:	f6c0 0900 	movt	r9, #2048	; 0x800
    2170:	f04f 36ff 	mov.w	r6, #4294967295
    2174:	f04f 37ff 	mov.w	r7, #4294967295
    2178:	f8da 8000 	ldr.w	r8, [sl]
    217c:	f1b8 0f00 	cmp.w	r8, #0
    2180:	d047      	beq.n	2212 <system__bb__threads__queues__wakeup_expired_alarms+0xba>
    2182:	e9d8 2330 	ldrd	r2, r3, [r8, #192]	; 0xc0
    2186:	429d      	cmp	r5, r3
    2188:	bf08      	it	eq
    218a:	4294      	cmpeq	r4, r2
    218c:	d349      	bcc.n	2222 <system__bb__threads__queues__wakeup_expired_alarms+0xca>
    218e:	2200      	movs	r2, #0
    2190:	4640      	mov	r0, r8
    2192:	f8d8 30c8 	ldr.w	r3, [r8, #200]	; 0xc8
    2196:	f888 20cc 	strb.w	r2, [r8, #204]	; 0xcc
    219a:	f8c8 20c8 	str.w	r2, [r8, #200]	; 0xc8
    219e:	e9c8 6730 	strd	r6, r7, [r8, #192]	; 0xc0
    21a2:	f8ca 3000 	str.w	r3, [sl]
    21a6:	f000 ff2b 	bl	3000 <system__bb__threads__get_cpu>
    21aa:	f240 0268 	movw	r2, #104	; 0x68
    21ae:	f6c0 0200 	movt	r2, #2048	; 0x800
    21b2:	b240      	sxtb	r0, r0
    21b4:	f100 4080 	add.w	r0, r0, #1073741824	; 0x40000000
    21b8:	3801      	subs	r0, #1
    21ba:	f859 3020 	ldr.w	r3, [r9, r0, lsl #2]
    21be:	4598      	cmp	r8, r3
    21c0:	d0da      	beq.n	2178 <system__bb__threads__queues__wakeup_expired_alarms+0x20>
    21c2:	f852 3020 	ldr.w	r3, [r2, r0, lsl #2]
    21c6:	b39b      	cbz	r3, 2230 <system__bb__threads__queues__wakeup_expired_alarms+0xd8>
    21c8:	f8d8 10ac 	ldr.w	r1, [r8, #172]	; 0xac
    21cc:	f852 3020 	ldr.w	r3, [r2, r0, lsl #2]
    21d0:	f8d3 30ac 	ldr.w	r3, [r3, #172]	; 0xac
    21d4:	4299      	cmp	r1, r3
    21d6:	dc2b      	bgt.n	2230 <system__bb__threads__queues__wakeup_expired_alarms+0xd8>
    21d8:	f852 2020 	ldr.w	r2, [r2, r0, lsl #2]
    21dc:	e008      	b.n	21f0 <system__bb__threads__queues__wakeup_expired_alarms+0x98>
    21de:	4543      	cmp	r3, r8
    21e0:	d02d      	beq.n	223e <system__bb__threads__queues__wakeup_expired_alarms+0xe6>
    21e2:	f8d3 00ac 	ldr.w	r0, [r3, #172]	; 0xac
    21e6:	f8d8 10ac 	ldr.w	r1, [r8, #172]	; 0xac
    21ea:	4288      	cmp	r0, r1
    21ec:	db04      	blt.n	21f8 <system__bb__threads__queues__wakeup_expired_alarms+0xa0>
    21ee:	461a      	mov	r2, r3
    21f0:	f8d2 30b8 	ldr.w	r3, [r2, #184]	; 0xb8
    21f4:	2b00      	cmp	r3, #0
    21f6:	d1f2      	bne.n	21de <system__bb__threads__queues__wakeup_expired_alarms+0x86>
    21f8:	4543      	cmp	r3, r8
    21fa:	d020      	beq.n	223e <system__bb__threads__queues__wakeup_expired_alarms+0xe6>
    21fc:	f8d2 30b8 	ldr.w	r3, [r2, #184]	; 0xb8
    2200:	f8c8 30b8 	str.w	r3, [r8, #184]	; 0xb8
    2204:	f8c2 80b8 	str.w	r8, [r2, #184]	; 0xb8
    2208:	f8da 8000 	ldr.w	r8, [sl]
    220c:	f1b8 0f00 	cmp.w	r8, #0
    2210:	d1b7      	bne.n	2182 <system__bb__threads__queues__wakeup_expired_alarms+0x2a>
    2212:	f04f 33ff 	mov.w	r3, #4294967295
    2216:	f04f 32ff 	mov.w	r2, #4294967295
    221a:	429d      	cmp	r5, r3
    221c:	bf08      	it	eq
    221e:	4294      	cmpeq	r4, r2
    2220:	d2b5      	bcs.n	218e <system__bb__threads__queues__wakeup_expired_alarms+0x36>
    2222:	2001      	movs	r0, #1
    2224:	f005 fc18 	bl	7a58 <system__bb__time__get_next_timeout>
    2228:	e8bd 47f0 	ldmia.w	sp!, {r4, r5, r6, r7, r8, r9, sl, lr}
    222c:	f005 bca8 	b.w	7b80 <system__bb__time__update_alarm>
    2230:	f852 3020 	ldr.w	r3, [r2, r0, lsl #2]
    2234:	f8c8 30b8 	str.w	r3, [r8, #184]	; 0xb8
    2238:	f842 8020 	str.w	r8, [r2, r0, lsl #2]
    223c:	e79c      	b.n	2178 <system__bb__threads__queues__wakeup_expired_alarms+0x20>
    223e:	f8d8 30b8 	ldr.w	r3, [r8, #184]	; 0xb8
    2242:	4611      	mov	r1, r2
    2244:	f8c2 30b8 	str.w	r3, [r2, #184]	; 0xb8
    2248:	e006      	b.n	2258 <system__bb__threads__queues__wakeup_expired_alarms+0x100>
    224a:	f8d3 00ac 	ldr.w	r0, [r3, #172]	; 0xac
    224e:	f8d8 20ac 	ldr.w	r2, [r8, #172]	; 0xac
    2252:	4290      	cmp	r0, r2
    2254:	db04      	blt.n	2260 <system__bb__threads__queues__wakeup_expired_alarms+0x108>
    2256:	4619      	mov	r1, r3
    2258:	f8d1 30b8 	ldr.w	r3, [r1, #184]	; 0xb8
    225c:	2b00      	cmp	r3, #0
    225e:	d1f4      	bne.n	224a <system__bb__threads__queues__wakeup_expired_alarms+0xf2>
    2260:	460a      	mov	r2, r1
    2262:	e7cb      	b.n	21fc <system__bb__threads__queues__wakeup_expired_alarms+0xa4>

00002264 <system__bb__threads__queues__yield>:
    2264:	b570      	push	{r4, r5, r6, lr}
    2266:	4605      	mov	r5, r0
    2268:	f8d0 60ac 	ldr.w	r6, [r0, #172]	; 0xac
    226c:	f000 fec8 	bl	3000 <system__bb__threads__get_cpu>
    2270:	f8d5 20b8 	ldr.w	r2, [r5, #184]	; 0xb8
    2274:	b11a      	cbz	r2, 227e <system__bb__threads__queues__yield+0x1a>
    2276:	f8d2 40ac 	ldr.w	r4, [r2, #172]	; 0xac
    227a:	42b4      	cmp	r4, r6
    227c:	d000      	beq.n	2280 <system__bb__threads__queues__yield+0x1c>
    227e:	bd70      	pop	{r4, r5, r6, pc}
    2280:	b243      	sxtb	r3, r0
    2282:	f103 4380 	add.w	r3, r3, #1073741824	; 0x40000000
    2286:	f240 0168 	movw	r1, #104	; 0x68
    228a:	3b01      	subs	r3, #1
    228c:	f6c0 0100 	movt	r1, #2048	; 0x800
    2290:	f841 2023 	str.w	r2, [r1, r3, lsl #2]
    2294:	f851 2023 	ldr.w	r2, [r1, r3, lsl #2]
    2298:	e004      	b.n	22a4 <system__bb__threads__queues__yield+0x40>
    229a:	f8d3 10ac 	ldr.w	r1, [r3, #172]	; 0xac
    229e:	428c      	cmp	r4, r1
    22a0:	d104      	bne.n	22ac <system__bb__threads__queues__yield+0x48>
    22a2:	461a      	mov	r2, r3
    22a4:	f8d2 30b8 	ldr.w	r3, [r2, #184]	; 0xb8
    22a8:	2b00      	cmp	r3, #0
    22aa:	d1f6      	bne.n	229a <system__bb__threads__queues__yield+0x36>
    22ac:	f8c5 30b8 	str.w	r3, [r5, #184]	; 0xb8
    22b0:	f8c2 50b8 	str.w	r5, [r2, #184]	; 0xb8
    22b4:	bd70      	pop	{r4, r5, r6, pc}
    22b6:	bf00      	nop

000022b8 <ada__real_time__delays__delay_until>:
    22b8:	b510      	push	{r4, lr}
    22ba:	f240 0374 	movw	r3, #116	; 0x74
    22be:	f6c0 0300 	movt	r3, #2048	; 0x800
    22c2:	681a      	ldr	r2, [r3, #0]
    22c4:	f8d2 20a0 	ldr.w	r2, [r2, #160]	; 0xa0
    22c8:	6912      	ldr	r2, [r2, #16]
    22ca:	2a00      	cmp	r2, #0
    22cc:	dc09      	bgt.n	22e2 <ada__real_time__delays__delay_until+0x2a>
    22ce:	681a      	ldr	r2, [r3, #0]
    22d0:	2307      	movs	r3, #7
    22d2:	f8d2 40a0 	ldr.w	r4, [r2, #160]	; 0xa0
    22d6:	7223      	strb	r3, [r4, #8]
    22d8:	f005 fca4 	bl	7c24 <system__bb__time__delay_until>
    22dc:	2301      	movs	r3, #1
    22de:	7223      	strb	r3, [r4, #8]
    22e0:	bd10      	pop	{r4, pc}
    22e2:	f24c 1048 	movw	r0, #49480	; 0xc148
    22e6:	2133      	movs	r1, #51	; 0x33
    22e8:	f2c0 0000 	movt	r0, #0
    22ec:	f003 f976 	bl	55dc <__gnat_rcheck_PE_Explicit_Raise>

000022f0 <ada__real_time__delays__to_duration>:
    22f0:	2000      	movs	r0, #0
    22f2:	2100      	movs	r1, #0
    22f4:	4770      	bx	lr
    22f6:	bf00      	nop

000022f8 <system__soft_links__abort_defer_raven>:
    22f8:	4770      	bx	lr
    22fa:	bf00      	nop

000022fc <system__soft_links__abort_undefer_raven>:
    22fc:	4770      	bx	lr
    22fe:	bf00      	nop

00002300 <system__soft_links__get_current_excep_soft>:
    2300:	f240 0374 	movw	r3, #116	; 0x74
    2304:	f6c0 0300 	movt	r3, #2048	; 0x800
    2308:	681b      	ldr	r3, [r3, #0]
    230a:	f8d3 00a0 	ldr.w	r0, [r3, #160]	; 0xa0
    230e:	f500 708c 	add.w	r0, r0, #280	; 0x118
    2312:	4770      	bx	lr

00002314 <system__soft_links__get_jmpbuf_address_soft>:
    2314:	f240 0374 	movw	r3, #116	; 0x74
    2318:	f6c0 0300 	movt	r3, #2048	; 0x800
    231c:	681b      	ldr	r3, [r3, #0]
    231e:	f8d3 30a0 	ldr.w	r3, [r3, #160]	; 0xa0
    2322:	f8d3 0114 	ldr.w	r0, [r3, #276]	; 0x114
    2326:	4770      	bx	lr

00002328 <system__soft_links__adafinal_soft>:
    2328:	f240 038c 	movw	r3, #140	; 0x8c
    232c:	f6c0 0300 	movt	r3, #2048	; 0x800
    2330:	f24c 502c 	movw	r0, #50476	; 0xc52c
    2334:	f2c0 0000 	movt	r0, #0
    2338:	681b      	ldr	r3, [r3, #0]
    233a:	4718      	bx	r3

0000233c <system__soft_links__set_jmpbuf_address_soft>:
    233c:	f240 0374 	movw	r3, #116	; 0x74
    2340:	f6c0 0300 	movt	r3, #2048	; 0x800
    2344:	681b      	ldr	r3, [r3, #0]
    2346:	f8d3 30a0 	ldr.w	r3, [r3, #160]	; 0xa0
    234a:	f8c3 0114 	str.w	r0, [r3, #276]	; 0x114
    234e:	4770      	bx	lr

00002350 <system__soft_links__task_unlock_soft>:
    2350:	f240 0274 	movw	r2, #116	; 0x74
    2354:	f6c0 0200 	movt	r2, #2048	; 0x800
    2358:	6813      	ldr	r3, [r2, #0]
    235a:	f8d3 10a0 	ldr.w	r1, [r3, #160]	; 0xa0
    235e:	f8d1 32c8 	ldr.w	r3, [r1, #712]	; 0x2c8
    2362:	3b01      	subs	r3, #1
    2364:	f8c1 32c8 	str.w	r3, [r1, #712]	; 0x2c8
    2368:	b103      	cbz	r3, 236c <system__soft_links__task_unlock_soft+0x1c>
    236a:	4770      	bx	lr
    236c:	b410      	push	{r4}
    236e:	f642 0308 	movw	r3, #10248	; 0x2808
    2372:	f6c0 0300 	movt	r3, #2048	; 0x800
    2376:	6818      	ldr	r0, [r3, #0]
    2378:	b672      	cpsid	i
    237a:	6814      	ldr	r4, [r2, #0]
    237c:	f894 30a4 	ldrb.w	r3, [r4, #164]	; 0xa4
    2380:	2b00      	cmp	r3, #0
    2382:	f8c4 00ac 	str.w	r0, [r4, #172]	; 0xac
    2386:	bf08      	it	eq
    2388:	2301      	moveq	r3, #1
    238a:	f8d4 20b8 	ldr.w	r2, [r4, #184]	; 0xb8
    238e:	b1ea      	cbz	r2, 23cc <system__soft_links__task_unlock_soft+0x7c>
    2390:	f8d2 10ac 	ldr.w	r1, [r2, #172]	; 0xac
    2394:	4288      	cmp	r0, r1
    2396:	da19      	bge.n	23cc <system__soft_links__task_unlock_soft+0x7c>
    2398:	b25b      	sxtb	r3, r3
    239a:	f103 4380 	add.w	r3, r3, #1073741824	; 0x40000000
    239e:	f240 0168 	movw	r1, #104	; 0x68
    23a2:	3b01      	subs	r3, #1
    23a4:	f6c0 0100 	movt	r1, #2048	; 0x800
    23a8:	f841 2023 	str.w	r2, [r1, r3, lsl #2]
    23ac:	f851 2023 	ldr.w	r2, [r1, r3, lsl #2]
    23b0:	e004      	b.n	23bc <system__soft_links__task_unlock_soft+0x6c>
    23b2:	f8d3 10ac 	ldr.w	r1, [r3, #172]	; 0xac
    23b6:	4288      	cmp	r0, r1
    23b8:	da04      	bge.n	23c4 <system__soft_links__task_unlock_soft+0x74>
    23ba:	461a      	mov	r2, r3
    23bc:	f8d2 30b8 	ldr.w	r3, [r2, #184]	; 0xb8
    23c0:	2b00      	cmp	r3, #0
    23c2:	d1f6      	bne.n	23b2 <system__soft_links__task_unlock_soft+0x62>
    23c4:	f8c4 30b8 	str.w	r3, [r4, #184]	; 0xb8
    23c8:	f8c2 40b8 	str.w	r4, [r2, #184]	; 0xb8
    23cc:	f85d 4b04 	ldr.w	r4, [sp], #4
    23d0:	f000 bb58 	b.w	2a84 <system__bb__protection__leave_kernel>

000023d4 <system__soft_links__task_termination_soft>:
    23d4:	b5f0      	push	{r4, r5, r6, r7, lr}
    23d6:	b083      	sub	sp, #12
    23d8:	f240 0474 	movw	r4, #116	; 0x74
    23dc:	2300      	movs	r3, #0
    23de:	f6c0 0400 	movt	r4, #2048	; 0x800
    23e2:	9300      	str	r3, [sp, #0]
    23e4:	9301      	str	r3, [sp, #4]
    23e6:	6823      	ldr	r3, [r4, #0]
    23e8:	f8d3 60a0 	ldr.w	r6, [r3, #160]	; 0xa0
    23ec:	b672      	cpsid	i
    23ee:	6821      	ldr	r1, [r4, #0]
    23f0:	22f2      	movs	r2, #242	; 0xf2
    23f2:	f891 30a4 	ldrb.w	r3, [r1, #164]	; 0xa4
    23f6:	2b00      	cmp	r3, #0
    23f8:	f8c1 20ac 	str.w	r2, [r1, #172]	; 0xac
    23fc:	bf08      	it	eq
    23fe:	2301      	moveq	r3, #1
    2400:	f8d1 20b8 	ldr.w	r2, [r1, #184]	; 0xb8
    2404:	b1ea      	cbz	r2, 2442 <system__soft_links__task_termination_soft+0x6e>
    2406:	f8d2 00ac 	ldr.w	r0, [r2, #172]	; 0xac
    240a:	28f2      	cmp	r0, #242	; 0xf2
    240c:	dd19      	ble.n	2442 <system__soft_links__task_termination_soft+0x6e>
    240e:	b25b      	sxtb	r3, r3
    2410:	f103 4380 	add.w	r3, r3, #1073741824	; 0x40000000
    2414:	f240 0068 	movw	r0, #104	; 0x68
    2418:	3b01      	subs	r3, #1
    241a:	f6c0 0000 	movt	r0, #2048	; 0x800
    241e:	f840 2023 	str.w	r2, [r0, r3, lsl #2]
    2422:	f850 2023 	ldr.w	r2, [r0, r3, lsl #2]
    2426:	e004      	b.n	2432 <system__soft_links__task_termination_soft+0x5e>
    2428:	f8d3 00ac 	ldr.w	r0, [r3, #172]	; 0xac
    242c:	28f2      	cmp	r0, #242	; 0xf2
    242e:	dd04      	ble.n	243a <system__soft_links__task_termination_soft+0x66>
    2430:	461a      	mov	r2, r3
    2432:	f8d2 30b8 	ldr.w	r3, [r2, #184]	; 0xb8
    2436:	2b00      	cmp	r3, #0
    2438:	d1f6      	bne.n	2428 <system__soft_links__task_termination_soft+0x54>
    243a:	f8c1 30b8 	str.w	r3, [r1, #184]	; 0xb8
    243e:	f8c2 10b8 	str.w	r1, [r2, #184]	; 0xb8
    2442:	f000 fb1f 	bl	2a84 <system__bb__protection__leave_kernel>
    2446:	f240 13b4 	movw	r3, #436	; 0x1b4
    244a:	f6c0 0300 	movt	r3, #2048	; 0x800
    244e:	466f      	mov	r7, sp
    2450:	68f5      	ldr	r5, [r6, #12]
    2452:	e893 0003 	ldmia.w	r3, {r0, r1}
    2456:	e88d 0003 	stmia.w	sp, {r0, r1}
    245a:	b672      	cpsid	i
    245c:	6821      	ldr	r1, [r4, #0]
    245e:	f891 30a4 	ldrb.w	r3, [r1, #164]	; 0xa4
    2462:	2b00      	cmp	r3, #0
    2464:	f8c1 50ac 	str.w	r5, [r1, #172]	; 0xac
    2468:	bf08      	it	eq
    246a:	2301      	moveq	r3, #1
    246c:	f8d1 20b8 	ldr.w	r2, [r1, #184]	; 0xb8
    2470:	b1ea      	cbz	r2, 24ae <system__soft_links__task_termination_soft+0xda>
    2472:	f8d2 00ac 	ldr.w	r0, [r2, #172]	; 0xac
    2476:	4285      	cmp	r5, r0
    2478:	da19      	bge.n	24ae <system__soft_links__task_termination_soft+0xda>
    247a:	b25b      	sxtb	r3, r3
    247c:	f103 4380 	add.w	r3, r3, #1073741824	; 0x40000000
    2480:	f240 0068 	movw	r0, #104	; 0x68
    2484:	3b01      	subs	r3, #1
    2486:	f6c0 0000 	movt	r0, #2048	; 0x800
    248a:	f840 2023 	str.w	r2, [r0, r3, lsl #2]
    248e:	f850 2023 	ldr.w	r2, [r0, r3, lsl #2]
    2492:	e004      	b.n	249e <system__soft_links__task_termination_soft+0xca>
    2494:	f8d3 40ac 	ldr.w	r4, [r3, #172]	; 0xac
    2498:	42a5      	cmp	r5, r4
    249a:	da04      	bge.n	24a6 <system__soft_links__task_termination_soft+0xd2>
    249c:	461a      	mov	r2, r3
    249e:	f8d2 30b8 	ldr.w	r3, [r2, #184]	; 0xb8
    24a2:	2b00      	cmp	r3, #0
    24a4:	d1f6      	bne.n	2494 <system__soft_links__task_termination_soft+0xc0>
    24a6:	f8c1 30b8 	str.w	r3, [r1, #184]	; 0xb8
    24aa:	f8c2 10b8 	str.w	r1, [r2, #184]	; 0xb8
    24ae:	f000 fae9 	bl	2a84 <system__bb__protection__leave_kernel>
    24b2:	f24c 1158 	movw	r1, #49496	; 0xc158
    24b6:	4638      	mov	r0, r7
    24b8:	2208      	movs	r2, #8
    24ba:	f2c0 0100 	movt	r1, #0
    24be:	f000 ff87 	bl	33d0 <memcmp>
    24c2:	b908      	cbnz	r0, 24c8 <system__soft_links__task_termination_soft+0xf4>
    24c4:	b003      	add	sp, #12
    24c6:	bdf0      	pop	{r4, r5, r6, r7, pc}
    24c8:	4631      	mov	r1, r6
    24ca:	e89d 0009 	ldmia.w	sp, {r0, r3}
    24ce:	b003      	add	sp, #12
    24d0:	e8bd 40f0 	ldmia.w	sp!, {r4, r5, r6, r7, lr}
    24d4:	4718      	bx	r3
    24d6:	bf00      	nop

000024d8 <system__soft_links__task_lock_soft>:
    24d8:	f240 0274 	movw	r2, #116	; 0x74
    24dc:	f6c0 0200 	movt	r2, #2048	; 0x800
    24e0:	6813      	ldr	r3, [r2, #0]
    24e2:	f8d3 10a0 	ldr.w	r1, [r3, #160]	; 0xa0
    24e6:	f8d1 32c8 	ldr.w	r3, [r1, #712]	; 0x2c8
    24ea:	3301      	adds	r3, #1
    24ec:	2b01      	cmp	r3, #1
    24ee:	f8c1 32c8 	str.w	r3, [r1, #712]	; 0x2c8
    24f2:	d000      	beq.n	24f6 <system__soft_links__task_lock_soft+0x1e>
    24f4:	4770      	bx	lr
    24f6:	b510      	push	{r4, lr}
    24f8:	f8d1 30f8 	ldr.w	r3, [r1, #248]	; 0xf8
    24fc:	f8d3 40ac 	ldr.w	r4, [r3, #172]	; 0xac
    2500:	b672      	cpsid	i
    2502:	6810      	ldr	r0, [r2, #0]
    2504:	22f2      	movs	r2, #242	; 0xf2
    2506:	f890 30a4 	ldrb.w	r3, [r0, #164]	; 0xa4
    250a:	2b00      	cmp	r3, #0
    250c:	f8c0 20ac 	str.w	r2, [r0, #172]	; 0xac
    2510:	bf08      	it	eq
    2512:	2301      	moveq	r3, #1
    2514:	f8d0 20b8 	ldr.w	r2, [r0, #184]	; 0xb8
    2518:	b1ea      	cbz	r2, 2556 <system__soft_links__task_lock_soft+0x7e>
    251a:	f8d2 10ac 	ldr.w	r1, [r2, #172]	; 0xac
    251e:	29f2      	cmp	r1, #242	; 0xf2
    2520:	dd19      	ble.n	2556 <system__soft_links__task_lock_soft+0x7e>
    2522:	b25b      	sxtb	r3, r3
    2524:	f103 4380 	add.w	r3, r3, #1073741824	; 0x40000000
    2528:	f240 0168 	movw	r1, #104	; 0x68
    252c:	3b01      	subs	r3, #1
    252e:	f6c0 0100 	movt	r1, #2048	; 0x800
    2532:	f841 2023 	str.w	r2, [r1, r3, lsl #2]
    2536:	f851 2023 	ldr.w	r2, [r1, r3, lsl #2]
    253a:	e004      	b.n	2546 <system__soft_links__task_lock_soft+0x6e>
    253c:	f8d3 10ac 	ldr.w	r1, [r3, #172]	; 0xac
    2540:	29f2      	cmp	r1, #242	; 0xf2
    2542:	dd04      	ble.n	254e <system__soft_links__task_lock_soft+0x76>
    2544:	461a      	mov	r2, r3
    2546:	f8d2 30b8 	ldr.w	r3, [r2, #184]	; 0xb8
    254a:	2b00      	cmp	r3, #0
    254c:	d1f6      	bne.n	253c <system__soft_links__task_lock_soft+0x64>
    254e:	f8c0 30b8 	str.w	r3, [r0, #184]	; 0xb8
    2552:	f8c2 00b8 	str.w	r0, [r2, #184]	; 0xb8
    2556:	f000 fa95 	bl	2a84 <system__bb__protection__leave_kernel>
    255a:	f642 0308 	movw	r3, #10248	; 0x2808
    255e:	f6c0 0300 	movt	r3, #2048	; 0x800
    2562:	601c      	str	r4, [r3, #0]
    2564:	bd10      	pop	{r4, pc}
    2566:	bf00      	nop

00002568 <system__soft_links__get_gnat_exception>:
    2568:	f240 0374 	movw	r3, #116	; 0x74
    256c:	f6c0 0300 	movt	r3, #2048	; 0x800
    2570:	681b      	ldr	r3, [r3, #0]
    2572:	f8d3 00a0 	ldr.w	r0, [r3, #160]	; 0xa0
    2576:	f500 708c 	add.w	r0, r0, #280	; 0x118
    257a:	f002 bcb7 	b.w	4eec <ada__exceptions__exception_identity>
    257e:	bf00      	nop

00002580 <system__soft_links___elabs>:
    2580:	f642 030c 	movw	r3, #10252	; 0x280c
    2584:	2200      	movs	r2, #0
    2586:	f6c0 0300 	movt	r3, #2048	; 0x800
    258a:	601a      	str	r2, [r3, #0]
    258c:	609a      	str	r2, [r3, #8]
    258e:	f883 20d4 	strb.w	r2, [r3, #212]	; 0xd4
    2592:	f8c3 20d8 	str.w	r2, [r3, #216]	; 0xd8
    2596:	f8c3 20dc 	str.w	r2, [r3, #220]	; 0xdc
    259a:	4770      	bx	lr

0000259c <system__secondary_stack__memoryIP>:
    259c:	4770      	bx	lr
    259e:	bf00      	nop

000025a0 <system__secondary_stack__ss_allocate>:
    25a0:	b510      	push	{r4, lr}
    25a2:	4604      	mov	r4, r0
    25a4:	f004 ffd8 	bl	7558 <__gnat_get_secondary_stack>
    25a8:	1de3      	adds	r3, r4, #7
    25aa:	f023 0307 	bic.w	r3, r3, #7
    25ae:	6802      	ldr	r2, [r0, #0]
    25b0:	6841      	ldr	r1, [r0, #4]
    25b2:	4413      	add	r3, r2
    25b4:	428b      	cmp	r3, r1
    25b6:	d804      	bhi.n	25c2 <system__secondary_stack__ss_allocate+0x22>
    25b8:	3207      	adds	r2, #7
    25ba:	4402      	add	r2, r0
    25bc:	6003      	str	r3, [r0, #0]
    25be:	4610      	mov	r0, r2
    25c0:	bd10      	pop	{r4, pc}
    25c2:	f24c 1074 	movw	r0, #49524	; 0xc174
    25c6:	216c      	movs	r1, #108	; 0x6c
    25c8:	f2c0 0000 	movt	r0, #0
    25cc:	f003 f85e 	bl	568c <__gnat_rcheck_SE_Explicit_Raise>

000025d0 <system__secondary_stack__ss_init>:
    25d0:	2301      	movs	r3, #1
    25d2:	3908      	subs	r1, #8
    25d4:	6003      	str	r3, [r0, #0]
    25d6:	6041      	str	r1, [r0, #4]
    25d8:	4770      	bx	lr
    25da:	bf00      	nop

000025dc <system__secondary_stack__ss_mark>:
    25dc:	b508      	push	{r3, lr}
    25de:	f004 ffbb 	bl	7558 <__gnat_get_secondary_stack>
    25e2:	6800      	ldr	r0, [r0, #0]
    25e4:	bd08      	pop	{r3, pc}
    25e6:	bf00      	nop

000025e8 <system__secondary_stack__ss_release>:
    25e8:	b510      	push	{r4, lr}
    25ea:	4604      	mov	r4, r0
    25ec:	f004 ffb4 	bl	7558 <__gnat_get_secondary_stack>
    25f0:	6004      	str	r4, [r0, #0]
    25f2:	bd10      	pop	{r4, pc}

000025f4 <system__standard_library__exception_dataIP>:
    25f4:	2300      	movs	r3, #0
    25f6:	60c3      	str	r3, [r0, #12]
    25f8:	6143      	str	r3, [r0, #20]
    25fa:	4770      	bx	lr

000025fc <system__standard_library__abort_undefer_direct>:
    25fc:	f7ff be7e 	b.w	22fc <system__soft_links__abort_undefer_raven>

00002600 <system__standard_library__adafinal>:
    2600:	f240 03e4 	movw	r3, #228	; 0xe4
    2604:	f6c0 0300 	movt	r3, #2048	; 0x800
    2608:	781a      	ldrb	r2, [r3, #0]
    260a:	b102      	cbz	r2, 260e <system__standard_library__adafinal+0xe>
    260c:	4770      	bx	lr
    260e:	f240 0288 	movw	r2, #136	; 0x88
    2612:	2101      	movs	r1, #1
    2614:	f6c0 0200 	movt	r2, #2048	; 0x800
    2618:	7019      	strb	r1, [r3, #0]
    261a:	6813      	ldr	r3, [r2, #0]
    261c:	4718      	bx	r3
    261e:	bf00      	nop

00002620 <__gnat_break_start>:
    2620:	4770      	bx	lr
    2622:	bf00      	nop

00002624 <system__exception_table__register.part.1>:
    2624:	b430      	push	{r4, r5}
    2626:	6883      	ldr	r3, [r0, #8]
    2628:	2100      	movs	r1, #0
    262a:	f103 4400 	add.w	r4, r3, #2147483648	; 0x80000000
    262e:	3c01      	subs	r4, #1
    2630:	e003      	b.n	263a <system__exception_table__register.part.1+0x16>
    2632:	42a3      	cmp	r3, r4
    2634:	ea81 0102 	eor.w	r1, r1, r2
    2638:	d003      	beq.n	2642 <system__exception_table__register.part.1+0x1e>
    263a:	781a      	ldrb	r2, [r3, #0]
    263c:	3301      	adds	r3, #1
    263e:	2a00      	cmp	r2, #0
    2640:	d1f7      	bne.n	2632 <system__exception_table__register.part.1+0xe>
    2642:	f249 144d 	movw	r4, #37197	; 0x914d
    2646:	f642 12b8 	movw	r2, #10680	; 0x29b8
    264a:	f6cb 24cf 	movt	r4, #47823	; 0xbacf
    264e:	f6c0 0200 	movt	r2, #2048	; 0x800
    2652:	fba1 4504 	umull	r4, r5, r1, r4
    2656:	1b4b      	subs	r3, r1, r5
    2658:	eb05 0353 	add.w	r3, r5, r3, lsr #1
    265c:	095b      	lsrs	r3, r3, #5
    265e:	eb03 04c3 	add.w	r4, r3, r3, lsl #3
    2662:	eb03 0384 	add.w	r3, r3, r4, lsl #2
    2666:	1acb      	subs	r3, r1, r3
    2668:	3301      	adds	r3, #1
    266a:	b2db      	uxtb	r3, r3
    266c:	f103 4380 	add.w	r3, r3, #1073741824	; 0x40000000
    2670:	3b01      	subs	r3, #1
    2672:	f852 1023 	ldr.w	r1, [r2, r3, lsl #2]
    2676:	2900      	cmp	r1, #0
    2678:	bf08      	it	eq
    267a:	4601      	moveq	r1, r0
    267c:	60c1      	str	r1, [r0, #12]
    267e:	f842 0023 	str.w	r0, [r2, r3, lsl #2]
    2682:	bc30      	pop	{r4, r5}
    2684:	4770      	bx	lr
    2686:	bf00      	nop

00002688 <system__exception_table__exception_data_arrayIP>:
    2688:	b410      	push	{r4}
    268a:	680c      	ldr	r4, [r1, #0]
    268c:	684b      	ldr	r3, [r1, #4]
    268e:	429c      	cmp	r4, r3
    2690:	dc08      	bgt.n	26a4 <system__exception_table__exception_data_arrayIP+0x1c>
    2692:	1c5a      	adds	r2, r3, #1
    2694:	2300      	movs	r3, #0
    2696:	1b12      	subs	r2, r2, r4
    2698:	4619      	mov	r1, r3
    269a:	f840 1023 	str.w	r1, [r0, r3, lsl #2]
    269e:	3301      	adds	r3, #1
    26a0:	4293      	cmp	r3, r2
    26a2:	d1fa      	bne.n	269a <system__exception_table__exception_data_arrayIP+0x12>
    26a4:	f85d 4b04 	ldr.w	r4, [sp], #4
    26a8:	4770      	bx	lr
    26aa:	bf00      	nop

000026ac <system__exception_table__ThtableBIP>:
    26ac:	b430      	push	{r4, r5}
    26ae:	780c      	ldrb	r4, [r1, #0]
    26b0:	7849      	ldrb	r1, [r1, #1]
    26b2:	428c      	cmp	r4, r1
    26b4:	d809      	bhi.n	26ca <system__exception_table__ThtableBIP+0x1e>
    26b6:	3101      	adds	r1, #1
    26b8:	4623      	mov	r3, r4
    26ba:	2500      	movs	r5, #0
    26bc:	b2da      	uxtb	r2, r3
    26be:	3301      	adds	r3, #1
    26c0:	1b12      	subs	r2, r2, r4
    26c2:	428b      	cmp	r3, r1
    26c4:	f840 5022 	str.w	r5, [r0, r2, lsl #2]
    26c8:	d1f8      	bne.n	26bc <system__exception_table__ThtableBIP+0x10>
    26ca:	bc30      	pop	{r4, r5}
    26cc:	4770      	bx	lr
    26ce:	bf00      	nop

000026d0 <system__exception_table__has_name>:
    26d0:	b430      	push	{r4, r5}
    26d2:	e893 0022 	ldmia.w	r3, {r1, r5}
    26d6:	6884      	ldr	r4, [r0, #8]
    26d8:	42a9      	cmp	r1, r5
    26da:	dc0d      	bgt.n	26f8 <system__exception_table__has_name+0x28>
    26dc:	1a64      	subs	r4, r4, r1
    26de:	1a52      	subs	r2, r2, r1
    26e0:	1e4b      	subs	r3, r1, #1
    26e2:	e001      	b.n	26e8 <system__exception_table__has_name+0x18>
    26e4:	429d      	cmp	r5, r3
    26e6:	d007      	beq.n	26f8 <system__exception_table__has_name+0x28>
    26e8:	3301      	adds	r3, #1
    26ea:	5ce0      	ldrb	r0, [r4, r3]
    26ec:	5cd1      	ldrb	r1, [r2, r3]
    26ee:	4288      	cmp	r0, r1
    26f0:	d0f8      	beq.n	26e4 <system__exception_table__has_name+0x14>
    26f2:	2000      	movs	r0, #0
    26f4:	bc30      	pop	{r4, r5}
    26f6:	4770      	bx	lr
    26f8:	2001      	movs	r0, #1
    26fa:	bc30      	pop	{r4, r5}
    26fc:	4770      	bx	lr
    26fe:	bf00      	nop

00002700 <system__exception_table__lookup>:
    2700:	e92d 43f0 	stmdb	sp!, {r4, r5, r6, r7, r8, r9, lr}
    2704:	680f      	ldr	r7, [r1, #0]
    2706:	684e      	ldr	r6, [r1, #4]
    2708:	42b7      	cmp	r7, r6
    270a:	dc3e      	bgt.n	278a <system__exception_table__lookup+0x8a>
    270c:	f107 3eff 	add.w	lr, r7, #4294967295
    2710:	427f      	negs	r7, r7
    2712:	19c5      	adds	r5, r0, r7
    2714:	4673      	mov	r3, lr
    2716:	2200      	movs	r2, #0
    2718:	e003      	b.n	2722 <system__exception_table__lookup+0x22>
    271a:	42b3      	cmp	r3, r6
    271c:	ea82 0201 	eor.w	r2, r2, r1
    2720:	d003      	beq.n	272a <system__exception_table__lookup+0x2a>
    2722:	3301      	adds	r3, #1
    2724:	5ce9      	ldrb	r1, [r5, r3]
    2726:	2900      	cmp	r1, #0
    2728:	d1f7      	bne.n	271a <system__exception_table__lookup+0x1a>
    272a:	f249 184d 	movw	r8, #37197	; 0x914d
    272e:	f642 11b8 	movw	r1, #10680	; 0x29b8
    2732:	f6cb 28cf 	movt	r8, #47823	; 0xbacf
    2736:	f6c0 0100 	movt	r1, #2048	; 0x800
    273a:	fba2 8908 	umull	r8, r9, r2, r8
    273e:	ebc9 0302 	rsb	r3, r9, r2
    2742:	eb09 0353 	add.w	r3, r9, r3, lsr #1
    2746:	095b      	lsrs	r3, r3, #5
    2748:	eb03 00c3 	add.w	r0, r3, r3, lsl #3
    274c:	eb03 0380 	add.w	r3, r3, r0, lsl #2
    2750:	1ad3      	subs	r3, r2, r3
    2752:	3301      	adds	r3, #1
    2754:	b2db      	uxtb	r3, r3
    2756:	f103 4380 	add.w	r3, r3, #1073741824	; 0x40000000
    275a:	3b01      	subs	r3, #1
    275c:	f851 0023 	ldr.w	r0, [r1, r3, lsl #2]
    2760:	b188      	cbz	r0, 2786 <system__exception_table__lookup+0x86>
    2762:	6884      	ldr	r4, [r0, #8]
    2764:	443c      	add	r4, r7
    2766:	4673      	mov	r3, lr
    2768:	e001      	b.n	276e <system__exception_table__lookup+0x6e>
    276a:	42b3      	cmp	r3, r6
    276c:	d00b      	beq.n	2786 <system__exception_table__lookup+0x86>
    276e:	3301      	adds	r3, #1
    2770:	5ce1      	ldrb	r1, [r4, r3]
    2772:	5cea      	ldrb	r2, [r5, r3]
    2774:	4291      	cmp	r1, r2
    2776:	d0f8      	beq.n	276a <system__exception_table__lookup+0x6a>
    2778:	68c3      	ldr	r3, [r0, #12]
    277a:	4283      	cmp	r3, r0
    277c:	d002      	beq.n	2784 <system__exception_table__lookup+0x84>
    277e:	689c      	ldr	r4, [r3, #8]
    2780:	4618      	mov	r0, r3
    2782:	e7ef      	b.n	2764 <system__exception_table__lookup+0x64>
    2784:	2000      	movs	r0, #0
    2786:	e8bd 83f0 	ldmia.w	sp!, {r4, r5, r6, r7, r8, r9, pc}
    278a:	f642 13b8 	movw	r3, #10680	; 0x29b8
    278e:	f6c0 0300 	movt	r3, #2048	; 0x800
    2792:	6818      	ldr	r0, [r3, #0]
    2794:	e8bd 83f0 	ldmia.w	sp!, {r4, r5, r6, r7, r8, r9, pc}

00002798 <system__exception_table__hash>:
    2798:	b430      	push	{r4, r5}
    279a:	e891 0018 	ldmia.w	r1, {r3, r4}
    279e:	42a3      	cmp	r3, r4
    27a0:	bfc8      	it	gt
    27a2:	2001      	movgt	r0, #1
    27a4:	dc1c      	bgt.n	27e0 <system__exception_table__hash+0x48>
    27a6:	1ac0      	subs	r0, r0, r3
    27a8:	2100      	movs	r1, #0
    27aa:	3b01      	subs	r3, #1
    27ac:	e003      	b.n	27b6 <system__exception_table__hash+0x1e>
    27ae:	429c      	cmp	r4, r3
    27b0:	ea81 0102 	eor.w	r1, r1, r2
    27b4:	d003      	beq.n	27be <system__exception_table__hash+0x26>
    27b6:	3301      	adds	r3, #1
    27b8:	5cc2      	ldrb	r2, [r0, r3]
    27ba:	2a00      	cmp	r2, #0
    27bc:	d1f7      	bne.n	27ae <system__exception_table__hash+0x16>
    27be:	f249 144d 	movw	r4, #37197	; 0x914d
    27c2:	f6cb 24cf 	movt	r4, #47823	; 0xbacf
    27c6:	fba1 4504 	umull	r4, r5, r1, r4
    27ca:	1b4b      	subs	r3, r1, r5
    27cc:	eb05 0353 	add.w	r3, r5, r3, lsr #1
    27d0:	095b      	lsrs	r3, r3, #5
    27d2:	eb03 00c3 	add.w	r0, r3, r3, lsl #3
    27d6:	eb03 0080 	add.w	r0, r3, r0, lsl #2
    27da:	1a08      	subs	r0, r1, r0
    27dc:	3001      	adds	r0, #1
    27de:	b2c0      	uxtb	r0, r0
    27e0:	bc30      	pop	{r4, r5}
    27e2:	4770      	bx	lr

000027e4 <system__exception_table__register>:
    27e4:	68c3      	ldr	r3, [r0, #12]
    27e6:	b103      	cbz	r3, 27ea <system__exception_table__register+0x6>
    27e8:	4770      	bx	lr
    27ea:	f7ff bf1b 	b.w	2624 <system__exception_table__register.part.1>
    27ee:	bf00      	nop

000027f0 <system__exception_table__get_registered_exceptions>:
    27f0:	b5f8      	push	{r3, r4, r5, r6, r7, lr}
    27f2:	f240 037c 	movw	r3, #124	; 0x7c
    27f6:	460d      	mov	r5, r1
    27f8:	f6c0 0300 	movt	r3, #2048	; 0x800
    27fc:	f642 17b8 	movw	r7, #10680	; 0x29b8
    2800:	680c      	ldr	r4, [r1, #0]
    2802:	4606      	mov	r6, r0
    2804:	f6c0 0700 	movt	r7, #2048	; 0x800
    2808:	681b      	ldr	r3, [r3, #0]
    280a:	4798      	blx	r3
    280c:	686d      	ldr	r5, [r5, #4]
    280e:	eba6 0084 	sub.w	r0, r6, r4, lsl #2
    2812:	1e63      	subs	r3, r4, #1
    2814:	f107 0494 	add.w	r4, r7, #148	; 0x94
    2818:	683a      	ldr	r2, [r7, #0]
    281a:	b192      	cbz	r2, 2842 <system__exception_table__get_registered_exceptions+0x52>
    281c:	429d      	cmp	r5, r3
    281e:	dd13      	ble.n	2848 <system__exception_table__get_registered_exceptions+0x58>
    2820:	68d1      	ldr	r1, [r2, #12]
    2822:	3301      	adds	r3, #1
    2824:	428a      	cmp	r2, r1
    2826:	f840 2023 	str.w	r2, [r0, r3, lsl #2]
    282a:	460a      	mov	r2, r1
    282c:	d009      	beq.n	2842 <system__exception_table__get_registered_exceptions+0x52>
    282e:	42ab      	cmp	r3, r5
    2830:	d1f6      	bne.n	2820 <system__exception_table__get_registered_exceptions+0x30>
    2832:	f240 0380 	movw	r3, #128	; 0x80
    2836:	f6c0 0300 	movt	r3, #2048	; 0x800
    283a:	681b      	ldr	r3, [r3, #0]
    283c:	4798      	blx	r3
    283e:	4628      	mov	r0, r5
    2840:	bdf8      	pop	{r3, r4, r5, r6, r7, pc}
    2842:	3704      	adds	r7, #4
    2844:	42a7      	cmp	r7, r4
    2846:	d1e7      	bne.n	2818 <system__exception_table__get_registered_exceptions+0x28>
    2848:	461d      	mov	r5, r3
    284a:	e7f2      	b.n	2832 <system__exception_table__get_registered_exceptions+0x42>

0000284c <system__exception_table__internal_exception>:
    284c:	e92d 4ff0 	stmdb	sp!, {r4, r5, r6, r7, r8, r9, sl, fp, lr}
    2850:	b085      	sub	sp, #20
    2852:	af00      	add	r7, sp, #0
    2854:	684c      	ldr	r4, [r1, #4]
    2856:	4691      	mov	r9, r2
    2858:	680d      	ldr	r5, [r1, #0]
    285a:	f240 027c 	movw	r2, #124	; 0x7c
    285e:	3401      	adds	r4, #1
    2860:	42a5      	cmp	r5, r4
    2862:	bfd6      	itet	le
    2864:	ebc5 0804 	rsble	r8, r5, r4
    2868:	2300      	movgt	r3, #0
    286a:	f108 0301 	addle.w	r3, r8, #1
    286e:	f6c0 0200 	movt	r2, #2048	; 0x800
    2872:	468a      	mov	sl, r1
    2874:	bfc8      	it	gt
    2876:	607b      	strgt	r3, [r7, #4]
    2878:	4683      	mov	fp, r0
    287a:	bfd4      	ite	le
    287c:	607b      	strle	r3, [r7, #4]
    287e:	ebc5 0804 	rsbgt	r8, r5, r4
    2882:	687b      	ldr	r3, [r7, #4]
    2884:	3307      	adds	r3, #7
    2886:	f023 0307 	bic.w	r3, r3, #7
    288a:	ebad 0d03 	sub.w	sp, sp, r3
    288e:	6813      	ldr	r3, [r2, #0]
    2890:	4798      	blx	r3
    2892:	e89a 0005 	ldmia.w	sl, {r0, r2}
    2896:	4659      	mov	r1, fp
    2898:	f04f 0a00 	mov.w	sl, #0
    289c:	4282      	cmp	r2, r0
    289e:	bfa4      	itt	ge
    28a0:	3201      	addge	r2, #1
    28a2:	1a12      	subge	r2, r2, r0
    28a4:	eba0 0005 	sub.w	r0, r0, r5
    28a8:	bfb8      	it	lt
    28aa:	2200      	movlt	r2, #0
    28ac:	4468      	add	r0, sp
    28ae:	f7ff fb19 	bl	1ee4 <memcpy>
    28b2:	4668      	mov	r0, sp
    28b4:	f107 0108 	add.w	r1, r7, #8
    28b8:	60bd      	str	r5, [r7, #8]
    28ba:	60fc      	str	r4, [r7, #12]
    28bc:	f80d a008 	strb.w	sl, [sp, r8]
    28c0:	f7ff ff1e 	bl	2700 <system__exception_table__lookup>
    28c4:	4550      	cmp	r0, sl
    28c6:	bf14      	ite	ne
    28c8:	2200      	movne	r2, #0
    28ca:	f009 0201 	andeq.w	r2, r9, #1
    28ce:	4683      	mov	fp, r0
    28d0:	b32a      	cbz	r2, 291e <system__exception_table__internal_exception+0xd2>
    28d2:	42a5      	cmp	r5, r4
    28d4:	dd2e      	ble.n	2934 <system__exception_table__internal_exception+0xe8>
    28d6:	2008      	movs	r0, #8
    28d8:	f005 fd3a 	bl	8350 <__gnat_malloc>
    28dc:	4669      	mov	r1, sp
    28de:	687a      	ldr	r2, [r7, #4]
    28e0:	4603      	mov	r3, r0
    28e2:	f100 0908 	add.w	r9, r0, #8
    28e6:	4648      	mov	r0, r9
    28e8:	601d      	str	r5, [r3, #0]
    28ea:	605c      	str	r4, [r3, #4]
    28ec:	f7ff fafa 	bl	1ee4 <memcpy>
    28f0:	2018      	movs	r0, #24
    28f2:	f005 fd2d 	bl	8350 <__gnat_malloc>
    28f6:	2141      	movs	r1, #65	; 0x41
    28f8:	4652      	mov	r2, sl
    28fa:	4683      	mov	fp, r0
    28fc:	f880 a000 	strb.w	sl, [r0]
    2900:	7041      	strb	r1, [r0, #1]
    2902:	2100      	movs	r1, #0
    2904:	4658      	mov	r0, fp
    2906:	f8cb 2004 	str.w	r2, [fp, #4]
    290a:	f8cb 9008 	str.w	r9, [fp, #8]
    290e:	f8cb 100c 	str.w	r1, [fp, #12]
    2912:	f8cb 1010 	str.w	r1, [fp, #16]
    2916:	f8cb 1014 	str.w	r1, [fp, #20]
    291a:	f7ff fe83 	bl	2624 <system__exception_table__register.part.1>
    291e:	f240 0280 	movw	r2, #128	; 0x80
    2922:	f6c0 0200 	movt	r2, #2048	; 0x800
    2926:	6812      	ldr	r2, [r2, #0]
    2928:	4790      	blx	r2
    292a:	4658      	mov	r0, fp
    292c:	3714      	adds	r7, #20
    292e:	46bd      	mov	sp, r7
    2930:	e8bd 8ff0 	ldmia.w	sp!, {r4, r5, r6, r7, r8, r9, sl, fp, pc}
    2934:	f1c5 000c 	rsb	r0, r5, #12
    2938:	4420      	add	r0, r4
    293a:	f020 0003 	bic.w	r0, r0, #3
    293e:	f005 fd07 	bl	8350 <__gnat_malloc>
    2942:	4669      	mov	r1, sp
    2944:	687a      	ldr	r2, [r7, #4]
    2946:	4603      	mov	r3, r0
    2948:	f100 0908 	add.w	r9, r0, #8
    294c:	4648      	mov	r0, r9
    294e:	601d      	str	r5, [r3, #0]
    2950:	605c      	str	r4, [r3, #4]
    2952:	f7ff fac7 	bl	1ee4 <memcpy>
    2956:	2018      	movs	r0, #24
    2958:	f005 fcfa 	bl	8350 <__gnat_malloc>
    295c:	2141      	movs	r1, #65	; 0x41
    295e:	f108 0201 	add.w	r2, r8, #1
    2962:	4683      	mov	fp, r0
    2964:	f880 a000 	strb.w	sl, [r0]
    2968:	7041      	strb	r1, [r0, #1]
    296a:	e7ca      	b.n	2902 <system__exception_table__internal_exception+0xb6>

0000296c <system__exception_table__register_exception>:
    296c:	b510      	push	{r4, lr}
    296e:	f240 037c 	movw	r3, #124	; 0x7c
    2972:	4604      	mov	r4, r0
    2974:	f6c0 0300 	movt	r3, #2048	; 0x800
    2978:	681b      	ldr	r3, [r3, #0]
    297a:	4798      	blx	r3
    297c:	68e3      	ldr	r3, [r4, #12]
    297e:	b13b      	cbz	r3, 2990 <system__exception_table__register_exception+0x24>
    2980:	f240 0380 	movw	r3, #128	; 0x80
    2984:	f6c0 0300 	movt	r3, #2048	; 0x800
    2988:	e8bd 4010 	ldmia.w	sp!, {r4, lr}
    298c:	681b      	ldr	r3, [r3, #0]
    298e:	4718      	bx	r3
    2990:	4620      	mov	r0, r4
    2992:	f7ff fe47 	bl	2624 <system__exception_table__register.part.1>
    2996:	e7f3      	b.n	2980 <system__exception_table__register_exception+0x14>

00002998 <system__exception_table__registered_exceptions_count>:
    2998:	b5f8      	push	{r3, r4, r5, r6, r7, lr}
    299a:	f240 037c 	movw	r3, #124	; 0x7c
    299e:	f642 15b8 	movw	r5, #10680	; 0x29b8
    29a2:	f6c0 0300 	movt	r3, #2048	; 0x800
    29a6:	f6c0 0500 	movt	r5, #2048	; 0x800
    29aa:	2400      	movs	r4, #0
    29ac:	f105 0794 	add.w	r7, r5, #148	; 0x94
    29b0:	f06f 4600 	mvn.w	r6, #2147483648	; 0x80000000
    29b4:	681b      	ldr	r3, [r3, #0]
    29b6:	4798      	blx	r3
    29b8:	f64f 70fe 	movw	r0, #65534	; 0xfffe
    29bc:	f6c7 70ff 	movt	r0, #32767	; 0x7fff
    29c0:	682b      	ldr	r3, [r5, #0]
    29c2:	b15b      	cbz	r3, 29dc <system__exception_table__registered_exceptions_count+0x44>
    29c4:	3401      	adds	r4, #1
    29c6:	42b4      	cmp	r4, r6
    29c8:	d103      	bne.n	29d2 <system__exception_table__registered_exceptions_count+0x3a>
    29ca:	e00a      	b.n	29e2 <system__exception_table__registered_exceptions_count+0x4a>
    29cc:	4284      	cmp	r4, r0
    29ce:	460c      	mov	r4, r1
    29d0:	d00f      	beq.n	29f2 <system__exception_table__registered_exceptions_count+0x5a>
    29d2:	68da      	ldr	r2, [r3, #12]
    29d4:	1c61      	adds	r1, r4, #1
    29d6:	429a      	cmp	r2, r3
    29d8:	4613      	mov	r3, r2
    29da:	d1f7      	bne.n	29cc <system__exception_table__registered_exceptions_count+0x34>
    29dc:	3504      	adds	r5, #4
    29de:	42bd      	cmp	r5, r7
    29e0:	d1ee      	bne.n	29c0 <system__exception_table__registered_exceptions_count+0x28>
    29e2:	f240 0380 	movw	r3, #128	; 0x80
    29e6:	f6c0 0300 	movt	r3, #2048	; 0x800
    29ea:	681b      	ldr	r3, [r3, #0]
    29ec:	4798      	blx	r3
    29ee:	4620      	mov	r0, r4
    29f0:	bdf8      	pop	{r3, r4, r5, r6, r7, pc}
    29f2:	f06f 4400 	mvn.w	r4, #2147483648	; 0x80000000
    29f6:	e7f4      	b.n	29e2 <system__exception_table__registered_exceptions_count+0x4a>

000029f8 <system__exception_table___elabb>:
    29f8:	b508      	push	{r3, lr}
    29fa:	f642 13b8 	movw	r3, #10680	; 0x29b8
    29fe:	2100      	movs	r1, #0
    2a00:	f6c0 0300 	movt	r3, #2048	; 0x800
    2a04:	f103 0294 	add.w	r2, r3, #148	; 0x94
    2a08:	f843 1b04 	str.w	r1, [r3], #4
    2a0c:	4293      	cmp	r3, r2
    2a0e:	d1fb      	bne.n	2a08 <system__exception_table___elabb+0x10>
    2a10:	f240 00e8 	movw	r0, #232	; 0xe8
    2a14:	f6c0 0000 	movt	r0, #2048	; 0x800
    2a18:	68c3      	ldr	r3, [r0, #12]
    2a1a:	b313      	cbz	r3, 2a62 <system__exception_table___elabb+0x6a>
    2a1c:	f240 0098 	movw	r0, #152	; 0x98
    2a20:	f6c0 0000 	movt	r0, #2048	; 0x800
    2a24:	68c3      	ldr	r3, [r0, #12]
    2a26:	b1fb      	cbz	r3, 2a68 <system__exception_table___elabb+0x70>
    2a28:	f240 00b0 	movw	r0, #176	; 0xb0
    2a2c:	f6c0 0000 	movt	r0, #2048	; 0x800
    2a30:	68c3      	ldr	r3, [r0, #12]
    2a32:	b1e3      	cbz	r3, 2a6e <system__exception_table___elabb+0x76>
    2a34:	f240 1000 	movw	r0, #256	; 0x100
    2a38:	f6c0 0000 	movt	r0, #2048	; 0x800
    2a3c:	68c3      	ldr	r3, [r0, #12]
    2a3e:	b1cb      	cbz	r3, 2a74 <system__exception_table___elabb+0x7c>
    2a40:	f240 00cc 	movw	r0, #204	; 0xcc
    2a44:	f6c0 0000 	movt	r0, #2048	; 0x800
    2a48:	68c3      	ldr	r3, [r0, #12]
    2a4a:	b1b3      	cbz	r3, 2a7a <system__exception_table___elabb+0x82>
    2a4c:	f240 101c 	movw	r0, #284	; 0x11c
    2a50:	f6c0 0000 	movt	r0, #2048	; 0x800
    2a54:	68c3      	ldr	r3, [r0, #12]
    2a56:	b103      	cbz	r3, 2a5a <system__exception_table___elabb+0x62>
    2a58:	bd08      	pop	{r3, pc}
    2a5a:	e8bd 4008 	ldmia.w	sp!, {r3, lr}
    2a5e:	f7ff bde1 	b.w	2624 <system__exception_table__register.part.1>
    2a62:	f7ff fddf 	bl	2624 <system__exception_table__register.part.1>
    2a66:	e7d9      	b.n	2a1c <system__exception_table___elabb+0x24>
    2a68:	f7ff fddc 	bl	2624 <system__exception_table__register.part.1>
    2a6c:	e7dc      	b.n	2a28 <system__exception_table___elabb+0x30>
    2a6e:	f7ff fdd9 	bl	2624 <system__exception_table__register.part.1>
    2a72:	e7df      	b.n	2a34 <system__exception_table___elabb+0x3c>
    2a74:	f7ff fdd6 	bl	2624 <system__exception_table__register.part.1>
    2a78:	e7e2      	b.n	2a40 <system__exception_table___elabb+0x48>
    2a7a:	f7ff fdd3 	bl	2624 <system__exception_table__register.part.1>
    2a7e:	e7e5      	b.n	2a4c <system__exception_table___elabb+0x54>

00002a80 <system__bb__protection__enter_kernel>:
    2a80:	b672      	cpsid	i
    2a82:	4770      	bx	lr

00002a84 <system__bb__protection__leave_kernel>:
    2a84:	e92d 4ff0 	stmdb	sp!, {r4, r5, r6, r7, r8, r9, sl, fp, lr}
    2a88:	b083      	sub	sp, #12
    2a8a:	f240 0468 	movw	r4, #104	; 0x68
    2a8e:	f240 0174 	movw	r1, #116	; 0x74
    2a92:	f6c0 0400 	movt	r4, #2048	; 0x800
    2a96:	6823      	ldr	r3, [r4, #0]
    2a98:	2b00      	cmp	r3, #0
    2a9a:	d060      	beq.n	2b5e <system__bb__protection__leave_kernel+0xda>
    2a9c:	f240 133c 	movw	r3, #316	; 0x13c
    2aa0:	f6c0 0100 	movt	r1, #2048	; 0x800
    2aa4:	f6c0 0300 	movt	r3, #2048	; 0x800
    2aa8:	9300      	str	r3, [sp, #0]
    2aaa:	6822      	ldr	r2, [r4, #0]
    2aac:	680b      	ldr	r3, [r1, #0]
    2aae:	429a      	cmp	r2, r3
    2ab0:	d024      	beq.n	2afc <system__bb__protection__leave_kernel+0x78>
    2ab2:	f240 13e8 	movw	r3, #488	; 0x1e8
    2ab6:	f6c0 0300 	movt	r3, #2048	; 0x800
    2aba:	681b      	ldr	r3, [r3, #0]
    2abc:	b113      	cbz	r3, 2ac4 <system__bb__protection__leave_kernel+0x40>
    2abe:	9101      	str	r1, [sp, #4]
    2ac0:	4798      	blx	r3
    2ac2:	9901      	ldr	r1, [sp, #4]
    2ac4:	2300      	movs	r3, #0
    2ac6:	eee8 3a10 	vmsr	fpexc, r3
    2aca:	6823      	ldr	r3, [r4, #0]
    2acc:	4618      	mov	r0, r3
    2ace:	f20f 0304 	addw	r3, pc, #4
    2ad2:	4718      	bx	r3
    2ad4:	e10f3000 	mrs	r3, CPSR
    2ad8:	e5914000 	ldr	r4, [r1]
    2adc:	f1020013 	cps	#19
    2ae0:	e59f21fc 	ldr	r2, [pc, #508]	; 2ce4 <system__bb__protection__leave_kernel+0x260>
    2ae4:	e2822001 	add	r2, r2, #1
    2ae8:	e8c4600f 	stmia	r4, {r0, r1, r2, r3, sp, lr}^
    2aec:	e5810000 	str	r0, [r1]
    2af0:	e8d0600f 	ldm	r0, {r0, r1, r2, r3, sp, lr}^
    2af4:	e12ff003 	msr	CPSR_fsxc, r3
    2af8:	e12fff12 	bx	r2
    2afc:	680a      	ldr	r2, [r1, #0]
    2afe:	f240 133c 	movw	r3, #316	; 0x13c
    2b02:	9900      	ldr	r1, [sp, #0]
    2b04:	7808      	ldrb	r0, [r1, #0]
    2b06:	f6c0 0300 	movt	r3, #2048	; 0x800
    2b0a:	f8d2 10ac 	ldr.w	r1, [r2, #172]	; 0xac
    2b0e:	f1a1 02f2 	sub.w	r2, r1, #242	; 0xf2
    2b12:	fab2 f282 	clz	r2, r2
    2b16:	0952      	lsrs	r2, r2, #5
    2b18:	4290      	cmp	r0, r2
    2b1a:	d00b      	beq.n	2b34 <system__bb__protection__leave_kernel+0xb0>
    2b1c:	b982      	cbnz	r2, 2b40 <system__bb__protection__leave_kernel+0xbc>
    2b1e:	f64f 6410 	movw	r4, #65040	; 0xfe10
    2b22:	f64f 6030 	movw	r0, #65072	; 0xfe30
    2b26:	f6cf 74ff 	movt	r4, #65535	; 0xffff
    2b2a:	f6cf 70ff 	movt	r0, #65535	; 0xffff
    2b2e:	6824      	ldr	r4, [r4, #0]
    2b30:	6004      	str	r4, [r0, #0]
    2b32:	701a      	strb	r2, [r3, #0]
    2b34:	29f0      	cmp	r1, #240	; 0xf0
    2b36:	d800      	bhi.n	2b3a <system__bb__protection__leave_kernel+0xb6>
    2b38:	b662      	cpsie	i
    2b3a:	b003      	add	sp, #12
    2b3c:	e8bd 8ff0 	ldmia.w	sp!, {r4, r5, r6, r7, r8, r9, sl, fp, pc}
    2b40:	f64f 6110 	movw	r1, #65040	; 0xfe10
    2b44:	f64f 6240 	movw	r2, #65088	; 0xfe40
    2b48:	f6cf 71ff 	movt	r1, #65535	; 0xffff
    2b4c:	f6cf 72ff 	movt	r2, #65535	; 0xffff
    2b50:	2001      	movs	r0, #1
    2b52:	6809      	ldr	r1, [r1, #0]
    2b54:	6011      	str	r1, [r2, #0]
    2b56:	7018      	strb	r0, [r3, #0]
    2b58:	b003      	add	sp, #12
    2b5a:	e8bd 8ff0 	ldmia.w	sp!, {r4, r5, r6, r7, r8, r9, sl, fp, pc}
    2b5e:	f6c0 0100 	movt	r1, #2048	; 0x800
    2b62:	680a      	ldr	r2, [r1, #0]
    2b64:	f892 30a4 	ldrb.w	r3, [r2, #164]	; 0xa4
    2b68:	2b00      	cmp	r3, #0
    2b6a:	f000 8096 	beq.w	2c9a <system__bb__protection__leave_kernel+0x216>
    2b6e:	b25b      	sxtb	r3, r3
    2b70:	f103 4380 	add.w	r3, r3, #1073741824	; 0x40000000
    2b74:	3b01      	subs	r3, #1
    2b76:	f240 0068 	movw	r0, #104	; 0x68
    2b7a:	f6c0 0000 	movt	r0, #2048	; 0x800
    2b7e:	f854 5023 	ldr.w	r5, [r4, r3, lsl #2]
    2b82:	42aa      	cmp	r2, r5
    2b84:	d025      	beq.n	2bd2 <system__bb__protection__leave_kernel+0x14e>
    2b86:	f850 5023 	ldr.w	r5, [r0, r3, lsl #2]
    2b8a:	2d00      	cmp	r5, #0
    2b8c:	f000 8087 	beq.w	2c9e <system__bb__protection__leave_kernel+0x21a>
    2b90:	f8d2 60ac 	ldr.w	r6, [r2, #172]	; 0xac
    2b94:	f850 5023 	ldr.w	r5, [r0, r3, lsl #2]
    2b98:	f8d5 50ac 	ldr.w	r5, [r5, #172]	; 0xac
    2b9c:	42ae      	cmp	r6, r5
    2b9e:	dc7e      	bgt.n	2c9e <system__bb__protection__leave_kernel+0x21a>
    2ba0:	f850 0023 	ldr.w	r0, [r0, r3, lsl #2]
    2ba4:	e009      	b.n	2bba <system__bb__protection__leave_kernel+0x136>
    2ba6:	429a      	cmp	r2, r3
    2ba8:	f000 8082 	beq.w	2cb0 <system__bb__protection__leave_kernel+0x22c>
    2bac:	f8d3 60ac 	ldr.w	r6, [r3, #172]	; 0xac
    2bb0:	f8d2 50ac 	ldr.w	r5, [r2, #172]	; 0xac
    2bb4:	42ae      	cmp	r6, r5
    2bb6:	db06      	blt.n	2bc6 <system__bb__protection__leave_kernel+0x142>
    2bb8:	4618      	mov	r0, r3
    2bba:	f8d0 30b8 	ldr.w	r3, [r0, #184]	; 0xb8
    2bbe:	2b00      	cmp	r3, #0
    2bc0:	d1f1      	bne.n	2ba6 <system__bb__protection__leave_kernel+0x122>
    2bc2:	2a00      	cmp	r2, #0
    2bc4:	d074      	beq.n	2cb0 <system__bb__protection__leave_kernel+0x22c>
    2bc6:	f8d0 30b8 	ldr.w	r3, [r0, #184]	; 0xb8
    2bca:	f8c2 30b8 	str.w	r3, [r2, #184]	; 0xb8
    2bce:	f8c0 20b8 	str.w	r2, [r0, #184]	; 0xb8
    2bd2:	f240 13e8 	movw	r3, #488	; 0x1e8
    2bd6:	f6c0 0300 	movt	r3, #2048	; 0x800
    2bda:	681b      	ldr	r3, [r3, #0]
    2bdc:	b113      	cbz	r3, 2be4 <system__bb__protection__leave_kernel+0x160>
    2bde:	9100      	str	r1, [sp, #0]
    2be0:	4798      	blx	r3
    2be2:	9900      	ldr	r1, [sp, #0]
    2be4:	f240 0374 	movw	r3, #116	; 0x74
    2be8:	680a      	ldr	r2, [r1, #0]
    2bea:	f6c0 0300 	movt	r3, #2048	; 0x800
    2bee:	f892 20cc 	ldrb.w	r2, [r2, #204]	; 0xcc
    2bf2:	2a00      	cmp	r2, #0
    2bf4:	d06f      	beq.n	2cd6 <system__bb__protection__leave_kernel+0x252>
    2bf6:	681b      	ldr	r3, [r3, #0]
    2bf8:	f8d3 30b8 	ldr.w	r3, [r3, #184]	; 0xb8
    2bfc:	2b00      	cmp	r3, #0
    2bfe:	d16a      	bne.n	2cd6 <system__bb__protection__leave_kernel+0x252>
    2c00:	f240 133c 	movw	r3, #316	; 0x13c
    2c04:	f240 15d0 	movw	r5, #464	; 0x1d0
    2c08:	f6c0 0300 	movt	r3, #2048	; 0x800
    2c0c:	f64f 6810 	movw	r8, #65040	; 0xfe10
    2c10:	f64f 6630 	movw	r6, #65072	; 0xfe30
    2c14:	4699      	mov	r9, r3
    2c16:	f6c0 0500 	movt	r5, #2048	; 0x800
    2c1a:	f6cf 78ff 	movt	r8, #65535	; 0xffff
    2c1e:	f6cf 76ff 	movt	r6, #65535	; 0xffff
    2c22:	469a      	mov	sl, r3
    2c24:	468b      	mov	fp, r1
    2c26:	e003      	b.n	2c30 <system__bb__protection__leave_kernel+0x1ac>
    2c28:	681b      	ldr	r3, [r3, #0]
    2c2a:	f8d3 30b8 	ldr.w	r3, [r3, #184]	; 0xb8
    2c2e:	b9bb      	cbnz	r3, 2c60 <system__bb__protection__leave_kernel+0x1dc>
    2c30:	682b      	ldr	r3, [r5, #0]
    2c32:	b103      	cbz	r3, 2c36 <system__bb__protection__leave_kernel+0x1b2>
    2c34:	4798      	blx	r3
    2c36:	2200      	movs	r2, #0
    2c38:	f89a 3000 	ldrb.w	r3, [sl]
    2c3c:	b123      	cbz	r3, 2c48 <system__bb__protection__leave_kernel+0x1c4>
    2c3e:	f8d8 3000 	ldr.w	r3, [r8]
    2c42:	6033      	str	r3, [r6, #0]
    2c44:	f889 2000 	strb.w	r2, [r9]
    2c48:	b662      	cpsie	i
    2c4a:	b672      	cpsid	i
    2c4c:	f240 0374 	movw	r3, #116	; 0x74
    2c50:	f8db 2000 	ldr.w	r2, [fp]
    2c54:	f6c0 0300 	movt	r3, #2048	; 0x800
    2c58:	f892 20cc 	ldrb.w	r2, [r2, #204]	; 0xcc
    2c5c:	2a00      	cmp	r2, #0
    2c5e:	d1e3      	bne.n	2c28 <system__bb__protection__leave_kernel+0x1a4>
    2c60:	4659      	mov	r1, fp
    2c62:	f8cd a000 	str.w	sl, [sp]
    2c66:	f240 0374 	movw	r3, #116	; 0x74
    2c6a:	680a      	ldr	r2, [r1, #0]
    2c6c:	f6c0 0300 	movt	r3, #2048	; 0x800
    2c70:	f892 20cc 	ldrb.w	r2, [r2, #204]	; 0xcc
    2c74:	2a00      	cmp	r2, #0
    2c76:	f43f af18 	beq.w	2aaa <system__bb__protection__leave_kernel+0x26>
    2c7a:	681a      	ldr	r2, [r3, #0]
    2c7c:	f892 30a4 	ldrb.w	r3, [r2, #164]	; 0xa4
    2c80:	b1a3      	cbz	r3, 2cac <system__bb__protection__leave_kernel+0x228>
    2c82:	b25b      	sxtb	r3, r3
    2c84:	f103 4380 	add.w	r3, r3, #1073741824	; 0x40000000
    2c88:	3b01      	subs	r3, #1
    2c8a:	2500      	movs	r5, #0
    2c8c:	f8d2 60b8 	ldr.w	r6, [r2, #184]	; 0xb8
    2c90:	f844 6023 	str.w	r6, [r4, r3, lsl #2]
    2c94:	f8c2 50b8 	str.w	r5, [r2, #184]	; 0xb8
    2c98:	e707      	b.n	2aaa <system__bb__protection__leave_kernel+0x26>
    2c9a:	2301      	movs	r3, #1
    2c9c:	e768      	b.n	2b70 <system__bb__protection__leave_kernel+0xec>
    2c9e:	f854 0023 	ldr.w	r0, [r4, r3, lsl #2]
    2ca2:	f8c2 00b8 	str.w	r0, [r2, #184]	; 0xb8
    2ca6:	f844 2023 	str.w	r2, [r4, r3, lsl #2]
    2caa:	e792      	b.n	2bd2 <system__bb__protection__leave_kernel+0x14e>
    2cac:	2301      	movs	r3, #1
    2cae:	e7e9      	b.n	2c84 <system__bb__protection__leave_kernel+0x200>
    2cb0:	f8d2 30b8 	ldr.w	r3, [r2, #184]	; 0xb8
    2cb4:	4605      	mov	r5, r0
    2cb6:	f8c0 30b8 	str.w	r3, [r0, #184]	; 0xb8
    2cba:	e006      	b.n	2cca <system__bb__protection__leave_kernel+0x246>
    2cbc:	f8d3 60ac 	ldr.w	r6, [r3, #172]	; 0xac
    2cc0:	f8d2 00ac 	ldr.w	r0, [r2, #172]	; 0xac
    2cc4:	4286      	cmp	r6, r0
    2cc6:	db04      	blt.n	2cd2 <system__bb__protection__leave_kernel+0x24e>
    2cc8:	461d      	mov	r5, r3
    2cca:	f8d5 30b8 	ldr.w	r3, [r5, #184]	; 0xb8
    2cce:	2b00      	cmp	r3, #0
    2cd0:	d1f4      	bne.n	2cbc <system__bb__protection__leave_kernel+0x238>
    2cd2:	4628      	mov	r0, r5
    2cd4:	e777      	b.n	2bc6 <system__bb__protection__leave_kernel+0x142>
    2cd6:	f240 133c 	movw	r3, #316	; 0x13c
    2cda:	f6c0 0300 	movt	r3, #2048	; 0x800
    2cde:	9300      	str	r3, [sp, #0]
    2ce0:	e7c1      	b.n	2c66 <system__bb__protection__leave_kernel+0x1e2>
    2ce2:	0000      	.short	0x0000
    2ce4:	00002afc 	.word	0x00002afc

00002ce8 <system__bb__board_support__Tinterrupt_vector_tableBIP>:
    2ce8:	4770      	bx	lr
    2cea:	bf00      	nop

00002cec <system__bb__board_support__get_software_interrupt>:
    2cec:	f06f 0307 	mvn.w	r3, #7
    2cf0:	6818      	ldr	r0, [r3, #0]
    2cf2:	f010 0001 	ands.w	r0, r0, #1
    2cf6:	bf1e      	ittt	ne
    2cf8:	f06f 030b 	mvnne.w	r3, #11
    2cfc:	6818      	ldrne	r0, [r3, #0]
    2cfe:	0a00      	lsrne	r0, r0, #8
    2d00:	4770      	bx	lr
    2d02:	bf00      	nop

00002d04 <system__bb__board_support__read>:
    2d04:	6800      	ldr	r0, [r0, #0]
    2d06:	4770      	bx	lr

00002d08 <system__bb__board_support__write>:
    2d08:	6001      	str	r1, [r0, #0]
    2d0a:	4770      	bx	lr

00002d0c <system__bb__board_support__generate_software_interrupt>:
    2d0c:	f06f 034f 	mvn.w	r3, #79	; 0x4f
    2d10:	f500 40ea 	add.w	r0, r0, #29952	; 0x7500
    2d14:	6018      	str	r0, [r3, #0]
    2d16:	4770      	bx	lr

00002d18 <system__bb__board_support__initialize_board>:
    2d18:	e92d 43f0 	stmdb	sp!, {r4, r5, r6, r7, r8, r9, lr}
    2d1c:	f44f 437c 	mov.w	r3, #64512	; 0xfc00
    2d20:	f64f 6440 	movw	r4, #65088	; 0xfe40
    2d24:	f6cf 73ff 	movt	r3, #65535	; 0xffff
    2d28:	f64f 6044 	movw	r0, #65092	; 0xfe44
    2d2c:	f64f 6248 	movw	r2, #65096	; 0xfe48
    2d30:	f04f 31ff 	mov.w	r1, #4294967295
    2d34:	f6cf 74ff 	movt	r4, #65535	; 0xffff
    2d38:	f06f 0503 	mvn.w	r5, #3
    2d3c:	f6cf 70ff 	movt	r0, #65535	; 0xffff
    2d40:	f6cf 72ff 	movt	r2, #65535	; 0xffff
    2d44:	6025      	str	r5, [r4, #0]
    2d46:	f64f 4638 	movw	r6, #64568	; 0xfc38
    2d4a:	6001      	str	r1, [r0, #0]
    2d4c:	f64f 4534 	movw	r5, #64564	; 0xfc34
    2d50:	6011      	str	r1, [r2, #0]
    2d52:	f64f 4030 	movw	r0, #64560	; 0xfc30
    2d56:	681a      	ldr	r2, [r3, #0]
    2d58:	f64f 440c 	movw	r4, #64524	; 0xfc0c
    2d5c:	f64f 4188 	movw	r1, #64648	; 0xfc88
    2d60:	f04f 0c00 	mov.w	ip, #0
    2d64:	f04f 0e08 	mov.w	lr, #8
    2d68:	f6cf 76ff 	movt	r6, #65535	; 0xffff
    2d6c:	f04f 090a 	mov.w	r9, #10
    2d70:	f022 0202 	bic.w	r2, r2, #2
    2d74:	f6cf 75ff 	movt	r5, #65535	; 0xffff
    2d78:	f6cf 70ff 	movt	r0, #65535	; 0xffff
    2d7c:	f6cf 74ff 	movt	r4, #65535	; 0xffff
    2d80:	f44f 5880 	mov.w	r8, #4096	; 0x1000
    2d84:	f6cf 71ff 	movt	r1, #65535	; 0xffff
    2d88:	f64f 4780 	movw	r7, #64640	; 0xfc80
    2d8c:	601a      	str	r2, [r3, #0]
    2d8e:	f643 22c9 	movw	r2, #15049	; 0x3ac9
    2d92:	f8c6 9000 	str.w	r9, [r6]
    2d96:	f242 0604 	movw	r6, #8196	; 0x2004
    2d9a:	f8c5 c000 	str.w	ip, [r5]
    2d9e:	f64f 6530 	movw	r5, #65072	; 0xfe30
    2da2:	f8c0 c000 	str.w	ip, [r0]
    2da6:	f64f 6050 	movw	r0, #65104	; 0xfe50
    2daa:	f8c4 8000 	str.w	r8, [r4]
    2dae:	f6cf 77ff 	movt	r7, #65535	; 0xffff
    2db2:	f8c1 e000 	str.w	lr, [r1]
    2db6:	f44f 1400 	mov.w	r4, #2097152	; 0x200000
    2dba:	6819      	ldr	r1, [r3, #0]
    2dbc:	f2c0 0200 	movt	r2, #0
    2dc0:	f6cf 76f8 	movt	r6, #65528	; 0xfff8
    2dc4:	f6cf 75ff 	movt	r5, #65535	; 0xffff
    2dc8:	f041 0102 	orr.w	r1, r1, #2
    2dcc:	f6cf 70ff 	movt	r0, #65535	; 0xffff
    2dd0:	6019      	str	r1, [r3, #0]
    2dd2:	f8c7 e000 	str.w	lr, [r7]
    2dd6:	6572      	str	r2, [r6, #84]	; 0x54
    2dd8:	602c      	str	r4, [r5, #0]
    2dda:	6004      	str	r4, [r0, #0]
    2ddc:	e8bd 83f0 	ldmia.w	sp!, {r4, r5, r6, r7, r8, r9, pc}

00002de0 <system__bb__board_support__max_timer_interval>:
    2de0:	f04f 30ff 	mov.w	r0, #4294967295
    2de4:	4770      	bx	lr
    2de6:	bf00      	nop

00002de8 <system__bb__board_support__ticks_per_second>:
    2de8:	f644 3040 	movw	r0, #19264	; 0x4b40
    2dec:	f2c0 004c 	movt	r0, #76	; 0x4c
    2df0:	4770      	bx	lr
    2df2:	bf00      	nop

00002df4 <system__bb__board_support__set_alarm>:
    2df4:	b430      	push	{r4, r5}
    2df6:	f64f 4230 	movw	r2, #64560	; 0xfc30
    2dfa:	f64f 4188 	movw	r1, #64648	; 0xfc88
    2dfe:	f6cf 72ff 	movt	r2, #65535	; 0xffff
    2e02:	2508      	movs	r5, #8
    2e04:	f6cf 71ff 	movt	r1, #65535	; 0xffff
    2e08:	f64f 4368 	movw	r3, #64616	; 0xfc68
    2e0c:	f6cf 73ff 	movt	r3, #65535	; 0xffff
    2e10:	6814      	ldr	r4, [r2, #0]
    2e12:	600d      	str	r5, [r1, #0]
    2e14:	1905      	adds	r5, r0, r4
    2e16:	601d      	str	r5, [r3, #0]
    2e18:	6813      	ldr	r3, [r2, #0]
    2e1a:	1b1b      	subs	r3, r3, r4
    2e1c:	4298      	cmp	r0, r3
    2e1e:	d807      	bhi.n	2e30 <system__bb__board_support__set_alarm+0x3c>
    2e20:	680b      	ldr	r3, [r1, #0]
    2e22:	071b      	lsls	r3, r3, #28
    2e24:	bf5e      	ittt	pl
    2e26:	f06f 034f 	mvnpl.w	r3, #79	; 0x4f
    2e2a:	f247 5205 	movwpl	r2, #29957	; 0x7505
    2e2e:	601a      	strpl	r2, [r3, #0]
    2e30:	bc30      	pop	{r4, r5}
    2e32:	4770      	bx	lr

00002e34 <system__bb__board_support__read_clock>:
    2e34:	f64f 4330 	movw	r3, #64560	; 0xfc30
    2e38:	f6cf 73ff 	movt	r3, #65535	; 0xffff
    2e3c:	6818      	ldr	r0, [r3, #0]
    2e3e:	4770      	bx	lr

00002e40 <system__bb__board_support__alarm_interrupt_id>:
    2e40:	2005      	movs	r0, #5
    2e42:	4770      	bx	lr

00002e44 <system__bb__board_support__clear_alarm_interrupt>:
    2e44:	f64f 4388 	movw	r3, #64648	; 0xfc88
    2e48:	2208      	movs	r2, #8
    2e4a:	f6cf 73ff 	movt	r3, #65535	; 0xffff
    2e4e:	601a      	str	r2, [r3, #0]
    2e50:	4770      	bx	lr
    2e52:	bf00      	nop

00002e54 <system__bb__board_support__clear_interrupt_request>:
    2e54:	4770      	bx	lr
    2e56:	bf00      	nop

00002e58 <system__bb__board_support__get_interrupt_request>:
    2e58:	b240      	sxtb	r0, r0
    2e5a:	2805      	cmp	r0, #5
    2e5c:	d019      	beq.n	2e92 <system__bb__board_support__get_interrupt_request+0x3a>
    2e5e:	2806      	cmp	r0, #6
    2e60:	d11d      	bne.n	2e9e <system__bb__board_support__get_interrupt_request+0x46>
    2e62:	f64f 6304 	movw	r3, #65028	; 0xfe04
    2e66:	f6cf 73ff 	movt	r3, #65535	; 0xffff
    2e6a:	6818      	ldr	r0, [r3, #0]
    2e6c:	2801      	cmp	r0, #1
    2e6e:	d00f      	beq.n	2e90 <system__bb__board_support__get_interrupt_request+0x38>
    2e70:	d315      	bcc.n	2e9e <system__bb__board_support__get_interrupt_request+0x46>
    2e72:	2816      	cmp	r0, #22
    2e74:	bf18      	it	ne
    2e76:	f100 30ff 	addne.w	r0, r0, #4294967295
    2e7a:	d109      	bne.n	2e90 <system__bb__board_support__get_interrupt_request+0x38>
    2e7c:	f06f 0307 	mvn.w	r3, #7
    2e80:	6818      	ldr	r0, [r3, #0]
    2e82:	f010 0001 	ands.w	r0, r0, #1
    2e86:	d003      	beq.n	2e90 <system__bb__board_support__get_interrupt_request+0x38>
    2e88:	f06f 030b 	mvn.w	r3, #11
    2e8c:	6818      	ldr	r0, [r3, #0]
    2e8e:	0a00      	lsrs	r0, r0, #8
    2e90:	4770      	bx	lr
    2e92:	f44f 437e 	mov.w	r3, #65024	; 0xfe00
    2e96:	f6cf 73ff 	movt	r3, #65535	; 0xffff
    2e9a:	6818      	ldr	r0, [r3, #0]
    2e9c:	e7e6      	b.n	2e6c <system__bb__board_support__get_interrupt_request+0x14>
    2e9e:	2000      	movs	r0, #0
    2ea0:	e7f6      	b.n	2e90 <system__bb__board_support__get_interrupt_request+0x38>
    2ea2:	bf00      	nop

00002ea4 <system__bb__board_support__enable_interrupt_request>:
    2ea4:	17c1      	asrs	r1, r0, #31
    2ea6:	0943      	lsrs	r3, r0, #5
    2ea8:	0ec9      	lsrs	r1, r1, #27
    2eaa:	4408      	add	r0, r1
    2eac:	2201      	movs	r2, #1
    2eae:	f000 001f 	and.w	r0, r0, #31
    2eb2:	1a40      	subs	r0, r0, r1
    2eb4:	009b      	lsls	r3, r3, #2
    2eb6:	4082      	lsls	r2, r0
    2eb8:	f5a3 71e8 	sub.w	r1, r3, #464	; 0x1d0
    2ebc:	f5a3 73d8 	sub.w	r3, r3, #432	; 0x1b0
    2ec0:	600a      	str	r2, [r1, #0]
    2ec2:	601a      	str	r2, [r3, #0]
    2ec4:	4770      	bx	lr
    2ec6:	bf00      	nop

00002ec8 <system__bb__board_support__install_interrupt_handler>:
    2ec8:	b510      	push	{r4, lr}
    2eca:	291f      	cmp	r1, #31
    2ecc:	460c      	mov	r4, r1
    2ece:	4602      	mov	r2, r0
    2ed0:	dc08      	bgt.n	2ee4 <system__bb__board_support__install_interrupt_handler+0x1c>
    2ed2:	f64f 6110 	movw	r1, #65040	; 0xfe10
    2ed6:	2301      	movs	r3, #1
    2ed8:	f6cf 71ff 	movt	r1, #65535	; 0xffff
    2edc:	40a3      	lsls	r3, r4
    2ede:	6809      	ldr	r1, [r1, #0]
    2ee0:	420b      	tst	r3, r1
    2ee2:	d11f      	bne.n	2f24 <system__bb__board_support__install_interrupt_handler+0x5c>
    2ee4:	4610      	mov	r0, r2
    2ee6:	2105      	movs	r1, #5
    2ee8:	2200      	movs	r2, #0
    2eea:	f000 fee5 	bl	3cb8 <system__bb__cpu_primitives__install_trap_handler>
    2eee:	f643 23c9 	movw	r3, #15049	; 0x3ac9
    2ef2:	f242 0204 	movw	r2, #8196	; 0x2004
    2ef6:	f2c0 0300 	movt	r3, #0
    2efa:	f6cf 72f8 	movt	r2, #65528	; 0xfff8
    2efe:	f842 3024 	str.w	r3, [r2, r4, lsl #2]
    2f02:	17e1      	asrs	r1, r4, #31
    2f04:	0963      	lsrs	r3, r4, #5
    2f06:	0ec9      	lsrs	r1, r1, #27
    2f08:	440c      	add	r4, r1
    2f0a:	f004 041f 	and.w	r4, r4, #31
    2f0e:	2201      	movs	r2, #1
    2f10:	1a64      	subs	r4, r4, r1
    2f12:	009b      	lsls	r3, r3, #2
    2f14:	40a2      	lsls	r2, r4
    2f16:	f5a3 71e8 	sub.w	r1, r3, #464	; 0x1d0
    2f1a:	f5a3 73d8 	sub.w	r3, r3, #432	; 0x1b0
    2f1e:	600a      	str	r2, [r1, #0]
    2f20:	601a      	str	r2, [r3, #0]
    2f22:	bd10      	pop	{r4, pc}
    2f24:	2200      	movs	r2, #0
    2f26:	2106      	movs	r1, #6
    2f28:	f000 fec6 	bl	3cb8 <system__bb__cpu_primitives__install_trap_handler>
    2f2c:	f643 23a9 	movw	r3, #15017	; 0x3aa9
    2f30:	f242 0204 	movw	r2, #8196	; 0x2004
    2f34:	f2c0 0300 	movt	r3, #0
    2f38:	f6cf 72f8 	movt	r2, #65528	; 0xfff8
    2f3c:	f842 3024 	str.w	r3, [r2, r4, lsl #2]
    2f40:	e7df      	b.n	2f02 <system__bb__board_support__install_interrupt_handler+0x3a>
    2f42:	bf00      	nop

00002f44 <system__bb__board_support__poke_interrupt_id>:
    2f44:	2000      	movs	r0, #0
    2f46:	4770      	bx	lr

00002f48 <system__bb__board_support__clear_poke_interrupt>:
    2f48:	4770      	bx	lr
    2f4a:	bf00      	nop

00002f4c <system__bb__board_support__priority_of_interrupt>:
    2f4c:	281f      	cmp	r0, #31
    2f4e:	dc0a      	bgt.n	2f66 <system__bb__board_support__priority_of_interrupt+0x1a>
    2f50:	f64f 6210 	movw	r2, #65040	; 0xfe10
    2f54:	2301      	movs	r3, #1
    2f56:	f6cf 72ff 	movt	r2, #65535	; 0xffff
    2f5a:	4083      	lsls	r3, r0
    2f5c:	6812      	ldr	r2, [r2, #0]
    2f5e:	4213      	tst	r3, r2
    2f60:	bf18      	it	ne
    2f62:	20f2      	movne	r0, #242	; 0xf2
    2f64:	d100      	bne.n	2f68 <system__bb__board_support__priority_of_interrupt+0x1c>
    2f66:	20f1      	movs	r0, #241	; 0xf1
    2f68:	4770      	bx	lr
    2f6a:	bf00      	nop

00002f6c <system__bb__board_support__set_current_priority>:
    2f6c:	f240 133c 	movw	r3, #316	; 0x13c
    2f70:	f1a0 00f2 	sub.w	r0, r0, #242	; 0xf2
    2f74:	fab0 f080 	clz	r0, r0
    2f78:	0940      	lsrs	r0, r0, #5
    2f7a:	f6c0 0300 	movt	r3, #2048	; 0x800
    2f7e:	781a      	ldrb	r2, [r3, #0]
    2f80:	4282      	cmp	r2, r0
    2f82:	d00b      	beq.n	2f9c <system__bb__board_support__set_current_priority+0x30>
    2f84:	f64f 6110 	movw	r1, #65040	; 0xfe10
    2f88:	b948      	cbnz	r0, 2f9e <system__bb__board_support__set_current_priority+0x32>
    2f8a:	f6cf 71ff 	movt	r1, #65535	; 0xffff
    2f8e:	f64f 6230 	movw	r2, #65072	; 0xfe30
    2f92:	f6cf 72ff 	movt	r2, #65535	; 0xffff
    2f96:	6809      	ldr	r1, [r1, #0]
    2f98:	6011      	str	r1, [r2, #0]
    2f9a:	7018      	strb	r0, [r3, #0]
    2f9c:	4770      	bx	lr
    2f9e:	f6cf 71ff 	movt	r1, #65535	; 0xffff
    2fa2:	f64f 6240 	movw	r2, #65088	; 0xfe40
    2fa6:	f6cf 72ff 	movt	r2, #65535	; 0xffff
    2faa:	2001      	movs	r0, #1
    2fac:	6809      	ldr	r1, [r1, #0]
    2fae:	6011      	str	r1, [r2, #0]
    2fb0:	7018      	strb	r0, [r3, #0]
    2fb2:	4770      	bx	lr

00002fb4 <system__bb__board_support__index_to_interrupt>:
    2fb4:	2801      	cmp	r0, #1
    2fb6:	d011      	beq.n	2fdc <system__bb__board_support__index_to_interrupt+0x28>
    2fb8:	bf38      	it	cc
    2fba:	2000      	movcc	r0, #0
    2fbc:	d30e      	bcc.n	2fdc <system__bb__board_support__index_to_interrupt+0x28>
    2fbe:	2816      	cmp	r0, #22
    2fc0:	bf18      	it	ne
    2fc2:	f100 30ff 	addne.w	r0, r0, #4294967295
    2fc6:	d109      	bne.n	2fdc <system__bb__board_support__index_to_interrupt+0x28>
    2fc8:	f06f 0307 	mvn.w	r3, #7
    2fcc:	6818      	ldr	r0, [r3, #0]
    2fce:	f010 0001 	ands.w	r0, r0, #1
    2fd2:	bf1e      	ittt	ne
    2fd4:	f06f 030b 	mvnne.w	r3, #11
    2fd8:	6818      	ldrne	r0, [r3, #0]
    2fda:	0a00      	lsrne	r0, r0, #8
    2fdc:	4770      	bx	lr
    2fde:	bf00      	nop

00002fe0 <system__bb__threads__thread_descriptorIP>:
    2fe0:	2300      	movs	r3, #0
    2fe2:	f8c0 30b8 	str.w	r3, [r0, #184]	; 0xb8
    2fe6:	f8c0 30c8 	str.w	r3, [r0, #200]	; 0xc8
    2fea:	f8c0 30d0 	str.w	r3, [r0, #208]	; 0xd0
    2fee:	4770      	bx	lr

00002ff0 <system__bb__threads__Tslave_stacksBIP>:
    2ff0:	4770      	bx	lr
    2ff2:	bf00      	nop

00002ff4 <system__bb__threads__Tslave_stacks_tableBIP>:
    2ff4:	4770      	bx	lr
    2ff6:	bf00      	nop

00002ff8 <system__bb__threads__get_affinity>:
    2ff8:	f890 00a4 	ldrb.w	r0, [r0, #164]	; 0xa4
    2ffc:	4770      	bx	lr
    2ffe:	bf00      	nop

00003000 <system__bb__threads__get_cpu>:
    3000:	f890 00a4 	ldrb.w	r0, [r0, #164]	; 0xa4
    3004:	2800      	cmp	r0, #0
    3006:	bf08      	it	eq
    3008:	2001      	moveq	r0, #1
    300a:	4770      	bx	lr

0000300c <system__bb__threads__get_atcb>:
    300c:	f240 0374 	movw	r3, #116	; 0x74
    3010:	f6c0 0300 	movt	r3, #2048	; 0x800
    3014:	681b      	ldr	r3, [r3, #0]
    3016:	f8d3 00a0 	ldr.w	r0, [r3, #160]	; 0xa0
    301a:	4770      	bx	lr

0000301c <system__bb__threads__get_priority>:
    301c:	f8d0 00ac 	ldr.w	r0, [r0, #172]	; 0xac
    3020:	4770      	bx	lr
    3022:	bf00      	nop

00003024 <system__bb__threads__initialize>:
    3024:	e92d 43f8 	stmdb	sp!, {r3, r4, r5, r6, r7, r8, r9, lr}
    3028:	4604      	mov	r4, r0
    302a:	4689      	mov	r9, r1
    302c:	f7ff fe74 	bl	2d18 <system__bb__board_support__initialize_board>
    3030:	f001 f82c 	bl	408c <system__bb__interrupts__initialize_interrupts>
    3034:	f004 fd42 	bl	7abc <system__bb__time__initialize_timers>
    3038:	b672      	cpsid	i
    303a:	f240 0e74 	movw	lr, #116	; 0x74
    303e:	f240 0268 	movw	r2, #104	; 0x68
    3042:	f240 066c 	movw	r6, #108	; 0x6c
    3046:	f248 73f0 	movw	r3, #34800	; 0x87f0
    304a:	f249 77f0 	movw	r7, #38896	; 0x97f0
    304e:	2500      	movs	r5, #0
    3050:	f6c0 0e00 	movt	lr, #2048	; 0x800
    3054:	f6c0 0200 	movt	r2, #2048	; 0x800
    3058:	f6c0 0600 	movt	r6, #2048	; 0x800
    305c:	f6c0 0300 	movt	r3, #2048	; 0x800
    3060:	f04f 30ff 	mov.w	r0, #4294967295
    3064:	f04f 31ff 	mov.w	r1, #4294967295
    3068:	f04f 0801 	mov.w	r8, #1
    306c:	f6c0 0700 	movt	r7, #2048	; 0x800
    3070:	f8c4 90ac 	str.w	r9, [r4, #172]	; 0xac
    3074:	f8c4 90a8 	str.w	r9, [r4, #168]	; 0xa8
    3078:	f8ce 4000 	str.w	r4, [lr]
    307c:	6034      	str	r4, [r6, #0]
    307e:	6014      	str	r4, [r2, #0]
    3080:	f8c4 30b4 	str.w	r3, [r4, #180]	; 0xb4
    3084:	e9c4 0130 	strd	r0, r1, [r4, #192]	; 0xc0
    3088:	f884 80a4 	strb.w	r8, [r4, #164]	; 0xa4
    308c:	f8c4 50b8 	str.w	r5, [r4, #184]	; 0xb8
    3090:	f8c4 50d0 	str.w	r5, [r4, #208]	; 0xd0
    3094:	f884 50cc 	strb.w	r5, [r4, #204]	; 0xcc
    3098:	f884 50cd 	strb.w	r5, [r4, #205]	; 0xcd
    309c:	f884 50ce 	strb.w	r5, [r4, #206]	; 0xce
    30a0:	f8c4 50c8 	str.w	r5, [r4, #200]	; 0xc8
    30a4:	f8c4 50d4 	str.w	r5, [r4, #212]	; 0xd4
    30a8:	f8c4 50d8 	str.w	r5, [r4, #216]	; 0xd8
    30ac:	f8c4 70b0 	str.w	r7, [r4, #176]	; 0xb0
    30b0:	f3ef 8300 	mrs	r3, CPSR
    30b4:	f64f 76e0 	movw	r6, #65504	; 0xffe0
    30b8:	4620      	mov	r0, r4
    30ba:	f2c0 76f0 	movt	r6, #2032	; 0x7f0
    30be:	4629      	mov	r1, r5
    30c0:	401e      	ands	r6, r3
    30c2:	361f      	adds	r6, #31
    30c4:	22a0      	movs	r2, #160	; 0xa0
    30c6:	f004 ff87 	bl	7fd8 <memset>
    30ca:	6127      	str	r7, [r4, #16]
    30cc:	60e6      	str	r6, [r4, #12]
    30ce:	eee8 5a10 	vmsr	fpexc, r5
    30d2:	f240 133d 	movw	r3, #317	; 0x13d
    30d6:	f6c0 0300 	movt	r3, #2048	; 0x800
    30da:	f883 8000 	strb.w	r8, [r3]
    30de:	e8bd 43f8 	ldmia.w	sp!, {r3, r4, r5, r6, r7, r8, r9, lr}
    30e2:	f7ff bccf 	b.w	2a84 <system__bb__protection__leave_kernel>
    30e6:	bf00      	nop

000030e8 <system__bb__threads__initialize_slave_environment>:
    30e8:	b508      	push	{r3, lr}
    30ea:	f24c 2080 	movw	r0, #49792	; 0xc280
    30ee:	f240 1119 	movw	r1, #281	; 0x119
    30f2:	f2c0 0000 	movt	r0, #0
    30f6:	f002 fa71 	bl	55dc <__gnat_rcheck_PE_Explicit_Raise>
    30fa:	bf00      	nop

000030fc <system__bb__threads__set_atcb>:
    30fc:	f240 0374 	movw	r3, #116	; 0x74
    3100:	f6c0 0300 	movt	r3, #2048	; 0x800
    3104:	681b      	ldr	r3, [r3, #0]
    3106:	f8c3 00a0 	str.w	r0, [r3, #160]	; 0xa0
    310a:	4770      	bx	lr

0000310c <system__bb__threads__set_priority>:
    310c:	b410      	push	{r4}
    310e:	b672      	cpsid	i
    3110:	f240 0374 	movw	r3, #116	; 0x74
    3114:	f6c0 0300 	movt	r3, #2048	; 0x800
    3118:	681c      	ldr	r4, [r3, #0]
    311a:	f894 30a4 	ldrb.w	r3, [r4, #164]	; 0xa4
    311e:	2b00      	cmp	r3, #0
    3120:	f8c4 00ac 	str.w	r0, [r4, #172]	; 0xac
    3124:	bf08      	it	eq
    3126:	2301      	moveq	r3, #1
    3128:	f8d4 20b8 	ldr.w	r2, [r4, #184]	; 0xb8
    312c:	b1ea      	cbz	r2, 316a <system__bb__threads__set_priority+0x5e>
    312e:	f8d2 10ac 	ldr.w	r1, [r2, #172]	; 0xac
    3132:	4288      	cmp	r0, r1
    3134:	da19      	bge.n	316a <system__bb__threads__set_priority+0x5e>
    3136:	b25b      	sxtb	r3, r3
    3138:	f103 4380 	add.w	r3, r3, #1073741824	; 0x40000000
    313c:	f240 0168 	movw	r1, #104	; 0x68
    3140:	3b01      	subs	r3, #1
    3142:	f6c0 0100 	movt	r1, #2048	; 0x800
    3146:	f841 2023 	str.w	r2, [r1, r3, lsl #2]
    314a:	f851 2023 	ldr.w	r2, [r1, r3, lsl #2]
    314e:	e004      	b.n	315a <system__bb__threads__set_priority+0x4e>
    3150:	f8d3 10ac 	ldr.w	r1, [r3, #172]	; 0xac
    3154:	4288      	cmp	r0, r1
    3156:	da04      	bge.n	3162 <system__bb__threads__set_priority+0x56>
    3158:	461a      	mov	r2, r3
    315a:	f8d2 30b8 	ldr.w	r3, [r2, #184]	; 0xb8
    315e:	2b00      	cmp	r3, #0
    3160:	d1f6      	bne.n	3150 <system__bb__threads__set_priority+0x44>
    3162:	f8c4 30b8 	str.w	r3, [r4, #184]	; 0xb8
    3166:	f8c2 40b8 	str.w	r4, [r2, #184]	; 0xb8
    316a:	f85d 4b04 	ldr.w	r4, [sp], #4
    316e:	f7ff bc89 	b.w	2a84 <system__bb__protection__leave_kernel>
    3172:	bf00      	nop

00003174 <system__bb__threads__sleep>:
    3174:	f240 0374 	movw	r3, #116	; 0x74
    3178:	f6c0 0300 	movt	r3, #2048	; 0x800
    317c:	681a      	ldr	r2, [r3, #0]
    317e:	b672      	cpsid	i
    3180:	f892 30ce 	ldrb.w	r3, [r2, #206]	; 0xce
    3184:	b9d3      	cbnz	r3, 31bc <system__bb__threads__sleep+0x48>
    3186:	b410      	push	{r4}
    3188:	f892 10a4 	ldrb.w	r1, [r2, #164]	; 0xa4
    318c:	2301      	movs	r3, #1
    318e:	f882 30cc 	strb.w	r3, [r2, #204]	; 0xcc
    3192:	b989      	cbnz	r1, 31b8 <system__bb__threads__sleep+0x44>
    3194:	f103 4380 	add.w	r3, r3, #1073741824	; 0x40000000
    3198:	f240 0168 	movw	r1, #104	; 0x68
    319c:	3b01      	subs	r3, #1
    319e:	f6c0 0100 	movt	r1, #2048	; 0x800
    31a2:	2000      	movs	r0, #0
    31a4:	f8d2 40b8 	ldr.w	r4, [r2, #184]	; 0xb8
    31a8:	f841 4023 	str.w	r4, [r1, r3, lsl #2]
    31ac:	f8c2 00b8 	str.w	r0, [r2, #184]	; 0xb8
    31b0:	f85d 4b04 	ldr.w	r4, [sp], #4
    31b4:	f7ff bc66 	b.w	2a84 <system__bb__protection__leave_kernel>
    31b8:	b24b      	sxtb	r3, r1
    31ba:	e7eb      	b.n	3194 <system__bb__threads__sleep+0x20>
    31bc:	2300      	movs	r3, #0
    31be:	f882 30ce 	strb.w	r3, [r2, #206]	; 0xce
    31c2:	f7ff bc5f 	b.w	2a84 <system__bb__protection__leave_kernel>
    31c6:	bf00      	nop

000031c8 <system__bb__threads__thread_create>:
    31c8:	e92d 43f8 	stmdb	sp!, {r3, r4, r5, r6, r7, r8, r9, lr}
    31cc:	4604      	mov	r4, r0
    31ce:	460d      	mov	r5, r1
    31d0:	4616      	mov	r6, r2
    31d2:	f89d 0020 	ldrb.w	r0, [sp, #32]
    31d6:	f8dd e024 	ldr.w	lr, [sp, #36]	; 0x24
    31da:	9f0a      	ldr	r7, [sp, #40]	; 0x28
    31dc:	b672      	cpsid	i
    31de:	f240 026c 	movw	r2, #108	; 0x6c
    31e2:	f6c0 0200 	movt	r2, #2048	; 0x800
    31e6:	f8c4 30a8 	str.w	r3, [r4, #168]	; 0xa8
    31ea:	f8c4 30ac 	str.w	r3, [r4, #172]	; 0xac
    31ee:	b243      	sxtb	r3, r0
    31f0:	6811      	ldr	r1, [r2, #0]
    31f2:	f884 00a4 	strb.w	r0, [r4, #164]	; 0xa4
    31f6:	f8c4 10d0 	str.w	r1, [r4, #208]	; 0xd0
    31fa:	6014      	str	r4, [r2, #0]
    31fc:	b900      	cbnz	r0, 3200 <system__bb__threads__thread_create+0x38>
    31fe:	2301      	movs	r3, #1
    3200:	f103 4380 	add.w	r3, r3, #1073741824	; 0x40000000
    3204:	f240 0268 	movw	r2, #104	; 0x68
    3208:	3b01      	subs	r3, #1
    320a:	f6c0 0200 	movt	r2, #2048	; 0x800
    320e:	f852 1023 	ldr.w	r1, [r2, r3, lsl #2]
    3212:	428c      	cmp	r4, r1
    3214:	d023      	beq.n	325e <system__bb__threads__thread_create+0x96>
    3216:	f852 1023 	ldr.w	r1, [r2, r3, lsl #2]
    321a:	2900      	cmp	r1, #0
    321c:	d052      	beq.n	32c4 <system__bb__threads__thread_create+0xfc>
    321e:	f8d4 00ac 	ldr.w	r0, [r4, #172]	; 0xac
    3222:	f852 1023 	ldr.w	r1, [r2, r3, lsl #2]
    3226:	f8d1 10ac 	ldr.w	r1, [r1, #172]	; 0xac
    322a:	4288      	cmp	r0, r1
    322c:	dc4a      	bgt.n	32c4 <system__bb__threads__thread_create+0xfc>
    322e:	f852 0023 	ldr.w	r0, [r2, r3, lsl #2]
    3232:	e008      	b.n	3246 <system__bb__threads__thread_create+0x7e>
    3234:	429c      	cmp	r4, r3
    3236:	d04c      	beq.n	32d2 <system__bb__threads__thread_create+0x10a>
    3238:	f8d3 10ac 	ldr.w	r1, [r3, #172]	; 0xac
    323c:	f8d4 20ac 	ldr.w	r2, [r4, #172]	; 0xac
    3240:	4291      	cmp	r1, r2
    3242:	db06      	blt.n	3252 <system__bb__threads__thread_create+0x8a>
    3244:	4618      	mov	r0, r3
    3246:	f8d0 30b8 	ldr.w	r3, [r0, #184]	; 0xb8
    324a:	2b00      	cmp	r3, #0
    324c:	d1f2      	bne.n	3234 <system__bb__threads__thread_create+0x6c>
    324e:	2c00      	cmp	r4, #0
    3250:	d03f      	beq.n	32d2 <system__bb__threads__thread_create+0x10a>
    3252:	f8d0 30b8 	ldr.w	r3, [r0, #184]	; 0xb8
    3256:	f8c4 30b8 	str.w	r3, [r4, #184]	; 0xb8
    325a:	f8c0 40b8 	str.w	r4, [r0, #184]	; 0xb8
    325e:	eb0e 0807 	add.w	r8, lr, r7
    3262:	f028 0807 	bic.w	r8, r8, #7
    3266:	2700      	movs	r7, #0
    3268:	f8c4 80b0 	str.w	r8, [r4, #176]	; 0xb0
    326c:	f8c4 e0b4 	str.w	lr, [r4, #180]	; 0xb4
    3270:	f884 70cc 	strb.w	r7, [r4, #204]	; 0xcc
    3274:	f884 70cd 	strb.w	r7, [r4, #205]	; 0xcd
    3278:	f884 70ce 	strb.w	r7, [r4, #206]	; 0xce
    327c:	f3ef 8300 	mrs	r3, CPSR
    3280:	f64f 79e0 	movw	r9, #65504	; 0xffe0
    3284:	4639      	mov	r1, r7
    3286:	f2c0 79f0 	movt	r9, #2032	; 0x7f0
    328a:	4620      	mov	r0, r4
    328c:	ea03 0909 	and.w	r9, r3, r9
    3290:	22a0      	movs	r2, #160	; 0xa0
    3292:	f004 fea1 	bl	7fd8 <memset>
    3296:	f109 031f 	add.w	r3, r9, #31
    329a:	f04f 30ff 	mov.w	r0, #4294967295
    329e:	f04f 31ff 	mov.w	r1, #4294967295
    32a2:	60e3      	str	r3, [r4, #12]
    32a4:	6026      	str	r6, [r4, #0]
    32a6:	60a5      	str	r5, [r4, #8]
    32a8:	f8c4 8010 	str.w	r8, [r4, #16]
    32ac:	f8c4 70c8 	str.w	r7, [r4, #200]	; 0xc8
    32b0:	f8c4 70d4 	str.w	r7, [r4, #212]	; 0xd4
    32b4:	f8c4 70d8 	str.w	r7, [r4, #216]	; 0xd8
    32b8:	e9c4 0130 	strd	r0, r1, [r4, #192]	; 0xc0
    32bc:	e8bd 43f8 	ldmia.w	sp!, {r3, r4, r5, r6, r7, r8, r9, lr}
    32c0:	f7ff bbe0 	b.w	2a84 <system__bb__protection__leave_kernel>
    32c4:	f852 1023 	ldr.w	r1, [r2, r3, lsl #2]
    32c8:	f8c4 10b8 	str.w	r1, [r4, #184]	; 0xb8
    32cc:	f842 4023 	str.w	r4, [r2, r3, lsl #2]
    32d0:	e7c5      	b.n	325e <system__bb__threads__thread_create+0x96>
    32d2:	f8d4 30b8 	ldr.w	r3, [r4, #184]	; 0xb8
    32d6:	f8c0 30b8 	str.w	r3, [r0, #184]	; 0xb8
    32da:	e006      	b.n	32ea <system__bb__threads__thread_create+0x122>
    32dc:	f8d3 10ac 	ldr.w	r1, [r3, #172]	; 0xac
    32e0:	f8d4 20ac 	ldr.w	r2, [r4, #172]	; 0xac
    32e4:	4291      	cmp	r1, r2
    32e6:	dbb4      	blt.n	3252 <system__bb__threads__thread_create+0x8a>
    32e8:	4618      	mov	r0, r3
    32ea:	f8d0 30b8 	ldr.w	r3, [r0, #184]	; 0xb8
    32ee:	2b00      	cmp	r3, #0
    32f0:	d1f4      	bne.n	32dc <system__bb__threads__thread_create+0x114>
    32f2:	e7ae      	b.n	3252 <system__bb__threads__thread_create+0x8a>

000032f4 <system__bb__threads__thread_self>:
    32f4:	f240 0374 	movw	r3, #116	; 0x74
    32f8:	f6c0 0300 	movt	r3, #2048	; 0x800
    32fc:	6818      	ldr	r0, [r3, #0]
    32fe:	4770      	bx	lr

00003300 <system__bb__threads__wakeup>:
    3300:	b672      	cpsid	i
    3302:	f890 30cc 	ldrb.w	r3, [r0, #204]	; 0xcc
    3306:	2b01      	cmp	r3, #1
    3308:	bf1c      	itt	ne
    330a:	2301      	movne	r3, #1
    330c:	f880 30ce 	strbne.w	r3, [r0, #206]	; 0xce
    3310:	d001      	beq.n	3316 <system__bb__threads__wakeup+0x16>
    3312:	f7ff bbb7 	b.w	2a84 <system__bb__protection__leave_kernel>
    3316:	2100      	movs	r1, #0
    3318:	f890 20a4 	ldrb.w	r2, [r0, #164]	; 0xa4
    331c:	f880 10cc 	strb.w	r1, [r0, #204]	; 0xcc
    3320:	bb7a      	cbnz	r2, 3382 <system__bb__threads__wakeup+0x82>
    3322:	f103 4380 	add.w	r3, r3, #1073741824	; 0x40000000
    3326:	f240 0268 	movw	r2, #104	; 0x68
    332a:	3b01      	subs	r3, #1
    332c:	f6c0 0200 	movt	r2, #2048	; 0x800
    3330:	f852 1023 	ldr.w	r1, [r2, r3, lsl #2]
    3334:	4288      	cmp	r0, r1
    3336:	d0ec      	beq.n	3312 <system__bb__threads__wakeup+0x12>
    3338:	f852 1023 	ldr.w	r1, [r2, r3, lsl #2]
    333c:	2900      	cmp	r1, #0
    333e:	d03f      	beq.n	33c0 <system__bb__threads__wakeup+0xc0>
    3340:	b410      	push	{r4}
    3342:	f8d0 40ac 	ldr.w	r4, [r0, #172]	; 0xac
    3346:	f852 1023 	ldr.w	r1, [r2, r3, lsl #2]
    334a:	f8d1 10ac 	ldr.w	r1, [r1, #172]	; 0xac
    334e:	428c      	cmp	r4, r1
    3350:	dc19      	bgt.n	3386 <system__bb__threads__wakeup+0x86>
    3352:	f852 2023 	ldr.w	r2, [r2, r3, lsl #2]
    3356:	e008      	b.n	336a <system__bb__threads__wakeup+0x6a>
    3358:	4298      	cmp	r0, r3
    335a:	d01e      	beq.n	339a <system__bb__threads__wakeup+0x9a>
    335c:	f8d3 40ac 	ldr.w	r4, [r3, #172]	; 0xac
    3360:	f8d0 10ac 	ldr.w	r1, [r0, #172]	; 0xac
    3364:	428c      	cmp	r4, r1
    3366:	db05      	blt.n	3374 <system__bb__threads__wakeup+0x74>
    3368:	461a      	mov	r2, r3
    336a:	f8d2 30b8 	ldr.w	r3, [r2, #184]	; 0xb8
    336e:	2b00      	cmp	r3, #0
    3370:	d1f2      	bne.n	3358 <system__bb__threads__wakeup+0x58>
    3372:	b190      	cbz	r0, 339a <system__bb__threads__wakeup+0x9a>
    3374:	f8d2 30b8 	ldr.w	r3, [r2, #184]	; 0xb8
    3378:	f8c0 30b8 	str.w	r3, [r0, #184]	; 0xb8
    337c:	f8c2 00b8 	str.w	r0, [r2, #184]	; 0xb8
    3380:	e007      	b.n	3392 <system__bb__threads__wakeup+0x92>
    3382:	b253      	sxtb	r3, r2
    3384:	e7cd      	b.n	3322 <system__bb__threads__wakeup+0x22>
    3386:	f852 1023 	ldr.w	r1, [r2, r3, lsl #2]
    338a:	f8c0 10b8 	str.w	r1, [r0, #184]	; 0xb8
    338e:	f842 0023 	str.w	r0, [r2, r3, lsl #2]
    3392:	f85d 4b04 	ldr.w	r4, [sp], #4
    3396:	f7ff bb75 	b.w	2a84 <system__bb__protection__leave_kernel>
    339a:	f8d0 30b8 	ldr.w	r3, [r0, #184]	; 0xb8
    339e:	4611      	mov	r1, r2
    33a0:	f8c2 30b8 	str.w	r3, [r2, #184]	; 0xb8
    33a4:	e006      	b.n	33b4 <system__bb__threads__wakeup+0xb4>
    33a6:	f8d3 40ac 	ldr.w	r4, [r3, #172]	; 0xac
    33aa:	f8d0 20ac 	ldr.w	r2, [r0, #172]	; 0xac
    33ae:	4294      	cmp	r4, r2
    33b0:	db04      	blt.n	33bc <system__bb__threads__wakeup+0xbc>
    33b2:	4619      	mov	r1, r3
    33b4:	f8d1 30b8 	ldr.w	r3, [r1, #184]	; 0xb8
    33b8:	2b00      	cmp	r3, #0
    33ba:	d1f4      	bne.n	33a6 <system__bb__threads__wakeup+0xa6>
    33bc:	460a      	mov	r2, r1
    33be:	e7d9      	b.n	3374 <system__bb__threads__wakeup+0x74>
    33c0:	f852 1023 	ldr.w	r1, [r2, r3, lsl #2]
    33c4:	f8c0 10b8 	str.w	r1, [r0, #184]	; 0xb8
    33c8:	f842 0023 	str.w	r0, [r2, r3, lsl #2]
    33cc:	e7a1      	b.n	3312 <system__bb__threads__wakeup+0x12>
    33ce:	bf00      	nop

000033d0 <memcmp>:
    33d0:	b182      	cbz	r2, 33f4 <memcmp+0x24>
    33d2:	b430      	push	{r4, r5}
    33d4:	f04f 33ff 	mov.w	r3, #4294967295
    33d8:	3a01      	subs	r2, #1
    33da:	e002      	b.n	33e2 <memcmp+0x12>
    33dc:	d80c      	bhi.n	33f8 <memcmp+0x28>
    33de:	4293      	cmp	r3, r2
    33e0:	d00d      	beq.n	33fe <memcmp+0x2e>
    33e2:	3301      	adds	r3, #1
    33e4:	5c1d      	ldrb	r5, [r3, r0]
    33e6:	5c5c      	ldrb	r4, [r3, r1]
    33e8:	42a5      	cmp	r5, r4
    33ea:	d2f7      	bcs.n	33dc <memcmp+0xc>
    33ec:	f04f 30ff 	mov.w	r0, #4294967295
    33f0:	bc30      	pop	{r4, r5}
    33f2:	4770      	bx	lr
    33f4:	2000      	movs	r0, #0
    33f6:	4770      	bx	lr
    33f8:	2001      	movs	r0, #1
    33fa:	bc30      	pop	{r4, r5}
    33fc:	4770      	bx	lr
    33fe:	2000      	movs	r0, #0
    3400:	e7f6      	b.n	33f0 <memcmp+0x20>
    3402:	bf00      	nop

00003404 <system__bb__timing_events___size>:
    3404:	f44f 7080 	mov.w	r0, #256	; 0x100
    3408:	2100      	movs	r1, #0
    340a:	4770      	bx	lr

0000340c <system__bb__timing_events__timing_eventDF>:
    340c:	4770      	bx	lr
    340e:	bf00      	nop

00003410 <system__bb__timing_events__current_handler>:
    3410:	6900      	ldr	r0, [r0, #16]
    3412:	4770      	bx	lr

00003414 <system__bb__timing_events__time_of_event>:
    3414:	6903      	ldr	r3, [r0, #16]
    3416:	b113      	cbz	r3, 341e <system__bb__timing_events__time_of_event+0xa>
    3418:	e9d0 0102 	ldrd	r0, r1, [r0, #8]
    341c:	4770      	bx	lr
    341e:	2000      	movs	r0, #0
    3420:	2100      	movs	r1, #0
    3422:	4770      	bx	lr

00003424 <system__bb__timing_events__cancel_handler>:
    3424:	b508      	push	{r3, lr}
    3426:	6903      	ldr	r3, [r0, #16]
    3428:	b313      	cbz	r3, 3470 <system__bb__timing_events__cancel_handler+0x4c>
    342a:	f240 1340 	movw	r3, #320	; 0x140
    342e:	f6c0 0300 	movt	r3, #2048	; 0x800
    3432:	681a      	ldr	r2, [r3, #0]
    3434:	4290      	cmp	r0, r2
    3436:	d00b      	beq.n	3450 <system__bb__timing_events__cancel_handler+0x2c>
    3438:	6981      	ldr	r1, [r0, #24]
    343a:	6943      	ldr	r3, [r0, #20]
    343c:	614b      	str	r3, [r1, #20]
    343e:	6942      	ldr	r2, [r0, #20]
    3440:	b1da      	cbz	r2, 347a <system__bb__timing_events__cancel_handler+0x56>
    3442:	2300      	movs	r3, #0
    3444:	6191      	str	r1, [r2, #24]
    3446:	6143      	str	r3, [r0, #20]
    3448:	6183      	str	r3, [r0, #24]
    344a:	6103      	str	r3, [r0, #16]
    344c:	2001      	movs	r0, #1
    344e:	bd08      	pop	{r3, pc}
    3450:	6942      	ldr	r2, [r0, #20]
    3452:	601a      	str	r2, [r3, #0]
    3454:	b172      	cbz	r2, 3474 <system__bb__timing_events__cancel_handler+0x50>
    3456:	2300      	movs	r3, #0
    3458:	6981      	ldr	r1, [r0, #24]
    345a:	6191      	str	r1, [r2, #24]
    345c:	6143      	str	r3, [r0, #20]
    345e:	6183      	str	r3, [r0, #24]
    3460:	6103      	str	r3, [r0, #16]
    3462:	2001      	movs	r0, #1
    3464:	f004 faf8 	bl	7a58 <system__bb__time__get_next_timeout>
    3468:	f004 fb8a 	bl	7b80 <system__bb__time__update_alarm>
    346c:	2001      	movs	r0, #1
    346e:	bd08      	pop	{r3, pc}
    3470:	4618      	mov	r0, r3
    3472:	bd08      	pop	{r3, pc}
    3474:	6182      	str	r2, [r0, #24]
    3476:	6102      	str	r2, [r0, #16]
    3478:	e7f3      	b.n	3462 <system__bb__timing_events__cancel_handler+0x3e>
    347a:	6182      	str	r2, [r0, #24]
    347c:	6102      	str	r2, [r0, #16]
    347e:	e7e5      	b.n	344c <system__bb__timing_events__cancel_handler+0x28>

00003480 <system__bb__timing_events__timing_eventIP>:
    3480:	b430      	push	{r4, r5}
    3482:	b109      	cbz	r1, 3488 <system__bb__timing_events__timing_eventIP+0x8>
    3484:	4b05      	ldr	r3, [pc, #20]	; (349c <system__bb__timing_events__timing_eventIP+0x1c>)
    3486:	6003      	str	r3, [r0, #0]
    3488:	2300      	movs	r3, #0
    348a:	2400      	movs	r4, #0
    348c:	2500      	movs	r5, #0
    348e:	6103      	str	r3, [r0, #16]
    3490:	e9c0 4502 	strd	r4, r5, [r0, #8]
    3494:	6143      	str	r3, [r0, #20]
    3496:	6183      	str	r3, [r0, #24]
    3498:	bc30      	pop	{r4, r5}
    349a:	4770      	bx	lr
    349c:	0000c324 	.word	0x0000c324

000034a0 <system__bb__timing_events__Ttiming_eventCFD>:
    34a0:	6803      	ldr	r3, [r0, #0]
    34a2:	2101      	movs	r1, #1
    34a4:	f853 3c0c 	ldr.w	r3, [r3, #-12]
    34a8:	6a1b      	ldr	r3, [r3, #32]
    34aa:	4718      	bx	r3

000034ac <system__bb__timing_events__finalize_spec>:
    34ac:	4801      	ldr	r0, [pc, #4]	; (34b4 <system__bb__timing_events__finalize_spec+0x8>)
    34ae:	f003 bb51 	b.w	6b54 <ada__tags__unregister_tag>
    34b2:	bf00      	nop
    34b4:	0000c324 	.word	0x0000c324

000034b8 <system__bb__timing_events__execute_expired_timing_events>:
    34b8:	e92d 4ff8 	stmdb	sp!, {r3, r4, r5, r6, r7, r8, r9, sl, fp, lr}
    34bc:	f240 1a40 	movw	sl, #320	; 0x140
    34c0:	460f      	mov	r7, r1
    34c2:	f6c0 0a00 	movt	sl, #2048	; 0x800
    34c6:	f8da 1000 	ldr.w	r1, [sl]
    34ca:	2900      	cmp	r1, #0
    34cc:	d07d      	beq.n	35ca <system__bb__timing_events__execute_expired_timing_events+0x112>
    34ce:	f240 0374 	movw	r3, #116	; 0x74
    34d2:	4606      	mov	r6, r0
    34d4:	f6c0 0300 	movt	r3, #2048	; 0x800
    34d8:	20f2      	movs	r0, #242	; 0xf2
    34da:	f8d3 b000 	ldr.w	fp, [r3]
    34de:	f89b 30a4 	ldrb.w	r3, [fp, #164]	; 0xa4
    34e2:	2b00      	cmp	r3, #0
    34e4:	bf08      	it	eq
    34e6:	2301      	moveq	r3, #1
    34e8:	f8db 20b8 	ldr.w	r2, [fp, #184]	; 0xb8
    34ec:	f8db 80ac 	ldr.w	r8, [fp, #172]	; 0xac
    34f0:	f8cb 00ac 	str.w	r0, [fp, #172]	; 0xac
    34f4:	b1ea      	cbz	r2, 3532 <system__bb__timing_events__execute_expired_timing_events+0x7a>
    34f6:	f8d2 00ac 	ldr.w	r0, [r2, #172]	; 0xac
    34fa:	28f2      	cmp	r0, #242	; 0xf2
    34fc:	dd19      	ble.n	3532 <system__bb__timing_events__execute_expired_timing_events+0x7a>
    34fe:	b25b      	sxtb	r3, r3
    3500:	f103 4380 	add.w	r3, r3, #1073741824	; 0x40000000
    3504:	f240 0068 	movw	r0, #104	; 0x68
    3508:	3b01      	subs	r3, #1
    350a:	f6c0 0000 	movt	r0, #2048	; 0x800
    350e:	f840 2023 	str.w	r2, [r0, r3, lsl #2]
    3512:	f850 2023 	ldr.w	r2, [r0, r3, lsl #2]
    3516:	e004      	b.n	3522 <system__bb__timing_events__execute_expired_timing_events+0x6a>
    3518:	f8d3 00ac 	ldr.w	r0, [r3, #172]	; 0xac
    351c:	28f2      	cmp	r0, #242	; 0xf2
    351e:	dd04      	ble.n	352a <system__bb__timing_events__execute_expired_timing_events+0x72>
    3520:	461a      	mov	r2, r3
    3522:	f8d2 30b8 	ldr.w	r3, [r2, #184]	; 0xb8
    3526:	2b00      	cmp	r3, #0
    3528:	d1f6      	bne.n	3518 <system__bb__timing_events__execute_expired_timing_events+0x60>
    352a:	f8cb 30b8 	str.w	r3, [fp, #184]	; 0xb8
    352e:	f8c2 b0b8 	str.w	fp, [r2, #184]	; 0xb8
    3532:	f240 1940 	movw	r9, #320	; 0x140
    3536:	2400      	movs	r4, #0
    3538:	f6c0 0900 	movt	r9, #2048	; 0x800
    353c:	e9d1 2302 	ldrd	r2, r3, [r1, #8]
    3540:	429f      	cmp	r7, r3
    3542:	bf08      	it	eq
    3544:	4296      	cmpeq	r6, r2
    3546:	d318      	bcc.n	357a <system__bb__timing_events__execute_expired_timing_events+0xc2>
    3548:	f8da 2000 	ldr.w	r2, [sl]
    354c:	690b      	ldr	r3, [r1, #16]
    354e:	4291      	cmp	r1, r2
    3550:	bf1e      	ittt	ne
    3552:	6988      	ldrne	r0, [r1, #24]
    3554:	694a      	ldrne	r2, [r1, #20]
    3556:	6142      	strne	r2, [r0, #20]
    3558:	4608      	mov	r0, r1
    355a:	bf0a      	itet	eq
    355c:	694a      	ldreq	r2, [r1, #20]
    355e:	694a      	ldrne	r2, [r1, #20]
    3560:	f8c9 2000 	streq.w	r2, [r9]
    3564:	b10a      	cbz	r2, 356a <system__bb__timing_events__execute_expired_timing_events+0xb2>
    3566:	698d      	ldr	r5, [r1, #24]
    3568:	6195      	str	r5, [r2, #24]
    356a:	614c      	str	r4, [r1, #20]
    356c:	618c      	str	r4, [r1, #24]
    356e:	610c      	str	r4, [r1, #16]
    3570:	4798      	blx	r3
    3572:	f8da 1000 	ldr.w	r1, [sl]
    3576:	2900      	cmp	r1, #0
    3578:	d1e0      	bne.n	353c <system__bb__timing_events__execute_expired_timing_events+0x84>
    357a:	f8db 20b8 	ldr.w	r2, [fp, #184]	; 0xb8
    357e:	f89b 30a4 	ldrb.w	r3, [fp, #164]	; 0xa4
    3582:	2b00      	cmp	r3, #0
    3584:	f8cb 80ac 	str.w	r8, [fp, #172]	; 0xac
    3588:	bf08      	it	eq
    358a:	2301      	moveq	r3, #1
    358c:	b1ea      	cbz	r2, 35ca <system__bb__timing_events__execute_expired_timing_events+0x112>
    358e:	f8d2 10ac 	ldr.w	r1, [r2, #172]	; 0xac
    3592:	4588      	cmp	r8, r1
    3594:	da19      	bge.n	35ca <system__bb__timing_events__execute_expired_timing_events+0x112>
    3596:	b25b      	sxtb	r3, r3
    3598:	f103 4380 	add.w	r3, r3, #1073741824	; 0x40000000
    359c:	f240 0168 	movw	r1, #104	; 0x68
    35a0:	3b01      	subs	r3, #1
    35a2:	f6c0 0100 	movt	r1, #2048	; 0x800
    35a6:	f841 2023 	str.w	r2, [r1, r3, lsl #2]
    35aa:	f851 2023 	ldr.w	r2, [r1, r3, lsl #2]
    35ae:	e004      	b.n	35ba <system__bb__timing_events__execute_expired_timing_events+0x102>
    35b0:	f8d3 10ac 	ldr.w	r1, [r3, #172]	; 0xac
    35b4:	4588      	cmp	r8, r1
    35b6:	da04      	bge.n	35c2 <system__bb__timing_events__execute_expired_timing_events+0x10a>
    35b8:	461a      	mov	r2, r3
    35ba:	f8d2 30b8 	ldr.w	r3, [r2, #184]	; 0xb8
    35be:	2b00      	cmp	r3, #0
    35c0:	d1f6      	bne.n	35b0 <system__bb__timing_events__execute_expired_timing_events+0xf8>
    35c2:	f8cb 30b8 	str.w	r3, [fp, #184]	; 0xb8
    35c6:	f8c2 b0b8 	str.w	fp, [r2, #184]	; 0xb8
    35ca:	e8bd 8ff8 	ldmia.w	sp!, {r3, r4, r5, r6, r7, r8, r9, sl, fp, pc}
    35ce:	bf00      	nop

000035d0 <system__bb__timing_events__get_next_timeout>:
    35d0:	b240      	sxtb	r0, r0
    35d2:	f100 4080 	add.w	r0, r0, #1073741824	; 0x40000000
    35d6:	f240 1340 	movw	r3, #320	; 0x140
    35da:	3801      	subs	r0, #1
    35dc:	f6c0 0300 	movt	r3, #2048	; 0x800
    35e0:	f853 3020 	ldr.w	r3, [r3, r0, lsl #2]
    35e4:	b113      	cbz	r3, 35ec <system__bb__timing_events__get_next_timeout+0x1c>
    35e6:	e9d3 0102 	ldrd	r0, r1, [r3, #8]
    35ea:	4770      	bx	lr
    35ec:	f04f 30ff 	mov.w	r0, #4294967295
    35f0:	f04f 31ff 	mov.w	r1, #4294967295
    35f4:	4770      	bx	lr
    35f6:	bf00      	nop

000035f8 <system__bb__timing_events__extract>:
    35f8:	f240 1240 	movw	r2, #320	; 0x140
    35fc:	f6c0 0200 	movt	r2, #2048	; 0x800
    3600:	4603      	mov	r3, r0
    3602:	6811      	ldr	r1, [r2, #0]
    3604:	4281      	cmp	r1, r0
    3606:	bf13      	iteet	ne
    3608:	2000      	movne	r0, #0
    360a:	6941      	ldreq	r1, [r0, #20]
    360c:	2001      	moveq	r0, #1
    360e:	699a      	ldrne	r2, [r3, #24]
    3610:	bf16      	itet	ne
    3612:	6959      	ldrne	r1, [r3, #20]
    3614:	6011      	streq	r1, [r2, #0]
    3616:	6151      	strne	r1, [r2, #20]
    3618:	695a      	ldr	r2, [r3, #20]
    361a:	b10a      	cbz	r2, 3620 <system__bb__timing_events__extract+0x28>
    361c:	6999      	ldr	r1, [r3, #24]
    361e:	6191      	str	r1, [r2, #24]
    3620:	2200      	movs	r2, #0
    3622:	615a      	str	r2, [r3, #20]
    3624:	619a      	str	r2, [r3, #24]
    3626:	4770      	bx	lr

00003628 <system__bb__timing_events__insert>:
    3628:	f240 1340 	movw	r3, #320	; 0x140
    362c:	f6c0 0300 	movt	r3, #2048	; 0x800
    3630:	681a      	ldr	r2, [r3, #0]
    3632:	b30a      	cbz	r2, 3678 <system__bb__timing_events__insert+0x50>
    3634:	b4f0      	push	{r4, r5, r6, r7}
    3636:	e9d2 4502 	ldrd	r4, r5, [r2, #8]
    363a:	e9d0 6702 	ldrd	r6, r7, [r0, #8]
    363e:	42af      	cmp	r7, r5
    3640:	bf08      	it	eq
    3642:	42a6      	cmpeq	r6, r4
    3644:	d20c      	bcs.n	3660 <system__bb__timing_events__insert+0x38>
    3646:	6142      	str	r2, [r0, #20]
    3648:	6018      	str	r0, [r3, #0]
    364a:	6190      	str	r0, [r2, #24]
    364c:	2001      	movs	r0, #1
    364e:	bcf0      	pop	{r4, r5, r6, r7}
    3650:	4770      	bx	lr
    3652:	e9d3 4502 	ldrd	r4, r5, [r3, #8]
    3656:	42af      	cmp	r7, r5
    3658:	bf08      	it	eq
    365a:	42a6      	cmpeq	r6, r4
    365c:	d303      	bcc.n	3666 <system__bb__timing_events__insert+0x3e>
    365e:	461a      	mov	r2, r3
    3660:	6953      	ldr	r3, [r2, #20]
    3662:	2b00      	cmp	r3, #0
    3664:	d1f5      	bne.n	3652 <system__bb__timing_events__insert+0x2a>
    3666:	6143      	str	r3, [r0, #20]
    3668:	6953      	ldr	r3, [r2, #20]
    366a:	6182      	str	r2, [r0, #24]
    366c:	b103      	cbz	r3, 3670 <system__bb__timing_events__insert+0x48>
    366e:	6198      	str	r0, [r3, #24]
    3670:	6150      	str	r0, [r2, #20]
    3672:	2000      	movs	r0, #0
    3674:	bcf0      	pop	{r4, r5, r6, r7}
    3676:	4770      	bx	lr
    3678:	6142      	str	r2, [r0, #20]
    367a:	6018      	str	r0, [r3, #0]
    367c:	2001      	movs	r0, #1
    367e:	4770      	bx	lr

00003680 <system__bb__timing_events__set_handler>:
    3680:	b5d0      	push	{r4, r6, r7, lr}
    3682:	4601      	mov	r1, r0
    3684:	461f      	mov	r7, r3
    3686:	4616      	mov	r6, r2
    3688:	9804      	ldr	r0, [sp, #16]
    368a:	690b      	ldr	r3, [r1, #16]
    368c:	2b00      	cmp	r3, #0
    368e:	d02a      	beq.n	36e6 <system__bb__timing_events__set_handler+0x66>
    3690:	f240 1340 	movw	r3, #320	; 0x140
    3694:	f6c0 0300 	movt	r3, #2048	; 0x800
    3698:	681a      	ldr	r2, [r3, #0]
    369a:	4291      	cmp	r1, r2
    369c:	bf0f      	iteee	eq
    369e:	2401      	moveq	r4, #1
    36a0:	2400      	movne	r4, #0
    36a2:	694a      	ldrne	r2, [r1, #20]
    36a4:	698b      	ldrne	r3, [r1, #24]
    36a6:	bf0d      	iteet	eq
    36a8:	694a      	ldreq	r2, [r1, #20]
    36aa:	615a      	strne	r2, [r3, #20]
    36ac:	694a      	ldrne	r2, [r1, #20]
    36ae:	601a      	streq	r2, [r3, #0]
    36b0:	b10a      	cbz	r2, 36b6 <system__bb__timing_events__set_handler+0x36>
    36b2:	698b      	ldr	r3, [r1, #24]
    36b4:	6193      	str	r3, [r2, #24]
    36b6:	2300      	movs	r3, #0
    36b8:	6108      	str	r0, [r1, #16]
    36ba:	614b      	str	r3, [r1, #20]
    36bc:	618b      	str	r3, [r1, #24]
    36be:	b130      	cbz	r0, 36ce <system__bb__timing_events__set_handler+0x4e>
    36c0:	2301      	movs	r3, #1
    36c2:	4608      	mov	r0, r1
    36c4:	e9c1 6702 	strd	r6, r7, [r1, #8]
    36c8:	770b      	strb	r3, [r1, #28]
    36ca:	f7ff ffad 	bl	3628 <system__bb__timing_events__insert>
    36ce:	4320      	orrs	r0, r4
    36d0:	f010 0fff 	tst.w	r0, #255	; 0xff
    36d4:	d100      	bne.n	36d8 <system__bb__timing_events__set_handler+0x58>
    36d6:	bdd0      	pop	{r4, r6, r7, pc}
    36d8:	2001      	movs	r0, #1
    36da:	f004 f9bd 	bl	7a58 <system__bb__time__get_next_timeout>
    36de:	e8bd 40d0 	ldmia.w	sp!, {r4, r6, r7, lr}
    36e2:	f004 ba4d 	b.w	7b80 <system__bb__time__update_alarm>
    36e6:	6108      	str	r0, [r1, #16]
    36e8:	461c      	mov	r4, r3
    36ea:	2800      	cmp	r0, #0
    36ec:	d1e8      	bne.n	36c0 <system__bb__timing_events__set_handler+0x40>
    36ee:	e7f2      	b.n	36d6 <system__bb__timing_events__set_handler+0x56>

000036f0 <system__bb__timing_events___elabs>:
    36f0:	4801      	ldr	r0, [pc, #4]	; (36f8 <system__bb__timing_events___elabs+0x8>)
    36f2:	f003 b9d1 	b.w	6a98 <ada__tags__register_tag>
    36f6:	bf00      	nop
    36f8:	0000c324 	.word	0x0000c324

000036fc <system__tasking__debug__add_task_id>:
    36fc:	b480      	push	{r7}
    36fe:	b083      	sub	sp, #12
    3700:	af00      	add	r7, sp, #0
    3702:	6078      	str	r0, [r7, #4]
    3704:	f240 1350 	movw	r3, #336	; 0x150
    3708:	f6c0 0300 	movt	r3, #2048	; 0x800
    370c:	681b      	ldr	r3, [r3, #0]
    370e:	2b00      	cmp	r3, #0
    3710:	d008      	beq.n	3724 <system__tasking__debug__add_task_id+0x28>
    3712:	f240 1350 	movw	r3, #336	; 0x150
    3716:	f6c0 0300 	movt	r3, #2048	; 0x800
    371a:	681b      	ldr	r3, [r3, #0]
    371c:	687a      	ldr	r2, [r7, #4]
    371e:	f8c3 22c0 	str.w	r2, [r3, #704]	; 0x2c0
    3722:	e005      	b.n	3730 <system__tasking__debug__add_task_id+0x34>
    3724:	f240 134c 	movw	r3, #332	; 0x14c
    3728:	f6c0 0300 	movt	r3, #2048	; 0x800
    372c:	687a      	ldr	r2, [r7, #4]
    372e:	601a      	str	r2, [r3, #0]
    3730:	f240 1350 	movw	r3, #336	; 0x150
    3734:	f6c0 0300 	movt	r3, #2048	; 0x800
    3738:	687a      	ldr	r2, [r7, #4]
    373a:	601a      	str	r2, [r3, #0]
    373c:	370c      	adds	r7, #12
    373e:	46bd      	mov	sp, r7
    3740:	f85d 7b04 	ldr.w	r7, [sp], #4
    3744:	4770      	bx	lr
    3746:	bf00      	nop

00003748 <ada__synchronous_task_control__suspension_objectIP>:
    3748:	2300      	movs	r3, #0
    374a:	7003      	strb	r3, [r0, #0]
    374c:	6043      	str	r3, [r0, #4]
    374e:	4770      	bx	lr

00003750 <ada__synchronous_task_control__current_state>:
    3750:	7800      	ldrb	r0, [r0, #0]
    3752:	b2c0      	uxtb	r0, r0
    3754:	4770      	bx	lr
    3756:	bf00      	nop

00003758 <ada__synchronous_task_control__set_false>:
    3758:	2300      	movs	r3, #0
    375a:	7003      	strb	r3, [r0, #0]
    375c:	4770      	bx	lr
    375e:	bf00      	nop

00003760 <ada__synchronous_task_control__set_true>:
    3760:	b570      	push	{r4, r5, r6, lr}
    3762:	4605      	mov	r5, r0
    3764:	f004 f8b0 	bl	78c8 <system__tasking__self>
    3768:	f8d0 30f8 	ldr.w	r3, [r0, #248]	; 0xf8
    376c:	f8d3 40ac 	ldr.w	r4, [r3, #172]	; 0xac
    3770:	b672      	cpsid	i
    3772:	f240 0674 	movw	r6, #116	; 0x74
    3776:	22f2      	movs	r2, #242	; 0xf2
    3778:	f6c0 0600 	movt	r6, #2048	; 0x800
    377c:	6830      	ldr	r0, [r6, #0]
    377e:	f890 30a4 	ldrb.w	r3, [r0, #164]	; 0xa4
    3782:	f8c0 20ac 	str.w	r2, [r0, #172]	; 0xac
    3786:	2b00      	cmp	r3, #0
    3788:	bf08      	it	eq
    378a:	2301      	moveq	r3, #1
    378c:	f8d0 20b8 	ldr.w	r2, [r0, #184]	; 0xb8
    3790:	b1ea      	cbz	r2, 37ce <ada__synchronous_task_control__set_true+0x6e>
    3792:	f8d2 10ac 	ldr.w	r1, [r2, #172]	; 0xac
    3796:	29f2      	cmp	r1, #242	; 0xf2
    3798:	dd19      	ble.n	37ce <ada__synchronous_task_control__set_true+0x6e>
    379a:	b25b      	sxtb	r3, r3
    379c:	f103 4380 	add.w	r3, r3, #1073741824	; 0x40000000
    37a0:	f240 0168 	movw	r1, #104	; 0x68
    37a4:	3b01      	subs	r3, #1
    37a6:	f6c0 0100 	movt	r1, #2048	; 0x800
    37aa:	f841 2023 	str.w	r2, [r1, r3, lsl #2]
    37ae:	f851 2023 	ldr.w	r2, [r1, r3, lsl #2]
    37b2:	e004      	b.n	37be <ada__synchronous_task_control__set_true+0x5e>
    37b4:	f8d3 10ac 	ldr.w	r1, [r3, #172]	; 0xac
    37b8:	29f2      	cmp	r1, #242	; 0xf2
    37ba:	dd04      	ble.n	37c6 <ada__synchronous_task_control__set_true+0x66>
    37bc:	461a      	mov	r2, r3
    37be:	f8d2 30b8 	ldr.w	r3, [r2, #184]	; 0xb8
    37c2:	2b00      	cmp	r3, #0
    37c4:	d1f6      	bne.n	37b4 <ada__synchronous_task_control__set_true+0x54>
    37c6:	f8c0 30b8 	str.w	r3, [r0, #184]	; 0xb8
    37ca:	f8c2 00b8 	str.w	r0, [r2, #184]	; 0xb8
    37ce:	f7ff f959 	bl	2a84 <system__bb__protection__leave_kernel>
    37d2:	686b      	ldr	r3, [r5, #4]
    37d4:	b3a3      	cbz	r3, 3840 <ada__synchronous_task_control__set_true+0xe0>
    37d6:	2200      	movs	r2, #0
    37d8:	702a      	strb	r2, [r5, #0]
    37da:	606a      	str	r2, [r5, #4]
    37dc:	f8d3 00f8 	ldr.w	r0, [r3, #248]	; 0xf8
    37e0:	f7ff fd8e 	bl	3300 <system__bb__threads__wakeup>
    37e4:	b672      	cpsid	i
    37e6:	6830      	ldr	r0, [r6, #0]
    37e8:	f890 30a4 	ldrb.w	r3, [r0, #164]	; 0xa4
    37ec:	2b00      	cmp	r3, #0
    37ee:	f8c0 40ac 	str.w	r4, [r0, #172]	; 0xac
    37f2:	bf08      	it	eq
    37f4:	2301      	moveq	r3, #1
    37f6:	f8d0 20b8 	ldr.w	r2, [r0, #184]	; 0xb8
    37fa:	b1ea      	cbz	r2, 3838 <ada__synchronous_task_control__set_true+0xd8>
    37fc:	f8d2 10ac 	ldr.w	r1, [r2, #172]	; 0xac
    3800:	428c      	cmp	r4, r1
    3802:	da19      	bge.n	3838 <ada__synchronous_task_control__set_true+0xd8>
    3804:	b25b      	sxtb	r3, r3
    3806:	f103 4380 	add.w	r3, r3, #1073741824	; 0x40000000
    380a:	f240 0168 	movw	r1, #104	; 0x68
    380e:	3b01      	subs	r3, #1
    3810:	f6c0 0100 	movt	r1, #2048	; 0x800
    3814:	f841 2023 	str.w	r2, [r1, r3, lsl #2]
    3818:	f851 2023 	ldr.w	r2, [r1, r3, lsl #2]
    381c:	e004      	b.n	3828 <ada__synchronous_task_control__set_true+0xc8>
    381e:	f8d3 10ac 	ldr.w	r1, [r3, #172]	; 0xac
    3822:	428c      	cmp	r4, r1
    3824:	da04      	bge.n	3830 <ada__synchronous_task_control__set_true+0xd0>
    3826:	461a      	mov	r2, r3
    3828:	f8d2 30b8 	ldr.w	r3, [r2, #184]	; 0xb8
    382c:	2b00      	cmp	r3, #0
    382e:	d1f6      	bne.n	381e <ada__synchronous_task_control__set_true+0xbe>
    3830:	f8c0 30b8 	str.w	r3, [r0, #184]	; 0xb8
    3834:	f8c2 00b8 	str.w	r0, [r2, #184]	; 0xb8
    3838:	e8bd 4070 	ldmia.w	sp!, {r4, r5, r6, lr}
    383c:	f7ff b922 	b.w	2a84 <system__bb__protection__leave_kernel>
    3840:	2301      	movs	r3, #1
    3842:	702b      	strb	r3, [r5, #0]
    3844:	e7ce      	b.n	37e4 <ada__synchronous_task_control__set_true+0x84>
    3846:	bf00      	nop

00003848 <ada__synchronous_task_control__suspend_until_true>:
    3848:	e92d 41f0 	stmdb	sp!, {r4, r5, r6, r7, r8, lr}
    384c:	4680      	mov	r8, r0
    384e:	f004 f83b 	bl	78c8 <system__tasking__self>
    3852:	f8d0 30f8 	ldr.w	r3, [r0, #248]	; 0xf8
    3856:	4606      	mov	r6, r0
    3858:	f8d3 40ac 	ldr.w	r4, [r3, #172]	; 0xac
    385c:	6903      	ldr	r3, [r0, #16]
    385e:	2b00      	cmp	r3, #0
    3860:	f300 80a8 	bgt.w	39b4 <ada__synchronous_task_control__suspend_until_true+0x16c>
    3864:	b672      	cpsid	i
    3866:	f240 0774 	movw	r7, #116	; 0x74
    386a:	22f2      	movs	r2, #242	; 0xf2
    386c:	f6c0 0700 	movt	r7, #2048	; 0x800
    3870:	683d      	ldr	r5, [r7, #0]
    3872:	f895 30a4 	ldrb.w	r3, [r5, #164]	; 0xa4
    3876:	f8c5 20ac 	str.w	r2, [r5, #172]	; 0xac
    387a:	2b00      	cmp	r3, #0
    387c:	bf08      	it	eq
    387e:	2301      	moveq	r3, #1
    3880:	f8d5 20b8 	ldr.w	r2, [r5, #184]	; 0xb8
    3884:	b1ea      	cbz	r2, 38c2 <ada__synchronous_task_control__suspend_until_true+0x7a>
    3886:	f8d2 10ac 	ldr.w	r1, [r2, #172]	; 0xac
    388a:	29f2      	cmp	r1, #242	; 0xf2
    388c:	dd19      	ble.n	38c2 <ada__synchronous_task_control__suspend_until_true+0x7a>
    388e:	b25b      	sxtb	r3, r3
    3890:	f103 4380 	add.w	r3, r3, #1073741824	; 0x40000000
    3894:	f240 0168 	movw	r1, #104	; 0x68
    3898:	3b01      	subs	r3, #1
    389a:	f6c0 0100 	movt	r1, #2048	; 0x800
    389e:	f841 2023 	str.w	r2, [r1, r3, lsl #2]
    38a2:	f851 2023 	ldr.w	r2, [r1, r3, lsl #2]
    38a6:	e004      	b.n	38b2 <ada__synchronous_task_control__suspend_until_true+0x6a>
    38a8:	f8d3 10ac 	ldr.w	r1, [r3, #172]	; 0xac
    38ac:	29f2      	cmp	r1, #242	; 0xf2
    38ae:	dd04      	ble.n	38ba <ada__synchronous_task_control__suspend_until_true+0x72>
    38b0:	461a      	mov	r2, r3
    38b2:	f8d2 30b8 	ldr.w	r3, [r2, #184]	; 0xb8
    38b6:	2b00      	cmp	r3, #0
    38b8:	d1f6      	bne.n	38a8 <ada__synchronous_task_control__suspend_until_true+0x60>
    38ba:	f8c5 30b8 	str.w	r3, [r5, #184]	; 0xb8
    38be:	f8c2 50b8 	str.w	r5, [r2, #184]	; 0xb8
    38c2:	f7ff f8df 	bl	2a84 <system__bb__protection__leave_kernel>
    38c6:	f8d8 3004 	ldr.w	r3, [r8, #4]
    38ca:	2b00      	cmp	r3, #0
    38cc:	d168      	bne.n	39a0 <ada__synchronous_task_control__suspend_until_true+0x158>
    38ce:	f898 2000 	ldrb.w	r2, [r8]
    38d2:	bbaa      	cbnz	r2, 3940 <ada__synchronous_task_control__suspend_until_true+0xf8>
    38d4:	f8c8 6004 	str.w	r6, [r8, #4]
    38d8:	b672      	cpsid	i
    38da:	6838      	ldr	r0, [r7, #0]
    38dc:	f890 30a4 	ldrb.w	r3, [r0, #164]	; 0xa4
    38e0:	2b00      	cmp	r3, #0
    38e2:	f8c0 40ac 	str.w	r4, [r0, #172]	; 0xac
    38e6:	bf08      	it	eq
    38e8:	2301      	moveq	r3, #1
    38ea:	f8d0 20b8 	ldr.w	r2, [r0, #184]	; 0xb8
    38ee:	b1ea      	cbz	r2, 392c <ada__synchronous_task_control__suspend_until_true+0xe4>
    38f0:	f8d2 10ac 	ldr.w	r1, [r2, #172]	; 0xac
    38f4:	428c      	cmp	r4, r1
    38f6:	da19      	bge.n	392c <ada__synchronous_task_control__suspend_until_true+0xe4>
    38f8:	b25b      	sxtb	r3, r3
    38fa:	f103 4380 	add.w	r3, r3, #1073741824	; 0x40000000
    38fe:	f240 0168 	movw	r1, #104	; 0x68
    3902:	3b01      	subs	r3, #1
    3904:	f6c0 0100 	movt	r1, #2048	; 0x800
    3908:	f841 2023 	str.w	r2, [r1, r3, lsl #2]
    390c:	f851 2023 	ldr.w	r2, [r1, r3, lsl #2]
    3910:	e004      	b.n	391c <ada__synchronous_task_control__suspend_until_true+0xd4>
    3912:	f8d3 10ac 	ldr.w	r1, [r3, #172]	; 0xac
    3916:	428c      	cmp	r4, r1
    3918:	da04      	bge.n	3924 <ada__synchronous_task_control__suspend_until_true+0xdc>
    391a:	461a      	mov	r2, r3
    391c:	f8d2 30b8 	ldr.w	r3, [r2, #184]	; 0xb8
    3920:	2b00      	cmp	r3, #0
    3922:	d1f6      	bne.n	3912 <ada__synchronous_task_control__suspend_until_true+0xca>
    3924:	f8c0 30b8 	str.w	r3, [r0, #184]	; 0xb8
    3928:	f8c2 00b8 	str.w	r0, [r2, #184]	; 0xb8
    392c:	f7ff f8aa 	bl	2a84 <system__bb__protection__leave_kernel>
    3930:	2305      	movs	r3, #5
    3932:	7233      	strb	r3, [r6, #8]
    3934:	f7ff fc1e 	bl	3174 <system__bb__threads__sleep>
    3938:	2301      	movs	r3, #1
    393a:	7233      	strb	r3, [r6, #8]
    393c:	e8bd 81f0 	ldmia.w	sp!, {r4, r5, r6, r7, r8, pc}
    3940:	f888 3000 	strb.w	r3, [r8]
    3944:	b672      	cpsid	i
    3946:	6838      	ldr	r0, [r7, #0]
    3948:	f890 30a4 	ldrb.w	r3, [r0, #164]	; 0xa4
    394c:	2b00      	cmp	r3, #0
    394e:	f8c0 40ac 	str.w	r4, [r0, #172]	; 0xac
    3952:	bf08      	it	eq
    3954:	2301      	moveq	r3, #1
    3956:	f8d0 20b8 	ldr.w	r2, [r0, #184]	; 0xb8
    395a:	b1ea      	cbz	r2, 3998 <ada__synchronous_task_control__suspend_until_true+0x150>
    395c:	f8d2 10ac 	ldr.w	r1, [r2, #172]	; 0xac
    3960:	428c      	cmp	r4, r1
    3962:	da19      	bge.n	3998 <ada__synchronous_task_control__suspend_until_true+0x150>
    3964:	b25b      	sxtb	r3, r3
    3966:	f103 4380 	add.w	r3, r3, #1073741824	; 0x40000000
    396a:	f240 0168 	movw	r1, #104	; 0x68
    396e:	3b01      	subs	r3, #1
    3970:	f6c0 0100 	movt	r1, #2048	; 0x800
    3974:	f841 2023 	str.w	r2, [r1, r3, lsl #2]
    3978:	f851 2023 	ldr.w	r2, [r1, r3, lsl #2]
    397c:	e004      	b.n	3988 <ada__synchronous_task_control__suspend_until_true+0x140>
    397e:	f8d3 10ac 	ldr.w	r1, [r3, #172]	; 0xac
    3982:	428c      	cmp	r4, r1
    3984:	da04      	bge.n	3990 <ada__synchronous_task_control__suspend_until_true+0x148>
    3986:	461a      	mov	r2, r3
    3988:	f8d2 30b8 	ldr.w	r3, [r2, #184]	; 0xb8
    398c:	2b00      	cmp	r3, #0
    398e:	d1f6      	bne.n	397e <ada__synchronous_task_control__suspend_until_true+0x136>
    3990:	f8c0 30b8 	str.w	r3, [r0, #184]	; 0xb8
    3994:	f8c2 00b8 	str.w	r0, [r2, #184]	; 0xb8
    3998:	e8bd 41f0 	ldmia.w	sp!, {r4, r5, r6, r7, r8, lr}
    399c:	f7ff b872 	b.w	2a84 <system__bb__protection__leave_kernel>
    39a0:	4620      	mov	r0, r4
    39a2:	f7ff fbb3 	bl	310c <system__bb__threads__set_priority>
    39a6:	f24c 3064 	movw	r0, #50020	; 0xc364
    39aa:	f2c0 0000 	movt	r0, #0
    39ae:	21a5      	movs	r1, #165	; 0xa5
    39b0:	f001 fe14 	bl	55dc <__gnat_rcheck_PE_Explicit_Raise>
    39b4:	f24c 3064 	movw	r0, #50020	; 0xc364
    39b8:	2175      	movs	r1, #117	; 0x75
    39ba:	f2c0 0000 	movt	r0, #0
    39be:	f001 fe0d 	bl	55dc <__gnat_rcheck_PE_Explicit_Raise>
    39c2:	bf00      	nop

000039c4 <system__bb__cpu_primitives__gnat_error_handler>:
    39c4:	b508      	push	{r3, lr}
    39c6:	b240      	sxtb	r0, r0
    39c8:	2804      	cmp	r0, #4
    39ca:	d834      	bhi.n	3a36 <system__bb__cpu_primitives__gnat_error_handler+0x72>
    39cc:	e8df f000 	tbb	[pc, r0]
    39d0:	2a21180c 	.word	0x2a21180c
    39d4:	03          	.byte	0x03
    39d5:	00          	.byte	0x00
    39d6:	4a1c      	ldr	r2, [pc, #112]	; (3a48 <system__bb__cpu_primitives__gnat_error_handler+0x84>)
    39d8:	f240 101c 	movw	r0, #284	; 0x11c
    39dc:	f6c0 0000 	movt	r0, #2048	; 0x800
    39e0:	f102 0338 	add.w	r3, r2, #56	; 0x38
    39e4:	f001 fbc4 	bl	5170 <__gnat_raise_exception>
    39e8:	f24c 3274 	movw	r2, #50036	; 0xc374
    39ec:	f240 1000 	movw	r0, #256	; 0x100
    39f0:	f2c0 0200 	movt	r2, #0
    39f4:	f6c0 0000 	movt	r0, #2048	; 0x800
    39f8:	f102 0340 	add.w	r3, r2, #64	; 0x40
    39fc:	f001 fbb8 	bl	5170 <__gnat_raise_exception>
    3a00:	4a12      	ldr	r2, [pc, #72]	; (3a4c <system__bb__cpu_primitives__gnat_error_handler+0x88>)
    3a02:	f240 1000 	movw	r0, #256	; 0x100
    3a06:	f6c0 0000 	movt	r0, #2048	; 0x800
    3a0a:	f102 0340 	add.w	r3, r2, #64	; 0x40
    3a0e:	f001 fbaf 	bl	5170 <__gnat_raise_exception>
    3a12:	4a0f      	ldr	r2, [pc, #60]	; (3a50 <system__bb__cpu_primitives__gnat_error_handler+0x8c>)
    3a14:	f240 1000 	movw	r0, #256	; 0x100
    3a18:	f6c0 0000 	movt	r0, #2048	; 0x800
    3a1c:	f102 033c 	add.w	r3, r2, #60	; 0x3c
    3a20:	f001 fba6 	bl	5170 <__gnat_raise_exception>
    3a24:	4a0b      	ldr	r2, [pc, #44]	; (3a54 <system__bb__cpu_primitives__gnat_error_handler+0x90>)
    3a26:	f240 1000 	movw	r0, #256	; 0x100
    3a2a:	f6c0 0000 	movt	r0, #2048	; 0x800
    3a2e:	f102 033c 	add.w	r3, r2, #60	; 0x3c
    3a32:	f001 fb9d 	bl	5170 <__gnat_raise_exception>
    3a36:	4a08      	ldr	r2, [pc, #32]	; (3a58 <system__bb__cpu_primitives__gnat_error_handler+0x94>)
    3a38:	f240 1000 	movw	r0, #256	; 0x100
    3a3c:	f6c0 0000 	movt	r0, #2048	; 0x800
    3a40:	f1a2 0348 	sub.w	r3, r2, #72	; 0x48
    3a44:	f001 fb94 	bl	5170 <__gnat_raise_exception>
    3a48:	0000c48c 	.word	0x0000c48c
    3a4c:	0000c3bc 	.word	0x0000c3bc
    3a50:	0000c404 	.word	0x0000c404
    3a54:	0000c448 	.word	0x0000c448
    3a58:	0000c4cc 	.word	0x0000c4cc

00003a5c <system__bb__cpu_primitives__Tcontext_bufferBIP>:
    3a5c:	4770      	bx	lr
    3a5e:	bf00      	nop

00003a60 <system__bb__cpu_primitives__Tthread_tableBIP>:
    3a60:	b430      	push	{r4, r5}
    3a62:	780c      	ldrb	r4, [r1, #0]
    3a64:	7849      	ldrb	r1, [r1, #1]
    3a66:	b264      	sxtb	r4, r4
    3a68:	b249      	sxtb	r1, r1
    3a6a:	428c      	cmp	r4, r1
    3a6c:	dc08      	bgt.n	3a80 <system__bb__cpu_primitives__Tthread_tableBIP+0x20>
    3a6e:	3101      	adds	r1, #1
    3a70:	4623      	mov	r3, r4
    3a72:	2500      	movs	r5, #0
    3a74:	1b1a      	subs	r2, r3, r4
    3a76:	3301      	adds	r3, #1
    3a78:	428b      	cmp	r3, r1
    3a7a:	f840 5022 	str.w	r5, [r0, r2, lsl #2]
    3a7e:	d1f9      	bne.n	3a74 <system__bb__cpu_primitives__Tthread_tableBIP+0x14>
    3a80:	bc30      	pop	{r4, r5}
    3a82:	4770      	bx	lr

00003a84 <system__bb__cpu_primitives__get_spsr>:
    3a84:	f3ff 8000 	mrs	r0, SPSR
    3a88:	4770      	bx	lr
    3a8a:	bf00      	nop

00003a8c <__gnat_dabt_trap>:
    3a8c:	e92d 500f 	stmdb	sp!, {r0, r1, r2, r3, ip, lr}
    3a90:	f642 235c 	movw	r3, #10844	; 0x2a5c
    3a94:	2004      	movs	r0, #4
    3a96:	f6c0 0300 	movt	r3, #2048	; 0x800
    3a9a:	691b      	ldr	r3, [r3, #16]
    3a9c:	4798      	blx	r3
    3a9e:	e8bd 500f 	ldmia.w	sp!, {r0, r1, r2, r3, ip, lr}
    3aa2:	f3de 8f04 	subs	pc, lr, #4
    3aa6:	bf00      	nop

00003aa8 <__gnat_fiq_trap>:
    3aa8:	e92d 500f 	stmdb	sp!, {r0, r1, r2, r3, ip, lr}
    3aac:	2300      	movs	r3, #0
    3aae:	eee8 3a10 	vmsr	fpexc, r3
    3ab2:	f642 235c 	movw	r3, #10844	; 0x2a5c
    3ab6:	2006      	movs	r0, #6
    3ab8:	f6c0 0300 	movt	r3, #2048	; 0x800
    3abc:	699b      	ldr	r3, [r3, #24]
    3abe:	4798      	blx	r3
    3ac0:	e8bd 500f 	ldmia.w	sp!, {r0, r1, r2, r3, ip, lr}
    3ac4:	f3de 8f04 	subs	pc, lr, #4

00003ac8 <__gnat_irq_trap>:
    3ac8:	e92d 5fff 	stmdb	sp!, {r0, r1, r2, r3, r4, r5, r6, r7, r8, r9, sl, fp, ip, lr}
    3acc:	b082      	sub	sp, #8
    3ace:	2400      	movs	r4, #0
    3ad0:	eee8 4a10 	vmsr	fpexc, r4
    3ad4:	f3ff 8300 	mrs	r3, SPSR
    3ad8:	9301      	str	r3, [sp, #4]
    3ada:	f642 235c 	movw	r3, #10844	; 0x2a5c
    3ade:	f6c0 0300 	movt	r3, #2048	; 0x800
    3ae2:	2005      	movs	r0, #5
    3ae4:	695b      	ldr	r3, [r3, #20]
    3ae6:	4798      	blx	r3
    3ae8:	f240 0368 	movw	r3, #104	; 0x68
    3aec:	f240 0174 	movw	r1, #116	; 0x74
    3af0:	f6c0 0300 	movt	r3, #2048	; 0x800
    3af4:	f6c0 0100 	movt	r1, #2048	; 0x800
    3af8:	6818      	ldr	r0, [r3, #0]
    3afa:	680a      	ldr	r2, [r1, #0]
    3afc:	4290      	cmp	r0, r2
    3afe:	d019      	beq.n	3b34 <__gnat_irq_trap+0x6c>
    3b00:	eee8 4a10 	vmsr	fpexc, r4
    3b04:	6818      	ldr	r0, [r3, #0]
    3b06:	f20f 0304 	addw	r3, pc, #4
    3b0a:	4718      	bx	r3
    3b0c:	e10f3000 	mrs	r3, CPSR
    3b10:	e5914000 	ldr	r4, [r1]
    3b14:	f1020013 	cps	#19
    3b18:	e59f2024 	ldr	r2, [pc, #36]	; 3b44 <__gnat_irq_trap+0x7c>
    3b1c:	e2822001 	add	r2, r2, #1
    3b20:	e8c4600f 	stmia	r4, {r0, r1, r2, r3, sp, lr}^
    3b24:	e5810000 	str	r0, [r1]
    3b28:	e8d0600f 	ldm	r0, {r0, r1, r2, r3, sp, lr}^
    3b2c:	e12ff003 	msr	CPSR_fsxc, r3
    3b30:	e12fff12 	bx	r2
    3b34:	9b01      	ldr	r3, [sp, #4]
    3b36:	f393 8f00 	msr	SPSR_fsxc, r3
    3b3a:	b002      	add	sp, #8
    3b3c:	e8bd 5fff 	ldmia.w	sp!, {r0, r1, r2, r3, r4, r5, r6, r7, r8, r9, sl, fp, ip, lr}
    3b40:	f3de 8f04 	subs	pc, lr, #4
    3b44:	00003b34 	.word	0x00003b34

00003b48 <__gnat_undef_trap>:
    3b48:	e92d 500f 	stmdb	sp!, {r0, r1, r2, r3, ip, lr}
    3b4c:	f3ff 8200 	mrs	r2, SPSR
    3b50:	eef8 3a10 	vmrs	r3, fpexc
    3b54:	f013 4380 	ands.w	r3, r3, #1073741824	; 0x40000000
    3b58:	d12d      	bne.n	3bb6 <__gnat_undef_trap+0x6e>
    3b5a:	f04f 4180 	mov.w	r1, #1073741824	; 0x40000000
    3b5e:	eee8 1a10 	vmsr	fpexc, r1
    3b62:	f002 021f 	and.w	r2, r2, #31
    3b66:	3a11      	subs	r2, #17
    3b68:	2a01      	cmp	r2, #1
    3b6a:	bf88      	it	hi
    3b6c:	f240 0374 	movwhi	r3, #116	; 0x74
    3b70:	f240 1258 	movw	r2, #344	; 0x158
    3b74:	bf88      	it	hi
    3b76:	f6c0 0300 	movthi	r3, #2048	; 0x800
    3b7a:	f6c0 0200 	movt	r2, #2048	; 0x800
    3b7e:	bf88      	it	hi
    3b80:	681b      	ldrhi	r3, [r3, #0]
    3b82:	6811      	ldr	r1, [r2, #0]
    3b84:	428b      	cmp	r3, r1
    3b86:	d012      	beq.n	3bae <__gnat_undef_trap+0x66>
    3b88:	b139      	cbz	r1, 3b9a <__gnat_undef_trap+0x52>
    3b8a:	f101 0018 	add.w	r0, r1, #24
    3b8e:	ec80 0b20 	vstmia	r0, {d0-d15}
    3b92:	eef1 0a10 	vmrs	r0, fpscr
    3b96:	f8c1 0098 	str.w	r0, [r1, #152]	; 0x98
    3b9a:	b13b      	cbz	r3, 3bac <__gnat_undef_trap+0x64>
    3b9c:	f8d3 1098 	ldr.w	r1, [r3, #152]	; 0x98
    3ba0:	f103 0018 	add.w	r0, r3, #24
    3ba4:	ec90 0b20 	vldmia	r0, {d0-d15}
    3ba8:	eee1 1a10 	vmsr	fpscr, r1
    3bac:	6013      	str	r3, [r2, #0]
    3bae:	e8bd 500f 	ldmia.w	sp!, {r0, r1, r2, r3, ip, lr}
    3bb2:	f3de 8f04 	subs	pc, lr, #4
    3bb6:	f642 235c 	movw	r3, #10844	; 0x2a5c
    3bba:	2001      	movs	r0, #1
    3bbc:	f6c0 0300 	movt	r3, #2048	; 0x800
    3bc0:	685b      	ldr	r3, [r3, #4]
    3bc2:	4798      	blx	r3
    3bc4:	e8bd 500f 	ldmia.w	sp!, {r0, r1, r2, r3, ip, lr}
    3bc8:	f3de 8f04 	subs	pc, lr, #4

00003bcc <system__bb__cpu_primitives__context_switch>:
    3bcc:	e92d 4ff0 	stmdb	sp!, {r4, r5, r6, r7, r8, r9, sl, fp, lr}
    3bd0:	2300      	movs	r3, #0
    3bd2:	eee8 3a10 	vmsr	fpexc, r3
    3bd6:	f240 0368 	movw	r3, #104	; 0x68
    3bda:	f240 0174 	movw	r1, #116	; 0x74
    3bde:	f6c0 0300 	movt	r3, #2048	; 0x800
    3be2:	f6c0 0100 	movt	r1, #2048	; 0x800
    3be6:	6818      	ldr	r0, [r3, #0]
    3be8:	a300      	add	r3, pc, #0	; (adr r3, 3bec <system__bb__cpu_primitives__context_switch+0x20>)
    3bea:	4718      	bx	r3
    3bec:	e10f3000 	mrs	r3, CPSR
    3bf0:	e5914000 	ldr	r4, [r1]
    3bf4:	f1020013 	cps	#19
    3bf8:	e59f2018 	ldr	r2, [pc, #24]	; 3c18 <system__bb__cpu_primitives__context_switch+0x4c>
    3bfc:	e2822001 	add	r2, r2, #1
    3c00:	e8c4600f 	stmia	r4, {r0, r1, r2, r3, sp, lr}^
    3c04:	e5810000 	str	r0, [r1]
    3c08:	e8d0600f 	ldm	r0, {r0, r1, r2, r3, sp, lr}^
    3c0c:	e12ff003 	msr	CPSR_fsxc, r3
    3c10:	e12fff12 	bx	r2
    3c14:	e8bd 8ff0 	ldmia.w	sp!, {r4, r5, r6, r7, r8, r9, sl, fp, pc}
    3c18:	00003c14 	.word	0x00003c14

00003c1c <system__bb__cpu_primitives__fpu_context_switch>:
    3c1c:	f240 1358 	movw	r3, #344	; 0x158
    3c20:	f6c0 0300 	movt	r3, #2048	; 0x800
    3c24:	681a      	ldr	r2, [r3, #0]
    3c26:	4282      	cmp	r2, r0
    3c28:	d012      	beq.n	3c50 <system__bb__cpu_primitives__fpu_context_switch+0x34>
    3c2a:	b13a      	cbz	r2, 3c3c <system__bb__cpu_primitives__fpu_context_switch+0x20>
    3c2c:	f102 0118 	add.w	r1, r2, #24
    3c30:	ec81 0b20 	vstmia	r1, {d0-d15}
    3c34:	eef1 1a10 	vmrs	r1, fpscr
    3c38:	f8c2 1098 	str.w	r1, [r2, #152]	; 0x98
    3c3c:	b138      	cbz	r0, 3c4e <system__bb__cpu_primitives__fpu_context_switch+0x32>
    3c3e:	f8d0 2098 	ldr.w	r2, [r0, #152]	; 0x98
    3c42:	f100 0118 	add.w	r1, r0, #24
    3c46:	ec91 0b20 	vldmia	r1, {d0-d15}
    3c4a:	eee1 2a10 	vmsr	fpscr, r2
    3c4e:	6018      	str	r0, [r3, #0]
    3c50:	4770      	bx	lr
    3c52:	bf00      	nop

00003c54 <system__bb__cpu_primitives__get_context>:
    3c54:	b249      	sxtb	r1, r1
    3c56:	f850 0021 	ldr.w	r0, [r0, r1, lsl #2]
    3c5a:	4770      	bx	lr

00003c5c <system__bb__cpu_primitives__set_context>:
    3c5c:	b249      	sxtb	r1, r1
    3c5e:	f840 2021 	str.w	r2, [r0, r1, lsl #2]
    3c62:	4770      	bx	lr

00003c64 <system__bb__cpu_primitives__initialize_context>:
    3c64:	e92d 43f8 	stmdb	sp!, {r3, r4, r5, r6, r7, r8, r9, lr}
    3c68:	4688      	mov	r8, r1
    3c6a:	4691      	mov	r9, r2
    3c6c:	461f      	mov	r7, r3
    3c6e:	4605      	mov	r5, r0
    3c70:	f3ef 8600 	mrs	r6, CPSR
    3c74:	2100      	movs	r1, #0
    3c76:	22a0      	movs	r2, #160	; 0xa0
    3c78:	f004 f9ae 	bl	7fd8 <memset>
    3c7c:	f64f 74e0 	movw	r4, #65504	; 0xffe0
    3c80:	f2c0 74f0 	movt	r4, #2032	; 0x7f0
    3c84:	4034      	ands	r4, r6
    3c86:	341f      	adds	r4, #31
    3c88:	f8c5 9000 	str.w	r9, [r5]
    3c8c:	60ec      	str	r4, [r5, #12]
    3c8e:	f8c5 8008 	str.w	r8, [r5, #8]
    3c92:	612f      	str	r7, [r5, #16]
    3c94:	e8bd 83f8 	ldmia.w	sp!, {r3, r4, r5, r6, r7, r8, r9, pc}

00003c98 <system__bb__cpu_primitives__install_error_handlers>:
    3c98:	f642 235c 	movw	r3, #10844	; 0x2a5c
    3c9c:	f643 12c5 	movw	r2, #14789	; 0x39c5
    3ca0:	f6c0 0300 	movt	r3, #2048	; 0x800
    3ca4:	f2c0 0200 	movt	r2, #0
    3ca8:	601a      	str	r2, [r3, #0]
    3caa:	605a      	str	r2, [r3, #4]
    3cac:	609a      	str	r2, [r3, #8]
    3cae:	60da      	str	r2, [r3, #12]
    3cb0:	611a      	str	r2, [r3, #16]
    3cb2:	619a      	str	r2, [r3, #24]
    3cb4:	4770      	bx	lr
    3cb6:	bf00      	nop

00003cb8 <system__bb__cpu_primitives__install_trap_handler>:
    3cb8:	f642 235c 	movw	r3, #10844	; 0x2a5c
    3cbc:	b249      	sxtb	r1, r1
    3cbe:	f6c0 0300 	movt	r3, #2048	; 0x800
    3cc2:	f843 0021 	str.w	r0, [r3, r1, lsl #2]
    3cc6:	4770      	bx	lr

00003cc8 <system__bb__cpu_primitives__is_fpu_enabled>:
    3cc8:	eef8 0a10 	vmrs	r0, fpexc
    3ccc:	f3c0 7080 	ubfx	r0, r0, #30, #1
    3cd0:	4770      	bx	lr
    3cd2:	bf00      	nop

00003cd4 <system__bb__cpu_primitives__disable_interrupts>:
    3cd4:	b672      	cpsid	i
    3cd6:	4770      	bx	lr

00003cd8 <system__bb__cpu_primitives__enable_interrupts>:
    3cd8:	b410      	push	{r4}
    3cda:	f240 133c 	movw	r3, #316	; 0x13c
    3cde:	f1a0 02f2 	sub.w	r2, r0, #242	; 0xf2
    3ce2:	fab2 f282 	clz	r2, r2
    3ce6:	0952      	lsrs	r2, r2, #5
    3ce8:	f6c0 0300 	movt	r3, #2048	; 0x800
    3cec:	7819      	ldrb	r1, [r3, #0]
    3cee:	4291      	cmp	r1, r2
    3cf0:	d00b      	beq.n	3d0a <system__bb__cpu_primitives__enable_interrupts+0x32>
    3cf2:	b982      	cbnz	r2, 3d16 <system__bb__cpu_primitives__enable_interrupts+0x3e>
    3cf4:	f64f 6410 	movw	r4, #65040	; 0xfe10
    3cf8:	f64f 6130 	movw	r1, #65072	; 0xfe30
    3cfc:	f6cf 74ff 	movt	r4, #65535	; 0xffff
    3d00:	f6cf 71ff 	movt	r1, #65535	; 0xffff
    3d04:	6824      	ldr	r4, [r4, #0]
    3d06:	600c      	str	r4, [r1, #0]
    3d08:	701a      	strb	r2, [r3, #0]
    3d0a:	28f0      	cmp	r0, #240	; 0xf0
    3d0c:	d800      	bhi.n	3d10 <system__bb__cpu_primitives__enable_interrupts+0x38>
    3d0e:	b662      	cpsie	i
    3d10:	f85d 4b04 	ldr.w	r4, [sp], #4
    3d14:	4770      	bx	lr
    3d16:	f64f 6110 	movw	r1, #65040	; 0xfe10
    3d1a:	f64f 6240 	movw	r2, #65088	; 0xfe40
    3d1e:	f6cf 71ff 	movt	r1, #65535	; 0xffff
    3d22:	f6cf 72ff 	movt	r2, #65535	; 0xffff
    3d26:	2001      	movs	r0, #1
    3d28:	6809      	ldr	r1, [r1, #0]
    3d2a:	6011      	str	r1, [r2, #0]
    3d2c:	7018      	strb	r0, [r3, #0]
    3d2e:	f85d 4b04 	ldr.w	r4, [sp], #4
    3d32:	4770      	bx	lr

00003d34 <system__bb__cpu_primitives__initialize_floating_point>:
    3d34:	2300      	movs	r3, #0
    3d36:	eee8 3a10 	vmsr	fpexc, r3
    3d3a:	4770      	bx	lr

00003d3c <system__bb__cpu_primitives__set_fpu_enabled>:
    3d3c:	2800      	cmp	r0, #0
    3d3e:	bf14      	ite	ne
    3d40:	f04f 4380 	movne.w	r3, #1073741824	; 0x40000000
    3d44:	2300      	moveq	r3, #0
    3d46:	eee8 3a10 	vmsr	fpexc, r3
    3d4a:	4770      	bx	lr

00003d4c <system__img_int__set_image_integer__set_digits.4258>:
    3d4c:	b570      	push	{r4, r5, r6, lr}
    3d4e:	f110 0f09 	cmn.w	r0, #9
    3d52:	db0c      	blt.n	3d6e <system__img_int__set_image_integer__set_digits.4258+0x22>
    3d54:	f8dc 2008 	ldr.w	r2, [ip, #8]
    3d58:	f1c0 0030 	rsb	r0, r0, #48	; 0x30
    3d5c:	e89c 0012 	ldmia.w	ip, {r1, r4}
    3d60:	3201      	adds	r2, #1
    3d62:	1a51      	subs	r1, r2, r1
    3d64:	6823      	ldr	r3, [r4, #0]
    3d66:	f8cc 2008 	str.w	r2, [ip, #8]
    3d6a:	5458      	strb	r0, [r3, r1]
    3d6c:	bd70      	pop	{r4, r5, r6, pc}
    3d6e:	f246 6667 	movw	r6, #26215	; 0x6667
    3d72:	17c3      	asrs	r3, r0, #31
    3d74:	f2c6 6666 	movt	r6, #26214	; 0x6666
    3d78:	4604      	mov	r4, r0
    3d7a:	4665      	mov	r5, ip
    3d7c:	fb86 2600 	smull	r2, r6, r6, r0
    3d80:	ebc3 06a6 	rsb	r6, r3, r6, asr #2
    3d84:	4630      	mov	r0, r6
    3d86:	f7ff ffe1 	bl	3d4c <system__img_int__set_image_integer__set_digits.4258>
    3d8a:	68ab      	ldr	r3, [r5, #8]
    3d8c:	eb06 0086 	add.w	r0, r6, r6, lsl #2
    3d90:	682a      	ldr	r2, [r5, #0]
    3d92:	3301      	adds	r3, #1
    3d94:	6869      	ldr	r1, [r5, #4]
    3d96:	eba4 0040 	sub.w	r0, r4, r0, lsl #1
    3d9a:	f1c0 0030 	rsb	r0, r0, #48	; 0x30
    3d9e:	1a9a      	subs	r2, r3, r2
    3da0:	6809      	ldr	r1, [r1, #0]
    3da2:	60ab      	str	r3, [r5, #8]
    3da4:	5488      	strb	r0, [r1, r2]
    3da6:	bd70      	pop	{r4, r5, r6, pc}

00003da8 <system__img_int__set_image_integer>:
    3da8:	b510      	push	{r4, lr}
    3daa:	b086      	sub	sp, #24
    3dac:	a906      	add	r1, sp, #24
    3dae:	9c08      	ldr	r4, [sp, #32]
    3db0:	e961 2306 	strd	r2, r3, [r1, #-24]!
    3db4:	1e02      	subs	r2, r0, #0
    3db6:	9b01      	ldr	r3, [sp, #4]
    3db8:	bfa8      	it	ge
    3dba:	4250      	negge	r0, r2
    3dbc:	9405      	str	r4, [sp, #20]
    3dbe:	bfb8      	it	lt
    3dc0:	3401      	addlt	r4, #1
    3dc2:	9104      	str	r1, [sp, #16]
    3dc4:	bfb8      	it	lt
    3dc6:	212d      	movlt	r1, #45	; 0x2d
    3dc8:	681b      	ldr	r3, [r3, #0]
    3dca:	bfa8      	it	ge
    3dcc:	f10d 0c0c 	addge.w	ip, sp, #12
    3dd0:	9303      	str	r3, [sp, #12]
    3dd2:	bfbf      	itttt	lt
    3dd4:	f10d 0c0c 	addlt.w	ip, sp, #12
    3dd8:	1ae3      	sublt	r3, r4, r3
    3dda:	9a00      	ldrlt	r2, [sp, #0]
    3ddc:	9405      	strlt	r4, [sp, #20]
    3dde:	bfb8      	it	lt
    3de0:	54d1      	strblt	r1, [r2, r3]
    3de2:	f7ff ffb3 	bl	3d4c <system__img_int__set_image_integer__set_digits.4258>
    3de6:	9805      	ldr	r0, [sp, #20]
    3de8:	b006      	add	sp, #24
    3dea:	bd10      	pop	{r4, pc}

00003dec <system__img_int__image_integer>:
    3dec:	b530      	push	{r4, r5, lr}
    3dee:	b083      	sub	sp, #12
    3df0:	6819      	ldr	r1, [r3, #0]
    3df2:	2800      	cmp	r0, #0
    3df4:	bfa3      	ittte	ge
    3df6:	2520      	movge	r5, #32
    3df8:	2401      	movge	r4, #1
    3dfa:	f1c1 0101 	rsbge	r1, r1, #1
    3dfe:	2400      	movlt	r4, #0
    3e00:	bfa8      	it	ge
    3e02:	5455      	strbge	r5, [r2, r1]
    3e04:	9400      	str	r4, [sp, #0]
    3e06:	f7ff ffcf 	bl	3da8 <system__img_int__set_image_integer>
    3e0a:	b003      	add	sp, #12
    3e0c:	bd30      	pop	{r4, r5, pc}
    3e0e:	bf00      	nop

00003e10 <system__bb__interrupts__interrupt_wrapper>:
    3e10:	e92d 4ff0 	stmdb	sp!, {r4, r5, r6, r7, r8, r9, sl, fp, lr}
    3e14:	b083      	sub	sp, #12
    3e16:	f240 0374 	movw	r3, #116	; 0x74
    3e1a:	b240      	sxtb	r0, r0
    3e1c:	f6c0 0300 	movt	r3, #2048	; 0x800
    3e20:	2805      	cmp	r0, #5
    3e22:	681c      	ldr	r4, [r3, #0]
    3e24:	f8d4 80ac 	ldr.w	r8, [r4, #172]	; 0xac
    3e28:	d033      	beq.n	3e92 <system__bb__interrupts__interrupt_wrapper+0x82>
    3e2a:	2806      	cmp	r0, #6
    3e2c:	d115      	bne.n	3e5a <system__bb__interrupts__interrupt_wrapper+0x4a>
    3e2e:	f64f 6304 	movw	r3, #65028	; 0xfe04
    3e32:	f6cf 73ff 	movt	r3, #65535	; 0xffff
    3e36:	681d      	ldr	r5, [r3, #0]
    3e38:	2d01      	cmp	r5, #1
    3e3a:	d031      	beq.n	3ea0 <system__bb__interrupts__interrupt_wrapper+0x90>
    3e3c:	d30d      	bcc.n	3e5a <system__bb__interrupts__interrupt_wrapper+0x4a>
    3e3e:	2d16      	cmp	r5, #22
    3e40:	d130      	bne.n	3ea4 <system__bb__interrupts__interrupt_wrapper+0x94>
    3e42:	f06f 0307 	mvn.w	r3, #7
    3e46:	681d      	ldr	r5, [r3, #0]
    3e48:	f015 0501 	ands.w	r5, r5, #1
    3e4c:	f000 80c1 	beq.w	3fd2 <system__bb__interrupts__interrupt_wrapper+0x1c2>
    3e50:	f06f 030b 	mvn.w	r3, #11
    3e54:	681d      	ldr	r5, [r3, #0]
    3e56:	0a2d      	lsrs	r5, r5, #8
    3e58:	e025      	b.n	3ea6 <system__bb__interrupts__interrupt_wrapper+0x96>
    3e5a:	2201      	movs	r2, #1
    3e5c:	2500      	movs	r5, #0
    3e5e:	f64f 6310 	movw	r3, #65040	; 0xfe10
    3e62:	f6cf 73ff 	movt	r3, #65535	; 0xffff
    3e66:	681b      	ldr	r3, [r3, #0]
    3e68:	f240 1960 	movw	r9, #352	; 0x160
    3e6c:	421a      	tst	r2, r3
    3e6e:	f6c0 0900 	movt	r9, #2048	; 0x800
    3e72:	bf14      	ite	ne
    3e74:	f04f 0af2 	movne.w	sl, #242	; 0xf2
    3e78:	f04f 0af1 	moveq.w	sl, #241	; 0xf1
    3e7c:	f8d9 7000 	ldr.w	r7, [r9]
    3e80:	f894 60cd 	ldrb.w	r6, [r4, #205]	; 0xcd
    3e84:	b2f6      	uxtb	r6, r6
    3e86:	2d00      	cmp	r5, #0
    3e88:	f040 80a5 	bne.w	3fd6 <system__bb__interrupts__interrupt_wrapper+0x1c6>
    3e8c:	b003      	add	sp, #12
    3e8e:	e8bd 8ff0 	ldmia.w	sp!, {r4, r5, r6, r7, r8, r9, sl, fp, pc}
    3e92:	f44f 437e 	mov.w	r3, #65024	; 0xfe00
    3e96:	f6cf 73ff 	movt	r3, #65535	; 0xffff
    3e9a:	681d      	ldr	r5, [r3, #0]
    3e9c:	2d01      	cmp	r5, #1
    3e9e:	d1cd      	bne.n	3e3c <system__bb__interrupts__interrupt_wrapper+0x2c>
    3ea0:	2202      	movs	r2, #2
    3ea2:	e7dc      	b.n	3e5e <system__bb__interrupts__interrupt_wrapper+0x4e>
    3ea4:	3d01      	subs	r5, #1
    3ea6:	2d1f      	cmp	r5, #31
    3ea8:	f340 80a6 	ble.w	3ff8 <system__bb__interrupts__interrupt_wrapper+0x1e8>
    3eac:	f240 1960 	movw	r9, #352	; 0x160
    3eb0:	2000      	movs	r0, #0
    3eb2:	f6c0 0900 	movt	r9, #2048	; 0x800
    3eb6:	f04f 0af1 	mov.w	sl, #241	; 0xf1
    3eba:	f8d9 7000 	ldr.w	r7, [r9]
    3ebe:	f894 60cd 	ldrb.w	r6, [r4, #205]	; 0xcd
    3ec2:	b2f6      	uxtb	r6, r6
    3ec4:	f240 1be8 	movw	fp, #488	; 0x1e8
    3ec8:	f6c0 0b00 	movt	fp, #2048	; 0x800
    3ecc:	f8db 3000 	ldr.w	r3, [fp]
    3ed0:	b113      	cbz	r3, 3ed8 <system__bb__interrupts__interrupt_wrapper+0xc8>
    3ed2:	9001      	str	r0, [sp, #4]
    3ed4:	4798      	blx	r3
    3ed6:	9801      	ldr	r0, [sp, #4]
    3ed8:	f8d4 20b8 	ldr.w	r2, [r4, #184]	; 0xb8
    3edc:	2101      	movs	r1, #1
    3ede:	f894 30a4 	ldrb.w	r3, [r4, #164]	; 0xa4
    3ee2:	2b00      	cmp	r3, #0
    3ee4:	f8c9 5000 	str.w	r5, [r9]
    3ee8:	bf08      	it	eq
    3eea:	460b      	moveq	r3, r1
    3eec:	f884 10cd 	strb.w	r1, [r4, #205]	; 0xcd
    3ef0:	f8c4 a0ac 	str.w	sl, [r4, #172]	; 0xac
    3ef4:	b1ea      	cbz	r2, 3f32 <system__bb__interrupts__interrupt_wrapper+0x122>
    3ef6:	f8d2 10ac 	ldr.w	r1, [r2, #172]	; 0xac
    3efa:	458a      	cmp	sl, r1
    3efc:	da19      	bge.n	3f32 <system__bb__interrupts__interrupt_wrapper+0x122>
    3efe:	b25b      	sxtb	r3, r3
    3f00:	f103 4380 	add.w	r3, r3, #1073741824	; 0x40000000
    3f04:	f240 0168 	movw	r1, #104	; 0x68
    3f08:	3b01      	subs	r3, #1
    3f0a:	f6c0 0100 	movt	r1, #2048	; 0x800
    3f0e:	f841 2023 	str.w	r2, [r1, r3, lsl #2]
    3f12:	f851 2023 	ldr.w	r2, [r1, r3, lsl #2]
    3f16:	e004      	b.n	3f22 <system__bb__interrupts__interrupt_wrapper+0x112>
    3f18:	f8d3 10ac 	ldr.w	r1, [r3, #172]	; 0xac
    3f1c:	458a      	cmp	sl, r1
    3f1e:	da04      	bge.n	3f2a <system__bb__interrupts__interrupt_wrapper+0x11a>
    3f20:	461a      	mov	r2, r3
    3f22:	f8d2 30b8 	ldr.w	r3, [r2, #184]	; 0xb8
    3f26:	2b00      	cmp	r3, #0
    3f28:	d1f6      	bne.n	3f18 <system__bb__interrupts__interrupt_wrapper+0x108>
    3f2a:	f8c4 30b8 	str.w	r3, [r4, #184]	; 0xb8
    3f2e:	f8c2 40b8 	str.w	r4, [r2, #184]	; 0xb8
    3f32:	f240 133c 	movw	r3, #316	; 0x13c
    3f36:	f6c0 0300 	movt	r3, #2048	; 0x800
    3f3a:	781a      	ldrb	r2, [r3, #0]
    3f3c:	4282      	cmp	r2, r0
    3f3e:	d00c      	beq.n	3f5a <system__bb__interrupts__interrupt_wrapper+0x14a>
    3f40:	f64f 6110 	movw	r1, #65040	; 0xfe10
    3f44:	2800      	cmp	r0, #0
    3f46:	d14c      	bne.n	3fe2 <system__bb__interrupts__interrupt_wrapper+0x1d2>
    3f48:	f6cf 71ff 	movt	r1, #65535	; 0xffff
    3f4c:	f64f 6230 	movw	r2, #65072	; 0xfe30
    3f50:	f6cf 72ff 	movt	r2, #65535	; 0xffff
    3f54:	6809      	ldr	r1, [r1, #0]
    3f56:	6011      	str	r1, [r2, #0]
    3f58:	7018      	strb	r0, [r3, #0]
    3f5a:	f642 2378 	movw	r3, #10872	; 0x2a78
    3f5e:	4628      	mov	r0, r5
    3f60:	f6c0 0300 	movt	r3, #2048	; 0x800
    3f64:	f853 3025 	ldr.w	r3, [r3, r5, lsl #2]
    3f68:	4798      	blx	r3
    3f6a:	b672      	cpsid	i
    3f6c:	f8db 3000 	ldr.w	r3, [fp]
    3f70:	b103      	cbz	r3, 3f74 <system__bb__interrupts__interrupt_wrapper+0x164>
    3f72:	4798      	blx	r3
    3f74:	f8d4 20b8 	ldr.w	r2, [r4, #184]	; 0xb8
    3f78:	f894 30a4 	ldrb.w	r3, [r4, #164]	; 0xa4
    3f7c:	2b00      	cmp	r3, #0
    3f7e:	f8c4 80ac 	str.w	r8, [r4, #172]	; 0xac
    3f82:	bf08      	it	eq
    3f84:	2301      	moveq	r3, #1
    3f86:	b1ea      	cbz	r2, 3fc4 <system__bb__interrupts__interrupt_wrapper+0x1b4>
    3f88:	f8d2 10ac 	ldr.w	r1, [r2, #172]	; 0xac
    3f8c:	4588      	cmp	r8, r1
    3f8e:	da19      	bge.n	3fc4 <system__bb__interrupts__interrupt_wrapper+0x1b4>
    3f90:	b25b      	sxtb	r3, r3
    3f92:	f103 4380 	add.w	r3, r3, #1073741824	; 0x40000000
    3f96:	f240 0168 	movw	r1, #104	; 0x68
    3f9a:	3b01      	subs	r3, #1
    3f9c:	f6c0 0100 	movt	r1, #2048	; 0x800
    3fa0:	f841 2023 	str.w	r2, [r1, r3, lsl #2]
    3fa4:	f851 2023 	ldr.w	r2, [r1, r3, lsl #2]
    3fa8:	e004      	b.n	3fb4 <system__bb__interrupts__interrupt_wrapper+0x1a4>
    3faa:	f8d3 10ac 	ldr.w	r1, [r3, #172]	; 0xac
    3fae:	4588      	cmp	r8, r1
    3fb0:	da04      	bge.n	3fbc <system__bb__interrupts__interrupt_wrapper+0x1ac>
    3fb2:	461a      	mov	r2, r3
    3fb4:	f8d2 30b8 	ldr.w	r3, [r2, #184]	; 0xb8
    3fb8:	2b00      	cmp	r3, #0
    3fba:	d1f6      	bne.n	3faa <system__bb__interrupts__interrupt_wrapper+0x19a>
    3fbc:	f8c4 30b8 	str.w	r3, [r4, #184]	; 0xb8
    3fc0:	f8c2 40b8 	str.w	r4, [r2, #184]	; 0xb8
    3fc4:	f8c9 7000 	str.w	r7, [r9]
    3fc8:	f884 60cd 	strb.w	r6, [r4, #205]	; 0xcd
    3fcc:	b003      	add	sp, #12
    3fce:	e8bd 8ff0 	ldmia.w	sp!, {r4, r5, r6, r7, r8, r9, sl, fp, pc}
    3fd2:	2201      	movs	r2, #1
    3fd4:	e743      	b.n	3e5e <system__bb__interrupts__interrupt_wrapper+0x4e>
    3fd6:	f1aa 00f2 	sub.w	r0, sl, #242	; 0xf2
    3fda:	fab0 f080 	clz	r0, r0
    3fde:	0940      	lsrs	r0, r0, #5
    3fe0:	e770      	b.n	3ec4 <system__bb__interrupts__interrupt_wrapper+0xb4>
    3fe2:	f6cf 71ff 	movt	r1, #65535	; 0xffff
    3fe6:	f64f 6240 	movw	r2, #65088	; 0xfe40
    3fea:	f6cf 72ff 	movt	r2, #65535	; 0xffff
    3fee:	2001      	movs	r0, #1
    3ff0:	6809      	ldr	r1, [r1, #0]
    3ff2:	6011      	str	r1, [r2, #0]
    3ff4:	7018      	strb	r0, [r3, #0]
    3ff6:	e7b0      	b.n	3f5a <system__bb__interrupts__interrupt_wrapper+0x14a>
    3ff8:	f64f 6310 	movw	r3, #65040	; 0xfe10
    3ffc:	2201      	movs	r2, #1
    3ffe:	f6cf 73ff 	movt	r3, #65535	; 0xffff
    4002:	40aa      	lsls	r2, r5
    4004:	681b      	ldr	r3, [r3, #0]
    4006:	e72f      	b.n	3e68 <system__bb__interrupts__interrupt_wrapper+0x58>

00004008 <system__bb__interrupts__Tinterrupt_stacksBIP>:
    4008:	4770      	bx	lr
    400a:	bf00      	nop

0000400c <system__bb__interrupts__Tinterrupt_stack_tableBIP>:
    400c:	4770      	bx	lr
    400e:	bf00      	nop

00004010 <system__bb__interrupts__attach_handler>:
    4010:	f642 2378 	movw	r3, #10872	; 0x2a78
    4014:	f6c0 0300 	movt	r3, #2048	; 0x800
    4018:	f843 0021 	str.w	r0, [r3, r1, lsl #2]
    401c:	f643 6011 	movw	r0, #15889	; 0x3e11
    4020:	f2c0 0000 	movt	r0, #0
    4024:	f7fe bf50 	b.w	2ec8 <system__bb__board_support__install_interrupt_handler>

00004028 <system__bb__interrupts__current_interrupt>:
    4028:	f240 1260 	movw	r2, #352	; 0x160
    402c:	f240 0374 	movw	r3, #116	; 0x74
    4030:	f6c0 0200 	movt	r2, #2048	; 0x800
    4034:	f6c0 0300 	movt	r3, #2048	; 0x800
    4038:	6810      	ldr	r0, [r2, #0]
    403a:	681b      	ldr	r3, [r3, #0]
    403c:	f893 30cd 	ldrb.w	r3, [r3, #205]	; 0xcd
    4040:	2b00      	cmp	r3, #0
    4042:	bf08      	it	eq
    4044:	2000      	moveq	r0, #0
    4046:	4770      	bx	lr

00004048 <system__bb__interrupts__within_interrupt_stack>:
    4048:	f240 1260 	movw	r2, #352	; 0x160
    404c:	f240 0374 	movw	r3, #116	; 0x74
    4050:	f6c0 0200 	movt	r2, #2048	; 0x800
    4054:	f6c0 0300 	movt	r3, #2048	; 0x800
    4058:	6811      	ldr	r1, [r2, #0]
    405a:	681b      	ldr	r3, [r3, #0]
    405c:	f893 20cd 	ldrb.w	r2, [r3, #205]	; 0xcd
    4060:	f002 03ff 	and.w	r3, r2, #255	; 0xff
    4064:	b10a      	cbz	r2, 406a <system__bb__interrupts__within_interrupt_stack+0x22>
    4066:	b911      	cbnz	r1, 406e <system__bb__interrupts__within_interrupt_stack+0x26>
    4068:	2300      	movs	r3, #0
    406a:	4618      	mov	r0, r3
    406c:	4770      	bx	lr
    406e:	f245 73f0 	movw	r3, #22512	; 0x57f0
    4072:	f6c0 0300 	movt	r3, #2048	; 0x800
    4076:	4283      	cmp	r3, r0
    4078:	d8f6      	bhi.n	4068 <system__bb__interrupts__within_interrupt_stack+0x20>
    407a:	4b03      	ldr	r3, [pc, #12]	; (4088 <system__bb__interrupts__within_interrupt_stack+0x40>)
    407c:	4283      	cmp	r3, r0
    407e:	bf34      	ite	cc
    4080:	2300      	movcc	r3, #0
    4082:	2301      	movcs	r3, #1
    4084:	4618      	mov	r0, r3
    4086:	4770      	bx	lr
    4088:	080077ef 	.word	0x080077ef

0000408c <system__bb__interrupts__initialize_interrupts>:
    408c:	f245 73f0 	movw	r3, #22512	; 0x57f0
    4090:	f6c0 0300 	movt	r3, #2048	; 0x800
    4094:	f642 32f8 	movw	r2, #11256	; 0x2bf8
    4098:	f503 51ff 	add.w	r1, r3, #8160	; 0x1fe0
    409c:	f6c0 0200 	movt	r2, #2048	; 0x800
    40a0:	3118      	adds	r1, #24
    40a2:	f603 73f8 	addw	r3, r3, #4088	; 0xff8
    40a6:	6013      	str	r3, [r2, #0]
    40a8:	6051      	str	r1, [r2, #4]
    40aa:	4770      	bx	lr

000040ac <ada__exceptions__exception_occurrenceIP>:
    40ac:	2300      	movs	r3, #0
    40ae:	6003      	str	r3, [r0, #0]
    40b0:	6083      	str	r3, [r0, #8]
    40b2:	f880 30d4 	strb.w	r3, [r0, #212]	; 0xd4
    40b6:	f8c0 30d8 	str.w	r3, [r0, #216]	; 0xd8
    40ba:	f8c0 30dc 	str.w	r3, [r0, #220]	; 0xdc
    40be:	4770      	bx	lr

000040c0 <ada__exceptions__exception_data__append_info_addressXn>:
    40c0:	b5f0      	push	{r4, r5, r6, r7, lr}
    40c2:	b08b      	sub	sp, #44	; 0x2c
    40c4:	4616      	mov	r6, r2
    40c6:	461f      	mov	r7, r3
    40c8:	2311      	movs	r3, #17
    40ca:	f64c 6530 	movw	r5, #52784	; 0xce30
    40ce:	f2c0 0500 	movt	r5, #0
    40d2:	e000      	b.n	40d6 <ada__exceptions__exception_data__append_info_addressXn+0x16>
    40d4:	4613      	mov	r3, r2
    40d6:	f000 020f 	and.w	r2, r0, #15
    40da:	5cac      	ldrb	r4, [r5, r2]
    40dc:	a903      	add	r1, sp, #12
    40de:	545c      	strb	r4, [r3, r1]
    40e0:	4619      	mov	r1, r3
    40e2:	1e5a      	subs	r2, r3, #1
    40e4:	0900      	lsrs	r0, r0, #4
    40e6:	d1f5      	bne.n	40d4 <ada__exceptions__exception_data__append_info_addressXn+0x14>
    40e8:	aa0a      	add	r2, sp, #40	; 0x28
    40ea:	4413      	add	r3, r2
    40ec:	2230      	movs	r2, #48	; 0x30
    40ee:	f803 2c1e 	strb.w	r2, [r3, #-30]
    40f2:	2278      	movs	r2, #120	; 0x78
    40f4:	f803 2c1d 	strb.w	r2, [r3, #-29]
    40f8:	3901      	subs	r1, #1
    40fa:	4608      	mov	r0, r1
    40fc:	2913      	cmp	r1, #19
    40fe:	bfa8      	it	ge
    4100:	2013      	movge	r0, #19
    4102:	ab0a      	add	r3, sp, #40	; 0x28
    4104:	4418      	add	r0, r3
    4106:	9108      	str	r1, [sp, #32]
    4108:	2312      	movs	r3, #18
    410a:	9309      	str	r3, [sp, #36]	; 0x24
    410c:	9b10      	ldr	r3, [sp, #64]	; 0x40
    410e:	9300      	str	r3, [sp, #0]
    4110:	381d      	subs	r0, #29
    4112:	a908      	add	r1, sp, #32
    4114:	4632      	mov	r2, r6
    4116:	463b      	mov	r3, r7
    4118:	f000 f93c 	bl	4394 <ada__exceptions__exception_data__append_info_stringXn>
    411c:	b00b      	add	sp, #44	; 0x2c
    411e:	bdf0      	pop	{r4, r5, r6, r7, pc}

00004120 <ada__exceptions__exception_data__append_info_basic_exception_informationXn>:
    4120:	e92d 45f0 	stmdb	sp!, {r4, r5, r6, r7, r8, sl, lr}
    4124:	b087      	sub	sp, #28
    4126:	af02      	add	r7, sp, #8
    4128:	4680      	mov	r8, r0
    412a:	4614      	mov	r4, r2
    412c:	461d      	mov	r5, r3
    412e:	f000 fa41 	bl	45b4 <ada__exceptions__exception_data__exception_name_length__2Xn>
    4132:	4606      	mov	r6, r0
    4134:	1dc3      	adds	r3, r0, #7
    4136:	f023 0307 	bic.w	r3, r3, #7
    413a:	ebad 0d03 	sub.w	sp, sp, r3
    413e:	f10d 0a08 	add.w	sl, sp, #8
    4142:	2301      	movs	r3, #1
    4144:	603b      	str	r3, [r7, #0]
    4146:	6078      	str	r0, [r7, #4]
    4148:	2300      	movs	r3, #0
    414a:	9300      	str	r3, [sp, #0]
    414c:	4640      	mov	r0, r8
    414e:	4652      	mov	r2, sl
    4150:	463b      	mov	r3, r7
    4152:	f000 f8d3 	bl	42fc <ada__exceptions__exception_data__append_info_exception_name__2Xn>
    4156:	f89d 3008 	ldrb.w	r3, [sp, #8]
    415a:	2b5f      	cmp	r3, #95	; 0x5f
    415c:	d03c      	beq.n	41d8 <ada__exceptions__exception_data__append_info_basic_exception_informationXn+0xb8>
    415e:	6b3b      	ldr	r3, [r7, #48]	; 0x30
    4160:	9300      	str	r3, [sp, #0]
    4162:	f64c 209c 	movw	r0, #51868	; 0xca9c
    4166:	f2c0 0000 	movt	r0, #0
    416a:	f64c 21f0 	movw	r1, #51952	; 0xcaf0
    416e:	f2c0 0100 	movt	r1, #0
    4172:	4622      	mov	r2, r4
    4174:	462b      	mov	r3, r5
    4176:	f000 f90d 	bl	4394 <ada__exceptions__exception_data__append_info_stringXn>
    417a:	2301      	movs	r3, #1
    417c:	60bb      	str	r3, [r7, #8]
    417e:	60fe      	str	r6, [r7, #12]
    4180:	9000      	str	r0, [sp, #0]
    4182:	4650      	mov	r0, sl
    4184:	f107 0108 	add.w	r1, r7, #8
    4188:	4622      	mov	r2, r4
    418a:	462b      	mov	r3, r5
    418c:	f000 f902 	bl	4394 <ada__exceptions__exception_data__append_info_stringXn>
    4190:	4602      	mov	r2, r0
    4192:	4620      	mov	r0, r4
    4194:	4629      	mov	r1, r5
    4196:	f000 f8f1 	bl	437c <ada__exceptions__exception_data__append_info_nlXn>
    419a:	6338      	str	r0, [r7, #48]	; 0x30
    419c:	4640      	mov	r0, r8
    419e:	f000 fa03 	bl	45a8 <__gnat_exception_msg_len>
    41a2:	b1c8      	cbz	r0, 41d8 <ada__exceptions__exception_data__append_info_basic_exception_informationXn+0xb8>
    41a4:	6b3b      	ldr	r3, [r7, #48]	; 0x30
    41a6:	9300      	str	r3, [sp, #0]
    41a8:	f64c 20ac 	movw	r0, #51884	; 0xcaac
    41ac:	f2c0 0000 	movt	r0, #0
    41b0:	f64c 21f8 	movw	r1, #51960	; 0xcaf8
    41b4:	f2c0 0100 	movt	r1, #0
    41b8:	4622      	mov	r2, r4
    41ba:	462b      	mov	r3, r5
    41bc:	f000 f8ea 	bl	4394 <ada__exceptions__exception_data__append_info_stringXn>
    41c0:	9000      	str	r0, [sp, #0]
    41c2:	4640      	mov	r0, r8
    41c4:	4622      	mov	r2, r4
    41c6:	462b      	mov	r3, r5
    41c8:	f000 f83a 	bl	4240 <__gnat_append_info_e_msg>
    41cc:	4602      	mov	r2, r0
    41ce:	4620      	mov	r0, r4
    41d0:	4629      	mov	r1, r5
    41d2:	f000 f8d3 	bl	437c <ada__exceptions__exception_data__append_info_nlXn>
    41d6:	6338      	str	r0, [r7, #48]	; 0x30
    41d8:	f8d8 30d8 	ldr.w	r3, [r8, #216]	; 0xd8
    41dc:	b1db      	cbz	r3, 4216 <ada__exceptions__exception_data__append_info_basic_exception_informationXn+0xf6>
    41de:	6b3b      	ldr	r3, [r7, #48]	; 0x30
    41e0:	9300      	str	r3, [sp, #0]
    41e2:	f64c 20b8 	movw	r0, #51896	; 0xcab8
    41e6:	f2c0 0000 	movt	r0, #0
    41ea:	f64c 3100 	movw	r1, #51968	; 0xcb00
    41ee:	f2c0 0100 	movt	r1, #0
    41f2:	4622      	mov	r2, r4
    41f4:	462b      	mov	r3, r5
    41f6:	f000 f8cd 	bl	4394 <ada__exceptions__exception_data__append_info_stringXn>
    41fa:	f8d8 30d8 	ldr.w	r3, [r8, #216]	; 0xd8
    41fe:	9000      	str	r0, [sp, #0]
    4200:	4618      	mov	r0, r3
    4202:	4622      	mov	r2, r4
    4204:	462b      	mov	r3, r5
    4206:	f000 f88d 	bl	4324 <ada__exceptions__exception_data__append_info_natXn>
    420a:	4602      	mov	r2, r0
    420c:	4620      	mov	r0, r4
    420e:	4629      	mov	r1, r5
    4210:	f000 f8b4 	bl	437c <ada__exceptions__exception_data__append_info_nlXn>
    4214:	6338      	str	r0, [r7, #48]	; 0x30
    4216:	6b38      	ldr	r0, [r7, #48]	; 0x30
    4218:	3714      	adds	r7, #20
    421a:	46bd      	mov	sp, r7
    421c:	e8bd 85f0 	ldmia.w	sp!, {r4, r5, r6, r7, r8, sl, pc}

00004220 <ada__exceptions__exception_data__append_info_characterXn>:
    4220:	b510      	push	{r4, lr}
    4222:	9c02      	ldr	r4, [sp, #8]
    4224:	6819      	ldr	r1, [r3, #0]
    4226:	685b      	ldr	r3, [r3, #4]
    4228:	4299      	cmp	r1, r3
    422a:	dd02      	ble.n	4232 <ada__exceptions__exception_data__append_info_characterXn+0x12>
    422c:	f001 fd10 	bl	5c50 <__gnat_to_stderr_char>
    4230:	e004      	b.n	423c <ada__exceptions__exception_data__append_info_characterXn+0x1c>
    4232:	42a3      	cmp	r3, r4
    4234:	bfc2      	ittt	gt
    4236:	3401      	addgt	r4, #1
    4238:	1a61      	subgt	r1, r4, r1
    423a:	5450      	strbgt	r0, [r2, r1]
    423c:	4620      	mov	r0, r4
    423e:	bd10      	pop	{r4, pc}

00004240 <__gnat_append_info_e_msg>:
    4240:	e92d 43f0 	stmdb	sp!, {r4, r5, r6, r7, r8, r9, lr}
    4244:	b085      	sub	sp, #20
    4246:	af02      	add	r7, sp, #8
    4248:	4604      	mov	r4, r0
    424a:	4699      	mov	r9, r3
    424c:	6803      	ldr	r3, [r0, #0]
    424e:	b93b      	cbnz	r3, 4260 <__gnat_append_info_e_msg+0x20>
    4250:	f64c 3008 	movw	r0, #51976	; 0xcb08
    4254:	f2c0 0000 	movt	r0, #0
    4258:	f240 1145 	movw	r1, #325	; 0x145
    425c:	f001 f92e 	bl	54bc <__gnat_rcheck_CE_Explicit_Raise>
    4260:	4690      	mov	r8, r2
    4262:	f000 f9a1 	bl	45a8 <__gnat_exception_msg_len>
    4266:	4605      	mov	r5, r0
    4268:	1dc3      	adds	r3, r0, #7
    426a:	f023 0307 	bic.w	r3, r3, #7
    426e:	ebad 0d03 	sub.w	sp, sp, r3
    4272:	ae02      	add	r6, sp, #8
    4274:	4630      	mov	r0, r6
    4276:	f104 010c 	add.w	r1, r4, #12
    427a:	462a      	mov	r2, r5
    427c:	f7fd fe32 	bl	1ee4 <memcpy>
    4280:	2301      	movs	r3, #1
    4282:	603b      	str	r3, [r7, #0]
    4284:	607d      	str	r5, [r7, #4]
    4286:	6abb      	ldr	r3, [r7, #40]	; 0x28
    4288:	9300      	str	r3, [sp, #0]
    428a:	4630      	mov	r0, r6
    428c:	4639      	mov	r1, r7
    428e:	4642      	mov	r2, r8
    4290:	464b      	mov	r3, r9
    4292:	f000 f87f 	bl	4394 <ada__exceptions__exception_data__append_info_stringXn>
    4296:	370c      	adds	r7, #12
    4298:	46bd      	mov	sp, r7
    429a:	e8bd 83f0 	ldmia.w	sp!, {r4, r5, r6, r7, r8, r9, pc}
    429e:	bf00      	nop

000042a0 <ada__exceptions__exception_data__append_info_exception_nameXn>:
    42a0:	e92d 43f0 	stmdb	sp!, {r4, r5, r6, r7, r8, r9, lr}
    42a4:	b085      	sub	sp, #20
    42a6:	af02      	add	r7, sp, #8
    42a8:	b938      	cbnz	r0, 42ba <ada__exceptions__exception_data__append_info_exception_nameXn+0x1a>
    42aa:	f64c 3008 	movw	r0, #51976	; 0xcb08
    42ae:	f2c0 0000 	movt	r0, #0
    42b2:	f240 115b 	movw	r1, #347	; 0x15b
    42b6:	f001 f901 	bl	54bc <__gnat_rcheck_CE_Explicit_Raise>
    42ba:	4690      	mov	r8, r2
    42bc:	4699      	mov	r9, r3
    42be:	4605      	mov	r5, r0
    42c0:	f000 f974 	bl	45ac <ada__exceptions__exception_data__exception_name_lengthXn>
    42c4:	4604      	mov	r4, r0
    42c6:	1dc3      	adds	r3, r0, #7
    42c8:	f023 0307 	bic.w	r3, r3, #7
    42cc:	ebad 0d03 	sub.w	sp, sp, r3
    42d0:	ae02      	add	r6, sp, #8
    42d2:	4630      	mov	r0, r6
    42d4:	68a9      	ldr	r1, [r5, #8]
    42d6:	4622      	mov	r2, r4
    42d8:	f7fd fe04 	bl	1ee4 <memcpy>
    42dc:	2301      	movs	r3, #1
    42de:	603b      	str	r3, [r7, #0]
    42e0:	607c      	str	r4, [r7, #4]
    42e2:	6abb      	ldr	r3, [r7, #40]	; 0x28
    42e4:	9300      	str	r3, [sp, #0]
    42e6:	4630      	mov	r0, r6
    42e8:	4639      	mov	r1, r7
    42ea:	4642      	mov	r2, r8
    42ec:	464b      	mov	r3, r9
    42ee:	f000 f851 	bl	4394 <ada__exceptions__exception_data__append_info_stringXn>
    42f2:	370c      	adds	r7, #12
    42f4:	46bd      	mov	sp, r7
    42f6:	e8bd 83f0 	ldmia.w	sp!, {r4, r5, r6, r7, r8, r9, pc}
    42fa:	bf00      	nop

000042fc <ada__exceptions__exception_data__append_info_exception_name__2Xn>:
    42fc:	b500      	push	{lr}
    42fe:	b083      	sub	sp, #12
    4300:	6800      	ldr	r0, [r0, #0]
    4302:	9904      	ldr	r1, [sp, #16]
    4304:	9100      	str	r1, [sp, #0]
    4306:	f7ff ffcb 	bl	42a0 <ada__exceptions__exception_data__append_info_exception_nameXn>
    430a:	b003      	add	sp, #12
    430c:	f85d fb04 	ldr.w	pc, [sp], #4

00004310 <ada__exceptions__exception_data__exception_info_maxlengthXn>:
    4310:	b538      	push	{r3, r4, r5, lr}
    4312:	4605      	mov	r5, r0
    4314:	f000 f8de 	bl	44d4 <ada__exceptions__exception_data__basic_exception_info_maxlengthXn>
    4318:	4604      	mov	r4, r0
    431a:	4628      	mov	r0, r5
    431c:	f000 fa92 	bl	4844 <ada__exceptions__exception_data__untailored_exception_traceback_maxlengthXn>
    4320:	4420      	add	r0, r4
    4322:	bd38      	pop	{r3, r4, r5, pc}

00004324 <ada__exceptions__exception_data__append_info_natXn>:
    4324:	b5d0      	push	{r4, r6, r7, lr}
    4326:	b082      	sub	sp, #8
    4328:	4604      	mov	r4, r0
    432a:	4616      	mov	r6, r2
    432c:	461f      	mov	r7, r3
    432e:	9806      	ldr	r0, [sp, #24]
    4330:	2c09      	cmp	r4, #9
    4332:	dd0d      	ble.n	4350 <ada__exceptions__exception_data__append_info_natXn+0x2c>
    4334:	f246 6367 	movw	r3, #26215	; 0x6667
    4338:	f2c6 6366 	movt	r3, #26214	; 0x6666
    433c:	fb83 2304 	smull	r2, r3, r3, r4
    4340:	17e2      	asrs	r2, r4, #31
    4342:	9000      	str	r0, [sp, #0]
    4344:	ebc2 00a3 	rsb	r0, r2, r3, asr #2
    4348:	4632      	mov	r2, r6
    434a:	463b      	mov	r3, r7
    434c:	f7ff ffea 	bl	4324 <ada__exceptions__exception_data__append_info_natXn>
    4350:	f246 6367 	movw	r3, #26215	; 0x6667
    4354:	f2c6 6366 	movt	r3, #26214	; 0x6666
    4358:	fb83 3204 	smull	r3, r2, r3, r4
    435c:	17e3      	asrs	r3, r4, #31
    435e:	ebc3 03a2 	rsb	r3, r3, r2, asr #2
    4362:	eb03 0383 	add.w	r3, r3, r3, lsl #2
    4366:	eba4 0443 	sub.w	r4, r4, r3, lsl #1
    436a:	3430      	adds	r4, #48	; 0x30
    436c:	9000      	str	r0, [sp, #0]
    436e:	b2e0      	uxtb	r0, r4
    4370:	4632      	mov	r2, r6
    4372:	463b      	mov	r3, r7
    4374:	f7ff ff54 	bl	4220 <ada__exceptions__exception_data__append_info_characterXn>
    4378:	b002      	add	sp, #8
    437a:	bdd0      	pop	{r4, r6, r7, pc}

0000437c <ada__exceptions__exception_data__append_info_nlXn>:
    437c:	b530      	push	{r4, r5, lr}
    437e:	b083      	sub	sp, #12
    4380:	4604      	mov	r4, r0
    4382:	9200      	str	r2, [sp, #0]
    4384:	200a      	movs	r0, #10
    4386:	4622      	mov	r2, r4
    4388:	460b      	mov	r3, r1
    438a:	f7ff ff49 	bl	4220 <ada__exceptions__exception_data__append_info_characterXn>
    438e:	b003      	add	sp, #12
    4390:	bd30      	pop	{r4, r5, pc}
    4392:	bf00      	nop

00004394 <ada__exceptions__exception_data__append_info_stringXn>:
    4394:	b5f8      	push	{r3, r4, r5, r6, r7, lr}
    4396:	4606      	mov	r6, r0
    4398:	9c06      	ldr	r4, [sp, #24]
    439a:	681f      	ldr	r7, [r3, #0]
    439c:	685b      	ldr	r3, [r3, #4]
    439e:	429f      	cmp	r7, r3
    43a0:	dd02      	ble.n	43a8 <ada__exceptions__exception_data__append_info_stringXn+0x14>
    43a2:	f001 fc59 	bl	5c58 <__gnat_to_stderr>
    43a6:	e018      	b.n	43da <ada__exceptions__exception_data__append_info_stringXn+0x46>
    43a8:	684d      	ldr	r5, [r1, #4]
    43aa:	6809      	ldr	r1, [r1, #0]
    43ac:	428d      	cmp	r5, r1
    43ae:	bfa6      	itte	ge
    43b0:	1a6d      	subge	r5, r5, r1
    43b2:	3501      	addge	r5, #1
    43b4:	2500      	movlt	r5, #0
    43b6:	4621      	mov	r1, r4
    43b8:	442c      	add	r4, r5
    43ba:	42a3      	cmp	r3, r4
    43bc:	bfa8      	it	ge
    43be:	4623      	movge	r3, r4
    43c0:	461c      	mov	r4, r3
    43c2:	1c4d      	adds	r5, r1, #1
    43c4:	1bef      	subs	r7, r5, r7
    43c6:	18b8      	adds	r0, r7, r2
    43c8:	42ab      	cmp	r3, r5
    43ca:	bfa6      	itte	ge
    43cc:	f1c5 0501 	rsbge	r5, r5, #1
    43d0:	18ea      	addge	r2, r5, r3
    43d2:	2200      	movlt	r2, #0
    43d4:	4631      	mov	r1, r6
    43d6:	f003 fdc9 	bl	7f6c <memmove>
    43da:	4620      	mov	r0, r4
    43dc:	bdf8      	pop	{r3, r4, r5, r6, r7, pc}
    43de:	bf00      	nop

000043e0 <__gnat_append_info_u_e_info>:
    43e0:	b570      	push	{r4, r5, r6, lr}
    43e2:	b082      	sub	sp, #8
    43e4:	4606      	mov	r6, r0
    43e6:	4614      	mov	r4, r2
    43e8:	461d      	mov	r5, r3
    43ea:	9906      	ldr	r1, [sp, #24]
    43ec:	9100      	str	r1, [sp, #0]
    43ee:	f7ff fe97 	bl	4120 <ada__exceptions__exception_data__append_info_basic_exception_informationXn>
    43f2:	9000      	str	r0, [sp, #0]
    43f4:	4630      	mov	r0, r6
    43f6:	4622      	mov	r2, r4
    43f8:	462b      	mov	r3, r5
    43fa:	f000 f803 	bl	4404 <ada__exceptions__exception_data__append_info_untailored_exception_tracebackXn>
    43fe:	b002      	add	sp, #8
    4400:	bd70      	pop	{r4, r5, r6, pc}
    4402:	bf00      	nop

00004404 <ada__exceptions__exception_data__append_info_untailored_exception_tracebackXn>:
    4404:	e92d 4ff0 	stmdb	sp!, {r4, r5, r6, r7, r8, r9, sl, fp, lr}
    4408:	b083      	sub	sp, #12
    440a:	f8d0 10dc 	ldr.w	r1, [r0, #220]	; 0xdc
    440e:	2900      	cmp	r1, #0
    4410:	d05c      	beq.n	44cc <ada__exceptions__exception_data__append_info_untailored_exception_tracebackXn+0xc8>
    4412:	461f      	mov	r7, r3
    4414:	4690      	mov	r8, r2
    4416:	4681      	mov	r9, r0
    4418:	f003 fda0 	bl	7f5c <__gnat_get_executable_load_address>
    441c:	4604      	mov	r4, r0
    441e:	b1c8      	cbz	r0, 4454 <ada__exceptions__exception_data__append_info_untailored_exception_tracebackXn+0x50>
    4420:	9b0c      	ldr	r3, [sp, #48]	; 0x30
    4422:	9300      	str	r3, [sp, #0]
    4424:	f64c 20e0 	movw	r0, #51936	; 0xcae0
    4428:	f2c0 0000 	movt	r0, #0
    442c:	f64c 3118 	movw	r1, #51992	; 0xcb18
    4430:	f2c0 0100 	movt	r1, #0
    4434:	4642      	mov	r2, r8
    4436:	463b      	mov	r3, r7
    4438:	f7ff ffac 	bl	4394 <ada__exceptions__exception_data__append_info_stringXn>
    443c:	9000      	str	r0, [sp, #0]
    443e:	4620      	mov	r0, r4
    4440:	4642      	mov	r2, r8
    4442:	463b      	mov	r3, r7
    4444:	f7ff fe3c 	bl	40c0 <ada__exceptions__exception_data__append_info_addressXn>
    4448:	4602      	mov	r2, r0
    444a:	4640      	mov	r0, r8
    444c:	4639      	mov	r1, r7
    444e:	f7ff ff95 	bl	437c <ada__exceptions__exception_data__append_info_nlXn>
    4452:	900c      	str	r0, [sp, #48]	; 0x30
    4454:	9b0c      	ldr	r3, [sp, #48]	; 0x30
    4456:	9300      	str	r3, [sp, #0]
    4458:	f64c 20c0 	movw	r0, #51904	; 0xcac0
    445c:	f2c0 0000 	movt	r0, #0
    4460:	f64c 3120 	movw	r1, #52000	; 0xcb20
    4464:	f2c0 0100 	movt	r1, #0
    4468:	4642      	mov	r2, r8
    446a:	463b      	mov	r3, r7
    446c:	f7ff ff92 	bl	4394 <ada__exceptions__exception_data__append_info_stringXn>
    4470:	4602      	mov	r2, r0
    4472:	4640      	mov	r0, r8
    4474:	4639      	mov	r1, r7
    4476:	f7ff ff81 	bl	437c <ada__exceptions__exception_data__append_info_nlXn>
    447a:	4604      	mov	r4, r0
    447c:	f8d9 a0dc 	ldr.w	sl, [r9, #220]	; 0xdc
    4480:	f1ba 0f00 	cmp.w	sl, #0
    4484:	dd1c      	ble.n	44c0 <ada__exceptions__exception_data__append_info_untailored_exception_tracebackXn+0xbc>
    4486:	f109 06e0 	add.w	r6, r9, #224	; 0xe0
    448a:	2500      	movs	r5, #0
    448c:	f04f 0b20 	mov.w	fp, #32
    4490:	3501      	adds	r5, #1
    4492:	6830      	ldr	r0, [r6, #0]
    4494:	f003 fd66 	bl	7f64 <system__traceback_entries__pc_for>
    4498:	9400      	str	r4, [sp, #0]
    449a:	4642      	mov	r2, r8
    449c:	463b      	mov	r3, r7
    449e:	f7ff fe0f 	bl	40c0 <ada__exceptions__exception_data__append_info_addressXn>
    44a2:	4604      	mov	r4, r0
    44a4:	f8d9 30dc 	ldr.w	r3, [r9, #220]	; 0xdc
    44a8:	42ab      	cmp	r3, r5
    44aa:	d009      	beq.n	44c0 <ada__exceptions__exception_data__append_info_untailored_exception_tracebackXn+0xbc>
    44ac:	9000      	str	r0, [sp, #0]
    44ae:	4658      	mov	r0, fp
    44b0:	4642      	mov	r2, r8
    44b2:	463b      	mov	r3, r7
    44b4:	f7ff feb4 	bl	4220 <ada__exceptions__exception_data__append_info_characterXn>
    44b8:	4604      	mov	r4, r0
    44ba:	3604      	adds	r6, #4
    44bc:	45aa      	cmp	sl, r5
    44be:	d1e7      	bne.n	4490 <ada__exceptions__exception_data__append_info_untailored_exception_tracebackXn+0x8c>
    44c0:	4640      	mov	r0, r8
    44c2:	4639      	mov	r1, r7
    44c4:	4622      	mov	r2, r4
    44c6:	f7ff ff59 	bl	437c <ada__exceptions__exception_data__append_info_nlXn>
    44ca:	900c      	str	r0, [sp, #48]	; 0x30
    44cc:	980c      	ldr	r0, [sp, #48]	; 0x30
    44ce:	b003      	add	sp, #12
    44d0:	e8bd 8ff0 	ldmia.w	sp!, {r4, r5, r6, r7, r8, r9, sl, fp, pc}

000044d4 <ada__exceptions__exception_data__basic_exception_info_maxlengthXn>:
    44d4:	b538      	push	{r3, r4, r5, lr}
    44d6:	4605      	mov	r5, r0
    44d8:	f000 f86c 	bl	45b4 <ada__exceptions__exception_data__exception_name_length__2Xn>
    44dc:	4604      	mov	r4, r0
    44de:	4628      	mov	r0, r5
    44e0:	f000 f862 	bl	45a8 <__gnat_exception_msg_len>
    44e4:	4420      	add	r0, r4
    44e6:	302f      	adds	r0, #47	; 0x2f
    44e8:	bd38      	pop	{r3, r4, r5, pc}
    44ea:	bf00      	nop

000044ec <ada__exceptions__exception_data__exception_informationXn>:
    44ec:	e92d 4ff0 	stmdb	sp!, {r4, r5, r6, r7, r8, r9, sl, fp, lr}
    44f0:	b08d      	sub	sp, #52	; 0x34
    44f2:	af02      	add	r7, sp, #8
    44f4:	4605      	mov	r5, r0
    44f6:	6079      	str	r1, [r7, #4]
    44f8:	f107 0008 	add.w	r0, r7, #8
    44fc:	f000 f984 	bl	4808 <ada__exceptions__exception_data__tailored_exception_tracebackXn>
    4500:	f8d7 b008 	ldr.w	fp, [r7, #8]
    4504:	68fb      	ldr	r3, [r7, #12]
    4506:	f8d3 a000 	ldr.w	sl, [r3]
    450a:	f8d3 9004 	ldr.w	r9, [r3, #4]
    450e:	45ca      	cmp	sl, r9
    4510:	bfda      	itte	le
    4512:	ebca 0409 	rsble	r4, sl, r9
    4516:	3401      	addle	r4, #1
    4518:	2400      	movgt	r4, #0
    451a:	6878      	ldr	r0, [r7, #4]
    451c:	f7ff ffda 	bl	44d4 <ada__exceptions__exception_data__basic_exception_info_maxlengthXn>
    4520:	4404      	add	r4, r0
    4522:	ea24 73e4 	bic.w	r3, r4, r4, asr #31
    4526:	3307      	adds	r3, #7
    4528:	f023 0307 	bic.w	r3, r3, #7
    452c:	ebad 0d03 	sub.w	sp, sp, r3
    4530:	ae02      	add	r6, sp, #8
    4532:	f04f 0801 	mov.w	r8, #1
    4536:	f8c7 8010 	str.w	r8, [r7, #16]
    453a:	617c      	str	r4, [r7, #20]
    453c:	2300      	movs	r3, #0
    453e:	9300      	str	r3, [sp, #0]
    4540:	6878      	ldr	r0, [r7, #4]
    4542:	4632      	mov	r2, r6
    4544:	f107 0310 	add.w	r3, r7, #16
    4548:	f7ff fdea 	bl	4120 <ada__exceptions__exception_data__append_info_basic_exception_informationXn>
    454c:	f8c7 a018 	str.w	sl, [r7, #24]
    4550:	f8c7 901c 	str.w	r9, [r7, #28]
    4554:	f8c7 8020 	str.w	r8, [r7, #32]
    4558:	627c      	str	r4, [r7, #36]	; 0x24
    455a:	9000      	str	r0, [sp, #0]
    455c:	4658      	mov	r0, fp
    455e:	f107 0118 	add.w	r1, r7, #24
    4562:	4632      	mov	r2, r6
    4564:	f107 0320 	add.w	r3, r7, #32
    4568:	f7ff ff14 	bl	4394 <ada__exceptions__exception_data__append_info_stringXn>
    456c:	4682      	mov	sl, r0
    456e:	ea20 79e0 	bic.w	r9, r0, r0, asr #31
    4572:	f109 000b 	add.w	r0, r9, #11
    4576:	f020 0003 	bic.w	r0, r0, #3
    457a:	f7fe f811 	bl	25a0 <system__secondary_stack__ss_allocate>
    457e:	4604      	mov	r4, r0
    4580:	f8c0 8000 	str.w	r8, [r0]
    4584:	f8c0 a004 	str.w	sl, [r0, #4]
    4588:	f100 0808 	add.w	r8, r0, #8
    458c:	4640      	mov	r0, r8
    458e:	4631      	mov	r1, r6
    4590:	464a      	mov	r2, r9
    4592:	f7fd fca7 	bl	1ee4 <memcpy>
    4596:	f8c5 8000 	str.w	r8, [r5]
    459a:	606c      	str	r4, [r5, #4]
    459c:	4628      	mov	r0, r5
    459e:	372c      	adds	r7, #44	; 0x2c
    45a0:	46bd      	mov	sp, r7
    45a2:	e8bd 8ff0 	ldmia.w	sp!, {r4, r5, r6, r7, r8, r9, sl, fp, pc}
    45a6:	bf00      	nop

000045a8 <__gnat_exception_msg_len>:
    45a8:	6880      	ldr	r0, [r0, #8]
    45aa:	4770      	bx	lr

000045ac <ada__exceptions__exception_data__exception_name_lengthXn>:
    45ac:	6840      	ldr	r0, [r0, #4]
    45ae:	3801      	subs	r0, #1
    45b0:	4770      	bx	lr
    45b2:	bf00      	nop

000045b4 <ada__exceptions__exception_data__exception_name_length__2Xn>:
    45b4:	b508      	push	{r3, lr}
    45b6:	6800      	ldr	r0, [r0, #0]
    45b8:	f7ff fff8 	bl	45ac <ada__exceptions__exception_data__exception_name_lengthXn>
    45bc:	bd08      	pop	{r3, pc}
    45be:	bf00      	nop

000045c0 <ada__exceptions__exception_data__untailored_exception_tracebackXn>:
    45c0:	e92d 47f0 	stmdb	sp!, {r4, r5, r6, r7, r8, r9, sl, lr}
    45c4:	b084      	sub	sp, #16
    45c6:	af02      	add	r7, sp, #8
    45c8:	4605      	mov	r5, r0
    45ca:	460c      	mov	r4, r1
    45cc:	4608      	mov	r0, r1
    45ce:	f000 f939 	bl	4844 <ada__exceptions__exception_data__untailored_exception_traceback_maxlengthXn>
    45d2:	1dc3      	adds	r3, r0, #7
    45d4:	f023 0307 	bic.w	r3, r3, #7
    45d8:	ebad 0d03 	sub.w	sp, sp, r3
    45dc:	f10d 0908 	add.w	r9, sp, #8
    45e0:	f04f 0a01 	mov.w	sl, #1
    45e4:	f8c7 a000 	str.w	sl, [r7]
    45e8:	6078      	str	r0, [r7, #4]
    45ea:	2300      	movs	r3, #0
    45ec:	9300      	str	r3, [sp, #0]
    45ee:	4620      	mov	r0, r4
    45f0:	464a      	mov	r2, r9
    45f2:	463b      	mov	r3, r7
    45f4:	f7ff ff06 	bl	4404 <ada__exceptions__exception_data__append_info_untailored_exception_tracebackXn>
    45f8:	4606      	mov	r6, r0
    45fa:	ea20 78e0 	bic.w	r8, r0, r0, asr #31
    45fe:	f108 000b 	add.w	r0, r8, #11
    4602:	f020 0003 	bic.w	r0, r0, #3
    4606:	f7fd ffcb 	bl	25a0 <system__secondary_stack__ss_allocate>
    460a:	4604      	mov	r4, r0
    460c:	f8c0 a000 	str.w	sl, [r0]
    4610:	6046      	str	r6, [r0, #4]
    4612:	f100 0608 	add.w	r6, r0, #8
    4616:	4630      	mov	r0, r6
    4618:	4649      	mov	r1, r9
    461a:	4642      	mov	r2, r8
    461c:	f7fd fc62 	bl	1ee4 <memcpy>
    4620:	602e      	str	r6, [r5, #0]
    4622:	606c      	str	r4, [r5, #4]
    4624:	4628      	mov	r0, r5
    4626:	3708      	adds	r7, #8
    4628:	46bd      	mov	sp, r7
    462a:	e8bd 87f0 	ldmia.w	sp!, {r4, r5, r6, r7, r8, r9, sl, pc}
    462e:	bf00      	nop

00004630 <ada__exceptions__exception_data__untailored_exception_informationXn>:
    4630:	e92d 47f0 	stmdb	sp!, {r4, r5, r6, r7, r8, r9, sl, lr}
    4634:	b084      	sub	sp, #16
    4636:	af02      	add	r7, sp, #8
    4638:	4605      	mov	r5, r0
    463a:	460c      	mov	r4, r1
    463c:	4608      	mov	r0, r1
    463e:	f7ff fe67 	bl	4310 <ada__exceptions__exception_data__exception_info_maxlengthXn>
    4642:	1dc3      	adds	r3, r0, #7
    4644:	f023 0307 	bic.w	r3, r3, #7
    4648:	ebad 0d03 	sub.w	sp, sp, r3
    464c:	f10d 0908 	add.w	r9, sp, #8
    4650:	f04f 0a01 	mov.w	sl, #1
    4654:	f8c7 a000 	str.w	sl, [r7]
    4658:	6078      	str	r0, [r7, #4]
    465a:	2300      	movs	r3, #0
    465c:	9300      	str	r3, [sp, #0]
    465e:	4620      	mov	r0, r4
    4660:	464a      	mov	r2, r9
    4662:	463b      	mov	r3, r7
    4664:	f7ff febc 	bl	43e0 <__gnat_append_info_u_e_info>
    4668:	4606      	mov	r6, r0
    466a:	ea20 78e0 	bic.w	r8, r0, r0, asr #31
    466e:	f108 000b 	add.w	r0, r8, #11
    4672:	f020 0003 	bic.w	r0, r0, #3
    4676:	f7fd ff93 	bl	25a0 <system__secondary_stack__ss_allocate>
    467a:	4604      	mov	r4, r0
    467c:	f8c0 a000 	str.w	sl, [r0]
    4680:	6046      	str	r6, [r0, #4]
    4682:	f100 0608 	add.w	r6, r0, #8
    4686:	4630      	mov	r0, r6
    4688:	4649      	mov	r1, r9
    468a:	4642      	mov	r2, r8
    468c:	f7fd fc2a 	bl	1ee4 <memcpy>
    4690:	602e      	str	r6, [r5, #0]
    4692:	606c      	str	r4, [r5, #4]
    4694:	4628      	mov	r0, r5
    4696:	3708      	adds	r7, #8
    4698:	46bd      	mov	sp, r7
    469a:	e8bd 87f0 	ldmia.w	sp!, {r4, r5, r6, r7, r8, r9, sl, pc}
    469e:	bf00      	nop

000046a0 <ada__exceptions__exception_data__set_exception_c_msg__append_number.5331>:
    46a0:	2800      	cmp	r0, #0
    46a2:	dd3e      	ble.n	4722 <ada__exceptions__exception_data__set_exception_c_msg__append_number.5331+0x82>
    46a4:	b470      	push	{r4, r5, r6}
    46a6:	4603      	mov	r3, r0
    46a8:	2201      	movs	r2, #1
    46aa:	f246 6467 	movw	r4, #26215	; 0x6667
    46ae:	f2c6 6466 	movt	r4, #26214	; 0x6666
    46b2:	fb84 5103 	smull	r5, r1, r4, r3
    46b6:	17db      	asrs	r3, r3, #31
    46b8:	ebc3 03a1 	rsb	r3, r3, r1, asr #2
    46bc:	3201      	adds	r2, #1
    46be:	2b00      	cmp	r3, #0
    46c0:	dcf7      	bgt.n	46b2 <ada__exceptions__exception_data__set_exception_c_msg__append_number.5331+0x12>
    46c2:	e025      	b.n	4710 <ada__exceptions__exception_data__set_exception_c_msg__append_number.5331+0x70>
    46c4:	fb86 3200 	smull	r3, r2, r6, r0
    46c8:	17c3      	asrs	r3, r0, #31
    46ca:	ebc3 03a2 	rsb	r3, r3, r2, asr #2
    46ce:	461c      	mov	r4, r3
    46d0:	eb03 0383 	add.w	r3, r3, r3, lsl #2
    46d4:	eba0 0343 	sub.w	r3, r0, r3, lsl #1
    46d8:	f8cc 3000 	str.w	r3, [ip]
    46dc:	4620      	mov	r0, r4
    46de:	f8dc 5004 	ldr.w	r5, [ip, #4]
    46e2:	68aa      	ldr	r2, [r5, #8]
    46e4:	1a52      	subs	r2, r2, r1
    46e6:	442a      	add	r2, r5
    46e8:	3330      	adds	r3, #48	; 0x30
    46ea:	72d3      	strb	r3, [r2, #11]
    46ec:	3101      	adds	r1, #1
    46ee:	2c00      	cmp	r4, #0
    46f0:	dce8      	bgt.n	46c4 <ada__exceptions__exception_data__set_exception_c_msg__append_number.5331+0x24>
    46f2:	e014      	b.n	471e <ada__exceptions__exception_data__set_exception_c_msg__append_number.5331+0x7e>
    46f4:	440b      	add	r3, r1
    46f6:	213a      	movs	r1, #58	; 0x3a
    46f8:	7319      	strb	r1, [r3, #12]
    46fa:	f8dc 1004 	ldr.w	r1, [ip, #4]
    46fe:	688b      	ldr	r3, [r1, #8]
    4700:	441a      	add	r2, r3
    4702:	608a      	str	r2, [r1, #8]
    4704:	2100      	movs	r1, #0
    4706:	f246 6667 	movw	r6, #26215	; 0x6667
    470a:	f2c6 6666 	movt	r6, #26214	; 0x6666
    470e:	e7d9      	b.n	46c4 <ada__exceptions__exception_data__set_exception_c_msg__append_number.5331+0x24>
    4710:	f8dc 1004 	ldr.w	r1, [ip, #4]
    4714:	688b      	ldr	r3, [r1, #8]
    4716:	f1c2 04c8 	rsb	r4, r2, #200	; 0xc8
    471a:	42a3      	cmp	r3, r4
    471c:	ddea      	ble.n	46f4 <ada__exceptions__exception_data__set_exception_c_msg__append_number.5331+0x54>
    471e:	bc70      	pop	{r4, r5, r6}
    4720:	4770      	bx	lr
    4722:	4770      	bx	lr

00004724 <ada__exceptions__exception_data__set_exception_c_msgXn>:
    4724:	b530      	push	{r4, r5, lr}
    4726:	b083      	sub	sp, #12
    4728:	9c07      	ldr	r4, [sp, #28]
    472a:	9001      	str	r0, [sp, #4]
    472c:	2500      	movs	r5, #0
    472e:	f880 50d4 	strb.w	r5, [r0, #212]	; 0xd4
    4732:	6001      	str	r1, [r0, #0]
    4734:	f8c0 50dc 	str.w	r5, [r0, #220]	; 0xdc
    4738:	f240 1118 	movw	r1, #280	; 0x118
    473c:	f6c0 0100 	movt	r1, #2048	; 0x800
    4740:	6809      	ldr	r1, [r1, #0]
    4742:	f8c0 10d8 	str.w	r1, [r0, #216]	; 0xd8
    4746:	6085      	str	r5, [r0, #8]
    4748:	4615      	mov	r5, r2
    474a:	7812      	ldrb	r2, [r2, #0]
    474c:	b922      	cbnz	r2, 4758 <ada__exceptions__exception_data__set_exception_c_msgXn+0x34>
    474e:	e00f      	b.n	4770 <ada__exceptions__exception_data__set_exception_c_msgXn+0x4c>
    4750:	460a      	mov	r2, r1
    4752:	29c7      	cmp	r1, #199	; 0xc7
    4754:	dd01      	ble.n	475a <ada__exceptions__exception_data__set_exception_c_msgXn+0x36>
    4756:	e00b      	b.n	4770 <ada__exceptions__exception_data__set_exception_c_msgXn+0x4c>
    4758:	2200      	movs	r2, #0
    475a:	3201      	adds	r2, #1
    475c:	6082      	str	r2, [r0, #8]
    475e:	18a9      	adds	r1, r5, r2
    4760:	f811 1c01 	ldrb.w	r1, [r1, #-1]
    4764:	4402      	add	r2, r0
    4766:	72d1      	strb	r1, [r2, #11]
    4768:	6881      	ldr	r1, [r0, #8]
    476a:	5c6a      	ldrb	r2, [r5, r1]
    476c:	2a00      	cmp	r2, #0
    476e:	d1ef      	bne.n	4750 <ada__exceptions__exception_data__set_exception_c_msgXn+0x2c>
    4770:	46ec      	mov	ip, sp
    4772:	4618      	mov	r0, r3
    4774:	f7ff ff94 	bl	46a0 <ada__exceptions__exception_data__set_exception_c_msg__append_number.5331>
    4778:	46ec      	mov	ip, sp
    477a:	9806      	ldr	r0, [sp, #24]
    477c:	f7ff ff90 	bl	46a0 <ada__exceptions__exception_data__set_exception_c_msg__append_number.5331>
    4780:	b1d4      	cbz	r4, 47b8 <ada__exceptions__exception_data__set_exception_c_msgXn+0x94>
    4782:	9a01      	ldr	r2, [sp, #4]
    4784:	6893      	ldr	r3, [r2, #8]
    4786:	3301      	adds	r3, #1
    4788:	2bc7      	cmp	r3, #199	; 0xc7
    478a:	dc15      	bgt.n	47b8 <ada__exceptions__exception_data__set_exception_c_msgXn+0x94>
    478c:	6093      	str	r3, [r2, #8]
    478e:	4413      	add	r3, r2
    4790:	2120      	movs	r1, #32
    4792:	72d9      	strb	r1, [r3, #11]
    4794:	7823      	ldrb	r3, [r4, #0]
    4796:	b17b      	cbz	r3, 47b8 <ada__exceptions__exception_data__set_exception_c_msgXn+0x94>
    4798:	6893      	ldr	r3, [r2, #8]
    479a:	2bc7      	cmp	r3, #199	; 0xc7
    479c:	dc0c      	bgt.n	47b8 <ada__exceptions__exception_data__set_exception_c_msgXn+0x94>
    479e:	e003      	b.n	47a8 <ada__exceptions__exception_data__set_exception_c_msgXn+0x84>
    47a0:	6893      	ldr	r3, [r2, #8]
    47a2:	3401      	adds	r4, #1
    47a4:	2bc7      	cmp	r3, #199	; 0xc7
    47a6:	dc07      	bgt.n	47b8 <ada__exceptions__exception_data__set_exception_c_msgXn+0x94>
    47a8:	3301      	adds	r3, #1
    47aa:	6093      	str	r3, [r2, #8]
    47ac:	7821      	ldrb	r1, [r4, #0]
    47ae:	4413      	add	r3, r2
    47b0:	72d9      	strb	r1, [r3, #11]
    47b2:	7863      	ldrb	r3, [r4, #1]
    47b4:	2b00      	cmp	r3, #0
    47b6:	d1f3      	bne.n	47a0 <ada__exceptions__exception_data__set_exception_c_msgXn+0x7c>
    47b8:	b003      	add	sp, #12
    47ba:	bd30      	pop	{r4, r5, pc}

000047bc <ada__exceptions__exception_data__set_exception_msgXn>:
    47bc:	b570      	push	{r4, r5, r6, lr}
    47be:	4604      	mov	r4, r0
    47c0:	460e      	mov	r6, r1
    47c2:	6818      	ldr	r0, [r3, #0]
    47c4:	685b      	ldr	r3, [r3, #4]
    47c6:	4298      	cmp	r0, r3
    47c8:	bfc8      	it	gt
    47ca:	2300      	movgt	r3, #0
    47cc:	dc05      	bgt.n	47da <ada__exceptions__exception_data__set_exception_msgXn+0x1e>
    47ce:	1a1b      	subs	r3, r3, r0
    47d0:	3301      	adds	r3, #1
    47d2:	2bc8      	cmp	r3, #200	; 0xc8
    47d4:	bfa8      	it	ge
    47d6:	23c8      	movge	r3, #200	; 0xc8
    47d8:	e7ff      	b.n	47da <ada__exceptions__exception_data__set_exception_msgXn+0x1e>
    47da:	2500      	movs	r5, #0
    47dc:	f884 50d4 	strb.w	r5, [r4, #212]	; 0xd4
    47e0:	60a3      	str	r3, [r4, #8]
    47e2:	f104 000c 	add.w	r0, r4, #12
    47e6:	4611      	mov	r1, r2
    47e8:	ea23 72e3 	bic.w	r2, r3, r3, asr #31
    47ec:	f003 fbbe 	bl	7f6c <memmove>
    47f0:	6026      	str	r6, [r4, #0]
    47f2:	f8c4 50dc 	str.w	r5, [r4, #220]	; 0xdc
    47f6:	f240 1318 	movw	r3, #280	; 0x118
    47fa:	f6c0 0300 	movt	r3, #2048	; 0x800
    47fe:	681b      	ldr	r3, [r3, #0]
    4800:	f8c4 30d8 	str.w	r3, [r4, #216]	; 0xd8
    4804:	bd70      	pop	{r4, r5, r6, pc}
    4806:	bf00      	nop

00004808 <ada__exceptions__exception_data__tailored_exception_tracebackXn>:
    4808:	b510      	push	{r4, lr}
    480a:	b082      	sub	sp, #8
    480c:	4604      	mov	r4, r0
    480e:	460a      	mov	r2, r1
    4810:	f240 0390 	movw	r3, #144	; 0x90
    4814:	f6c0 0300 	movt	r3, #2048	; 0x800
    4818:	681b      	ldr	r3, [r3, #0]
    481a:	b93b      	cbnz	r3, 482c <ada__exceptions__exception_data__tailored_exception_tracebackXn+0x24>
    481c:	4668      	mov	r0, sp
    481e:	f7ff fecf 	bl	45c0 <ada__exceptions__exception_data__untailored_exception_tracebackXn>
    4822:	9b00      	ldr	r3, [sp, #0]
    4824:	6023      	str	r3, [r4, #0]
    4826:	9b01      	ldr	r3, [sp, #4]
    4828:	6063      	str	r3, [r4, #4]
    482a:	e008      	b.n	483e <ada__exceptions__exception_data__tailored_exception_tracebackXn+0x36>
    482c:	4668      	mov	r0, sp
    482e:	31e0      	adds	r1, #224	; 0xe0
    4830:	f8d2 20dc 	ldr.w	r2, [r2, #220]	; 0xdc
    4834:	4798      	blx	r3
    4836:	9b00      	ldr	r3, [sp, #0]
    4838:	6023      	str	r3, [r4, #0]
    483a:	9b01      	ldr	r3, [sp, #4]
    483c:	6063      	str	r3, [r4, #4]
    483e:	4620      	mov	r0, r4
    4840:	b002      	add	sp, #8
    4842:	bd10      	pop	{r4, pc}

00004844 <ada__exceptions__exception_data__untailored_exception_traceback_maxlengthXn>:
    4844:	f8d0 30dc 	ldr.w	r3, [r0, #220]	; 0xdc
    4848:	eb03 00c3 	add.w	r0, r3, r3, lsl #3
    484c:	eb03 0040 	add.w	r0, r3, r0, lsl #1
    4850:	3042      	adds	r0, #66	; 0x42
    4852:	4770      	bx	lr

00004854 <ada__exceptions__exception_propagation__allocate_occurrenceXn>:
    4854:	b508      	push	{r3, lr}
    4856:	f004 fb3f 	bl	8ed8 <system__exceptions__machine__new_occurrence>
    485a:	f644 036d 	movw	r3, #18541	; 0x486d
    485e:	f2c0 0300 	movt	r3, #0
    4862:	6083      	str	r3, [r0, #8]
    4864:	65c0      	str	r0, [r0, #92]	; 0x5c
    4866:	3058      	adds	r0, #88	; 0x58
    4868:	bd08      	pop	{r3, pc}
    486a:	bf00      	nop

0000486c <ada__exceptions__exception_propagation__gnat_gcc_exception_cleanupXn>:
    486c:	b121      	cbz	r1, 4878 <ada__exceptions__exception_propagation__gnat_gcc_exception_cleanupXn+0xc>
    486e:	b508      	push	{r3, lr}
    4870:	4608      	mov	r0, r1
    4872:	f003 fd9f 	bl	83b4 <__gnat_free>
    4876:	bd08      	pop	{r3, pc}
    4878:	4770      	bx	lr
    487a:	bf00      	nop

0000487c <ada__exceptions__exception_propagation__set_foreign_occurrenceXn>:
    487c:	f240 1318 	movw	r3, #280	; 0x118
    4880:	f6c0 0300 	movt	r3, #2048	; 0x800
    4884:	681a      	ldr	r2, [r3, #0]
    4886:	f240 1394 	movw	r3, #404	; 0x194
    488a:	f6c0 0300 	movt	r3, #2048	; 0x800
    488e:	6003      	str	r3, [r0, #0]
    4890:	6041      	str	r1, [r0, #4]
    4892:	2300      	movs	r3, #0
    4894:	6083      	str	r3, [r0, #8]
    4896:	2101      	movs	r1, #1
    4898:	f880 10d4 	strb.w	r1, [r0, #212]	; 0xd4
    489c:	f8c0 20d8 	str.w	r2, [r0, #216]	; 0xd8
    48a0:	f8c0 30dc 	str.w	r3, [r0, #220]	; 0xdc
    48a4:	4770      	bx	lr
    48a6:	bf00      	nop

000048a8 <__gnat_setup_current_excep>:
    48a8:	b538      	push	{r3, r4, r5, lr}
    48aa:	4604      	mov	r4, r0
    48ac:	f7fd fd28 	bl	2300 <system__soft_links__get_current_excep_soft>
    48b0:	4605      	mov	r5, r0
    48b2:	4620      	mov	r0, r4
    48b4:	f24c 01c8 	movw	r1, #49352	; 0xc0c8
    48b8:	f2c0 0100 	movt	r1, #0
    48bc:	2208      	movs	r2, #8
    48be:	f7fe fd87 	bl	33d0 <memcmp>
    48c2:	b940      	cbnz	r0, 48d6 <__gnat_setup_current_excep+0x2e>
    48c4:	3458      	adds	r4, #88	; 0x58
    48c6:	4628      	mov	r0, r5
    48c8:	4621      	mov	r1, r4
    48ca:	f44f 72d4 	mov.w	r2, #424	; 0x1a8
    48ce:	f7fd fb09 	bl	1ee4 <memcpy>
    48d2:	4620      	mov	r0, r4
    48d4:	e004      	b.n	48e0 <__gnat_setup_current_excep+0x38>
    48d6:	4628      	mov	r0, r5
    48d8:	4621      	mov	r1, r4
    48da:	f7ff ffcf 	bl	487c <ada__exceptions__exception_propagation__set_foreign_occurrenceXn>
    48de:	4628      	mov	r0, r5
    48e0:	bd38      	pop	{r3, r4, r5, pc}
    48e2:	bf00      	nop

000048e4 <__gnat_begin_handler>:
    48e4:	4770      	bx	lr
    48e6:	bf00      	nop

000048e8 <__gnat_end_handler>:
    48e8:	b118      	cbz	r0, 48f2 <__gnat_end_handler+0xa>
    48ea:	b508      	push	{r3, lr}
    48ec:	f005 f868 	bl	99c0 <_Unwind_DeleteException>
    48f0:	bd08      	pop	{r3, pc}
    48f2:	4770      	bx	lr

000048f4 <__gnat_reraise_zcx>:
    48f4:	b508      	push	{r3, lr}
    48f6:	f000 f801 	bl	48fc <ada__exceptions__exception_propagation__propagate_gcc_exceptionXn>
    48fa:	bf00      	nop

000048fc <ada__exceptions__exception_propagation__propagate_gcc_exceptionXn>:
    48fc:	b510      	push	{r4, lr}
    48fe:	4604      	mov	r4, r0
    4900:	f7fd f824 	bl	194c <__gnat_Unwind_RaiseException>
    4904:	4620      	mov	r0, r4
    4906:	f7ff ffcf 	bl	48a8 <__gnat_setup_current_excep>
    490a:	f000 f8c9 	bl	4aa0 <__gnat_notify_unhandled_exception>
    490e:	4620      	mov	r0, r4
    4910:	f641 1139 	movw	r1, #6457	; 0x1939
    4914:	f2c0 0100 	movt	r1, #0
    4918:	2200      	movs	r2, #0
    491a:	f7fd f819 	bl	1950 <__gnat_Unwind_ForcedUnwind>
    491e:	4620      	mov	r0, r4
    4920:	f000 f81c 	bl	495c <__gnat_unhandled_except_handler>

00004924 <ada__exceptions__exception_propagation__propagate_exceptionXn>:
    4924:	b508      	push	{r3, lr}
    4926:	6840      	ldr	r0, [r0, #4]
    4928:	f7ff ffe8 	bl	48fc <ada__exceptions__exception_propagation__propagate_gcc_exceptionXn>

0000492c <__gnat_set_exception_parameter>:
    492c:	b538      	push	{r3, r4, r5, lr}
    492e:	4605      	mov	r5, r0
    4930:	460c      	mov	r4, r1
    4932:	4608      	mov	r0, r1
    4934:	f24c 01c8 	movw	r1, #49352	; 0xc0c8
    4938:	f2c0 0100 	movt	r1, #0
    493c:	2208      	movs	r2, #8
    493e:	f7fe fd47 	bl	33d0 <memcmp>
    4942:	b928      	cbnz	r0, 4950 <__gnat_set_exception_parameter+0x24>
    4944:	4628      	mov	r0, r5
    4946:	f104 0158 	add.w	r1, r4, #88	; 0x58
    494a:	f001 f943 	bl	5bd4 <ada__exceptions__save_occurrence>
    494e:	e003      	b.n	4958 <__gnat_set_exception_parameter+0x2c>
    4950:	4628      	mov	r0, r5
    4952:	4621      	mov	r1, r4
    4954:	f7ff ff92 	bl	487c <ada__exceptions__exception_propagation__set_foreign_occurrenceXn>
    4958:	bd38      	pop	{r3, r4, r5, pc}
    495a:	bf00      	nop

0000495c <__gnat_unhandled_except_handler>:
    495c:	b508      	push	{r3, lr}
    495e:	f7ff ffa3 	bl	48a8 <__gnat_setup_current_excep>
    4962:	f000 f8ad 	bl	4ac0 <ada__exceptions__exception_traces__unhandled_exception_terminateXn>
    4966:	bf00      	nop

00004968 <__gnat_eid_for>:
    4968:	6d80      	ldr	r0, [r0, #88]	; 0x58
    496a:	4770      	bx	lr

0000496c <__gnat_foreign_data_for>:
    496c:	6900      	ldr	r0, [r0, #16]
    496e:	4770      	bx	lr

00004970 <__gnat_is_handled_by_others>:
    4970:	7800      	ldrb	r0, [r0, #0]
    4972:	f080 0001 	eor.w	r0, r0, #1
    4976:	4770      	bx	lr

00004978 <__gnat_language_for>:
    4978:	7840      	ldrb	r0, [r0, #1]
    497a:	4770      	bx	lr

0000497c <ada__exceptions__exception_traces__notify_exception___finalizerXn.5596>:
    497c:	b508      	push	{r3, lr}
    497e:	f8dc 0000 	ldr.w	r0, [ip]
    4982:	f7fd fe31 	bl	25e8 <system__secondary_stack__ss_release>
    4986:	bd08      	pop	{r3, pc}

00004988 <ada__exceptions__exception_traces__notify_exceptionXn>:
    4988:	b530      	push	{r4, r5, lr}
    498a:	b085      	sub	sp, #20
    498c:	4604      	mov	r4, r0
    498e:	460d      	mov	r5, r1
    4990:	f7fd fe24 	bl	25dc <system__secondary_stack__ss_mark>
    4994:	9003      	str	r0, [sp, #12]
    4996:	6823      	ldr	r3, [r4, #0]
    4998:	781b      	ldrb	r3, [r3, #0]
    499a:	2b00      	cmp	r3, #0
    499c:	d151      	bne.n	4a42 <ada__exceptions__exception_traces__notify_exceptionXn+0xba>
    499e:	f240 03c8 	movw	r3, #200	; 0xc8
    49a2:	f6c0 0300 	movt	r3, #2048	; 0x800
    49a6:	781b      	ldrb	r3, [r3, #0]
    49a8:	b2db      	uxtb	r3, r3
    49aa:	2b01      	cmp	r3, #1
    49ac:	d00c      	beq.n	49c8 <ada__exceptions__exception_traces__notify_exceptionXn+0x40>
    49ae:	f240 03c8 	movw	r3, #200	; 0xc8
    49b2:	f6c0 0300 	movt	r3, #2048	; 0x800
    49b6:	781b      	ldrb	r3, [r3, #0]
    49b8:	b2db      	uxtb	r3, r3
    49ba:	2b02      	cmp	r3, #2
    49bc:	bf14      	ite	ne
    49be:	2300      	movne	r3, #0
    49c0:	f005 0301 	andeq.w	r3, r5, #1
    49c4:	2b00      	cmp	r3, #0
    49c6:	d03c      	beq.n	4a42 <ada__exceptions__exception_traces__notify_exceptionXn+0xba>
    49c8:	f240 037c 	movw	r3, #124	; 0x7c
    49cc:	f6c0 0300 	movt	r3, #2048	; 0x800
    49d0:	681b      	ldr	r3, [r3, #0]
    49d2:	4798      	blx	r3
    49d4:	f64c 3044 	movw	r0, #52036	; 0xcb44
    49d8:	f2c0 0000 	movt	r0, #0
    49dc:	f64c 3148 	movw	r1, #52040	; 0xcb48
    49e0:	f2c0 0100 	movt	r1, #0
    49e4:	f001 f938 	bl	5c58 <__gnat_to_stderr>
    49e8:	b14d      	cbz	r5, 49fe <ada__exceptions__exception_traces__notify_exceptionXn+0x76>
    49ea:	f64c 3028 	movw	r0, #52008	; 0xcb28
    49ee:	f2c0 0000 	movt	r0, #0
    49f2:	f64c 3150 	movw	r1, #52048	; 0xcb50
    49f6:	f2c0 0100 	movt	r1, #0
    49fa:	f001 f92d 	bl	5c58 <__gnat_to_stderr>
    49fe:	f64c 3034 	movw	r0, #52020	; 0xcb34
    4a02:	f2c0 0000 	movt	r0, #0
    4a06:	f64c 21f0 	movw	r1, #51952	; 0xcaf0
    4a0a:	f2c0 0100 	movt	r1, #0
    4a0e:	f001 f923 	bl	5c58 <__gnat_to_stderr>
    4a12:	f64c 3044 	movw	r0, #52036	; 0xcb44
    4a16:	f2c0 0000 	movt	r0, #0
    4a1a:	f64c 3148 	movw	r1, #52040	; 0xcb48
    4a1e:	f2c0 0100 	movt	r1, #0
    4a22:	f001 f919 	bl	5c58 <__gnat_to_stderr>
    4a26:	4668      	mov	r0, sp
    4a28:	4621      	mov	r1, r4
    4a2a:	f000 fa61 	bl	4ef0 <ada__exceptions__exception_information>
    4a2e:	e9dd 0100 	ldrd	r0, r1, [sp]
    4a32:	f001 f911 	bl	5c58 <__gnat_to_stderr>
    4a36:	f240 0380 	movw	r3, #128	; 0x80
    4a3a:	f6c0 0300 	movt	r3, #2048	; 0x800
    4a3e:	681b      	ldr	r3, [r3, #0]
    4a40:	4798      	blx	r3
    4a42:	f240 136c 	movw	r3, #364	; 0x16c
    4a46:	f6c0 0300 	movt	r3, #2048	; 0x800
    4a4a:	781b      	ldrb	r3, [r3, #0]
    4a4c:	f013 0fff 	tst.w	r3, #255	; 0xff
    4a50:	d004      	beq.n	4a5c <ada__exceptions__exception_traces__notify_exceptionXn+0xd4>
    4a52:	6823      	ldr	r3, [r4, #0]
    4a54:	695b      	ldr	r3, [r3, #20]
    4a56:	b10b      	cbz	r3, 4a5c <ada__exceptions__exception_traces__notify_exceptionXn+0xd4>
    4a58:	4620      	mov	r0, r4
    4a5a:	4798      	blx	r3
    4a5c:	f240 1368 	movw	r3, #360	; 0x168
    4a60:	f6c0 0300 	movt	r3, #2048	; 0x800
    4a64:	681b      	ldr	r3, [r3, #0]
    4a66:	b17b      	cbz	r3, 4a88 <ada__exceptions__exception_traces__notify_exceptionXn+0x100>
    4a68:	f240 1368 	movw	r3, #360	; 0x168
    4a6c:	f6c0 0300 	movt	r3, #2048	; 0x800
    4a70:	681b      	ldr	r3, [r3, #0]
    4a72:	4620      	mov	r0, r4
    4a74:	4798      	blx	r3
    4a76:	e007      	b.n	4a88 <ada__exceptions__exception_traces__notify_exceptionXn+0x100>
    4a78:	4604      	mov	r4, r0
    4a7a:	f10d 0c0c 	add.w	ip, sp, #12
    4a7e:	f7ff ff7d 	bl	497c <ada__exceptions__exception_traces__notify_exception___finalizerXn.5596>
    4a82:	4620      	mov	r0, r4
    4a84:	f005 fbb4 	bl	a1f0 <_Unwind_Resume>
    4a88:	f10d 0c0c 	add.w	ip, sp, #12
    4a8c:	f7ff ff76 	bl	497c <ada__exceptions__exception_traces__notify_exception___finalizerXn.5596>
    4a90:	b005      	add	sp, #20
    4a92:	bd30      	pop	{r4, r5, pc}

00004a94 <__gnat_notify_handled_exception>:
    4a94:	b508      	push	{r3, lr}
    4a96:	2100      	movs	r1, #0
    4a98:	f7ff ff76 	bl	4988 <ada__exceptions__exception_traces__notify_exceptionXn>
    4a9c:	bd08      	pop	{r3, pc}
    4a9e:	bf00      	nop

00004aa0 <__gnat_notify_unhandled_exception>:
    4aa0:	b510      	push	{r4, lr}
    4aa2:	4604      	mov	r4, r0
    4aa4:	f240 038c 	movw	r3, #140	; 0x8c
    4aa8:	f6c0 0300 	movt	r3, #2048	; 0x800
    4aac:	681b      	ldr	r3, [r3, #0]
    4aae:	4798      	blx	r3
    4ab0:	4620      	mov	r0, r4
    4ab2:	2101      	movs	r1, #1
    4ab4:	f7ff ff68 	bl	4988 <ada__exceptions__exception_traces__notify_exceptionXn>
    4ab8:	6820      	ldr	r0, [r4, #0]
    4aba:	f003 fccf 	bl	845c <__gnat_unhandled_exception>
    4abe:	bd10      	pop	{r4, pc}

00004ac0 <ada__exceptions__exception_traces__unhandled_exception_terminateXn>:
    4ac0:	b510      	push	{r4, lr}
    4ac2:	b0ea      	sub	sp, #424	; 0x1a8
    4ac4:	4604      	mov	r4, r0
    4ac6:	4668      	mov	r0, sp
    4ac8:	f7ff faf0 	bl	40ac <ada__exceptions__exception_occurrenceIP>
    4acc:	4668      	mov	r0, sp
    4ace:	4621      	mov	r1, r4
    4ad0:	f001 f880 	bl	5bd4 <ada__exceptions__save_occurrence>
    4ad4:	4668      	mov	r0, sp
    4ad6:	f7fc facd 	bl	1074 <__gnat_last_chance_handler>
    4ada:	bf00      	nop

00004adc <ada__exceptions__stream_attributes__eid_to_stringXn>:
    4adc:	b510      	push	{r4, lr}
    4ade:	b082      	sub	sp, #8
    4ae0:	4604      	mov	r4, r0
    4ae2:	b959      	cbnz	r1, 4afc <ada__exceptions__stream_attributes__eid_to_stringXn+0x20>
    4ae4:	2008      	movs	r0, #8
    4ae6:	f7fd fd5b 	bl	25a0 <system__secondary_stack__ss_allocate>
    4aea:	2301      	movs	r3, #1
    4aec:	6003      	str	r3, [r0, #0]
    4aee:	2300      	movs	r3, #0
    4af0:	6043      	str	r3, [r0, #4]
    4af2:	f100 0308 	add.w	r3, r0, #8
    4af6:	6023      	str	r3, [r4, #0]
    4af8:	6060      	str	r0, [r4, #4]
    4afa:	e006      	b.n	4b0a <ada__exceptions__stream_attributes__eid_to_stringXn+0x2e>
    4afc:	4668      	mov	r0, sp
    4afe:	f000 fa39 	bl	4f74 <ada__exceptions__exception_name>
    4b02:	9b00      	ldr	r3, [sp, #0]
    4b04:	6023      	str	r3, [r4, #0]
    4b06:	9b01      	ldr	r3, [sp, #4]
    4b08:	6063      	str	r3, [r4, #4]
    4b0a:	4620      	mov	r0, r4
    4b0c:	b002      	add	sp, #8
    4b0e:	bd10      	pop	{r4, pc}

00004b10 <ada__exceptions__stream_attributes__eo_to_stringXn>:
    4b10:	b510      	push	{r4, lr}
    4b12:	b082      	sub	sp, #8
    4b14:	4604      	mov	r4, r0
    4b16:	680b      	ldr	r3, [r1, #0]
    4b18:	b95b      	cbnz	r3, 4b32 <ada__exceptions__stream_attributes__eo_to_stringXn+0x22>
    4b1a:	2008      	movs	r0, #8
    4b1c:	f7fd fd40 	bl	25a0 <system__secondary_stack__ss_allocate>
    4b20:	2301      	movs	r3, #1
    4b22:	6003      	str	r3, [r0, #0]
    4b24:	2300      	movs	r3, #0
    4b26:	6043      	str	r3, [r0, #4]
    4b28:	f100 0308 	add.w	r3, r0, #8
    4b2c:	6023      	str	r3, [r4, #0]
    4b2e:	6060      	str	r0, [r4, #4]
    4b30:	e006      	b.n	4b40 <ada__exceptions__stream_attributes__eo_to_stringXn+0x30>
    4b32:	4668      	mov	r0, sp
    4b34:	f7ff fd7c 	bl	4630 <ada__exceptions__exception_data__untailored_exception_informationXn>
    4b38:	9b00      	ldr	r3, [sp, #0]
    4b3a:	6023      	str	r3, [r4, #0]
    4b3c:	9b01      	ldr	r3, [sp, #4]
    4b3e:	6063      	str	r3, [r4, #4]
    4b40:	4620      	mov	r0, r4
    4b42:	b002      	add	sp, #8
    4b44:	bd10      	pop	{r4, pc}
    4b46:	bf00      	nop

00004b48 <ada__exceptions__stream_attributes__string_to_eidXn>:
    4b48:	b508      	push	{r3, lr}
    4b4a:	684a      	ldr	r2, [r1, #4]
    4b4c:	680b      	ldr	r3, [r1, #0]
    4b4e:	429a      	cmp	r2, r3
    4b50:	bfb8      	it	lt
    4b52:	2000      	movlt	r0, #0
    4b54:	db03      	blt.n	4b5e <ada__exceptions__stream_attributes__string_to_eidXn+0x16>
    4b56:	2201      	movs	r2, #1
    4b58:	f7fd fe78 	bl	284c <system__exception_table__internal_exception>
    4b5c:	e7ff      	b.n	4b5e <ada__exceptions__stream_attributes__string_to_eidXn+0x16>
    4b5e:	bd08      	pop	{r3, pc}

00004b60 <ada__exceptions__stream_attributes__string_to_eo__bad_eo.5653>:
    4b60:	b508      	push	{r3, lr}
    4b62:	f240 1000 	movw	r0, #256	; 0x100
    4b66:	f6c0 0000 	movt	r0, #2048	; 0x800
    4b6a:	f64c 3258 	movw	r2, #52056	; 0xcb58
    4b6e:	f2c0 0200 	movt	r2, #0
    4b72:	f64c 3380 	movw	r3, #52096	; 0xcb80
    4b76:	f2c0 0300 	movt	r3, #0
    4b7a:	f000 faf9 	bl	5170 <__gnat_raise_exception>
    4b7e:	bf00      	nop

00004b80 <ada__exceptions__stream_attributes__string_to_eoXn>:
    4b80:	e92d 4ff0 	stmdb	sp!, {r4, r5, r6, r7, r8, r9, sl, fp, lr}
    4b84:	b0f3      	sub	sp, #460	; 0x1cc
    4b86:	4682      	mov	sl, r0
    4b88:	a972      	add	r1, sp, #456	; 0x1c8
    4b8a:	e961 2372 	strd	r2, r3, [r1, #-456]!	; 0x1c8
    4b8e:	916f      	str	r1, [sp, #444]	; 0x1bc
    4b90:	684b      	ldr	r3, [r1, #4]
    4b92:	681a      	ldr	r2, [r3, #0]
    4b94:	926e      	str	r2, [sp, #440]	; 0x1b8
    4b96:	6859      	ldr	r1, [r3, #4]
    4b98:	681a      	ldr	r2, [r3, #0]
    4b9a:	4291      	cmp	r1, r2
    4b9c:	da03      	bge.n	4ba6 <ada__exceptions__stream_attributes__string_to_eoXn+0x26>
    4b9e:	926e      	str	r2, [sp, #440]	; 0x1b8
    4ba0:	681a      	ldr	r2, [r3, #0]
    4ba2:	4291      	cmp	r1, r2
    4ba4:	db04      	blt.n	4bb0 <ada__exceptions__stream_attributes__string_to_eoXn+0x30>
    4ba6:	926e      	str	r2, [sp, #440]	; 0x1b8
    4ba8:	681b      	ldr	r3, [r3, #0]
    4baa:	4299      	cmp	r1, r3
    4bac:	bfa8      	it	ge
    4bae:	936e      	strge	r3, [sp, #440]	; 0x1b8
    4bb0:	a802      	add	r0, sp, #8
    4bb2:	f7ff fa7b 	bl	40ac <ada__exceptions__exception_occurrenceIP>
    4bb6:	9b01      	ldr	r3, [sp, #4]
    4bb8:	681a      	ldr	r2, [r3, #0]
    4bba:	685b      	ldr	r3, [r3, #4]
    4bbc:	4293      	cmp	r3, r2
    4bbe:	da09      	bge.n	4bd4 <ada__exceptions__stream_attributes__string_to_eoXn+0x54>
    4bc0:	4650      	mov	r0, sl
    4bc2:	f64c 31c8 	movw	r1, #52168	; 0xcbc8
    4bc6:	f2c0 0100 	movt	r1, #0
    4bca:	f44f 72d4 	mov.w	r2, #424	; 0x1a8
    4bce:	f7fd f989 	bl	1ee4 <memcpy>
    4bd2:	e0fa      	b.n	4dca <ada__exceptions__stream_attributes__string_to_eoXn+0x24a>
    4bd4:	3a02      	subs	r2, #2
    4bd6:	9271      	str	r2, [sp, #452]	; 0x1c4
    4bd8:	f50d 7cdc 	add.w	ip, sp, #440	; 0x1b8
    4bdc:	f000 f8fa 	bl	4dd4 <ada__exceptions__stream_attributes__string_to_eo__next_string.5655>
    4be0:	9c70      	ldr	r4, [sp, #448]	; 0x1c0
    4be2:	9e00      	ldr	r6, [sp, #0]
    4be4:	9d6e      	ldr	r5, [sp, #440]	; 0x1b8
    4be6:	1b60      	subs	r0, r4, r5
    4be8:	4430      	add	r0, r6
    4bea:	f64c 3188 	movw	r1, #52104	; 0xcb88
    4bee:	f2c0 0100 	movt	r1, #0
    4bf2:	2210      	movs	r2, #16
    4bf4:	f7fe fbec 	bl	33d0 <memcmp>
    4bf8:	b108      	cbz	r0, 4bfe <ada__exceptions__stream_attributes__string_to_eoXn+0x7e>
    4bfa:	f7ff ffb1 	bl	4b60 <ada__exceptions__stream_attributes__string_to_eo__bad_eo.5653>
    4bfe:	3410      	adds	r4, #16
    4c00:	1b60      	subs	r0, r4, r5
    4c02:	946c      	str	r4, [sp, #432]	; 0x1b0
    4c04:	9b71      	ldr	r3, [sp, #452]	; 0x1c4
    4c06:	936d      	str	r3, [sp, #436]	; 0x1b4
    4c08:	4430      	add	r0, r6
    4c0a:	a96c      	add	r1, sp, #432	; 0x1b0
    4c0c:	2201      	movs	r2, #1
    4c0e:	f7fd fe1d 	bl	284c <system__exception_table__internal_exception>
    4c12:	9002      	str	r0, [sp, #8]
    4c14:	f50d 7cdc 	add.w	ip, sp, #440	; 0x1b8
    4c18:	f000 f8dc 	bl	4dd4 <ada__exceptions__stream_attributes__string_to_eo__next_string.5655>
    4c1c:	9c70      	ldr	r4, [sp, #448]	; 0x1c0
    4c1e:	9d71      	ldr	r5, [sp, #452]	; 0x1c4
    4c20:	42ac      	cmp	r4, r5
    4c22:	dc21      	bgt.n	4c68 <ada__exceptions__stream_attributes__string_to_eoXn+0xe8>
    4c24:	9e00      	ldr	r6, [sp, #0]
    4c26:	9f6e      	ldr	r7, [sp, #440]	; 0x1b8
    4c28:	1be3      	subs	r3, r4, r7
    4c2a:	5cf3      	ldrb	r3, [r6, r3]
    4c2c:	2b4d      	cmp	r3, #77	; 0x4d
    4c2e:	d11b      	bne.n	4c68 <ada__exceptions__stream_attributes__string_to_eoXn+0xe8>
    4c30:	1be0      	subs	r0, r4, r7
    4c32:	4430      	add	r0, r6
    4c34:	f64c 3198 	movw	r1, #52120	; 0xcb98
    4c38:	f2c0 0100 	movt	r1, #0
    4c3c:	2209      	movs	r2, #9
    4c3e:	f7fe fbc7 	bl	33d0 <memcmp>
    4c42:	b108      	cbz	r0, 4c48 <ada__exceptions__stream_attributes__string_to_eoXn+0xc8>
    4c44:	f7ff ff8c 	bl	4b60 <ada__exceptions__stream_attributes__string_to_eo__bad_eo.5653>
    4c48:	1b2a      	subs	r2, r5, r4
    4c4a:	3a08      	subs	r2, #8
    4c4c:	9204      	str	r2, [sp, #16]
    4c4e:	3409      	adds	r4, #9
    4c50:	1be1      	subs	r1, r4, r7
    4c52:	a805      	add	r0, sp, #20
    4c54:	4431      	add	r1, r6
    4c56:	ea22 72e2 	bic.w	r2, r2, r2, asr #31
    4c5a:	f003 f987 	bl	7f6c <memmove>
    4c5e:	f50d 7cdc 	add.w	ip, sp, #440	; 0x1b8
    4c62:	f000 f8b7 	bl	4dd4 <ada__exceptions__stream_attributes__string_to_eo__next_string.5655>
    4c66:	e001      	b.n	4c6c <ada__exceptions__stream_attributes__string_to_eoXn+0xec>
    4c68:	2300      	movs	r3, #0
    4c6a:	9304      	str	r3, [sp, #16]
    4c6c:	2300      	movs	r3, #0
    4c6e:	9338      	str	r3, [sp, #224]	; 0xe0
    4c70:	9c70      	ldr	r4, [sp, #448]	; 0x1c0
    4c72:	9d71      	ldr	r5, [sp, #452]	; 0x1c4
    4c74:	42ac      	cmp	r4, r5
    4c76:	dc26      	bgt.n	4cc6 <ada__exceptions__stream_attributes__string_to_eoXn+0x146>
    4c78:	9e00      	ldr	r6, [sp, #0]
    4c7a:	9f6e      	ldr	r7, [sp, #440]	; 0x1b8
    4c7c:	1be3      	subs	r3, r4, r7
    4c7e:	5cf3      	ldrb	r3, [r6, r3]
    4c80:	2b50      	cmp	r3, #80	; 0x50
    4c82:	d120      	bne.n	4cc6 <ada__exceptions__stream_attributes__string_to_eoXn+0x146>
    4c84:	1be0      	subs	r0, r4, r7
    4c86:	4430      	add	r0, r6
    4c88:	f64c 31a4 	movw	r1, #52132	; 0xcba4
    4c8c:	f2c0 0100 	movt	r1, #0
    4c90:	2204      	movs	r2, #4
    4c92:	f7fe fb9d 	bl	33d0 <memcmp>
    4c96:	b108      	cbz	r0, 4c9c <ada__exceptions__stream_attributes__string_to_eoXn+0x11c>
    4c98:	f7ff ff62 	bl	4b60 <ada__exceptions__stream_attributes__string_to_eo__bad_eo.5653>
    4c9c:	1d63      	adds	r3, r4, #5
    4c9e:	9370      	str	r3, [sp, #448]	; 0x1c0
    4ca0:	429d      	cmp	r5, r3
    4ca2:	db0c      	blt.n	4cbe <ada__exceptions__stream_attributes__string_to_eoXn+0x13e>
    4ca4:	1bf0      	subs	r0, r6, r7
    4ca6:	5cc2      	ldrb	r2, [r0, r3]
    4ca8:	9938      	ldr	r1, [sp, #224]	; 0xe0
    4caa:	eb01 0181 	add.w	r1, r1, r1, lsl #2
    4cae:	3a30      	subs	r2, #48	; 0x30
    4cb0:	eb02 0241 	add.w	r2, r2, r1, lsl #1
    4cb4:	9238      	str	r2, [sp, #224]	; 0xe0
    4cb6:	3301      	adds	r3, #1
    4cb8:	9370      	str	r3, [sp, #448]	; 0x1c0
    4cba:	429d      	cmp	r5, r3
    4cbc:	daf3      	bge.n	4ca6 <ada__exceptions__stream_attributes__string_to_eoXn+0x126>
    4cbe:	f50d 7cdc 	add.w	ip, sp, #440	; 0x1b8
    4cc2:	f000 f887 	bl	4dd4 <ada__exceptions__stream_attributes__string_to_eo__next_string.5655>
    4cc6:	2300      	movs	r3, #0
    4cc8:	9339      	str	r3, [sp, #228]	; 0xe4
    4cca:	9b70      	ldr	r3, [sp, #448]	; 0x1c0
    4ccc:	9a71      	ldr	r2, [sp, #452]	; 0x1c4
    4cce:	4293      	cmp	r3, r2
    4cd0:	dc72      	bgt.n	4db8 <ada__exceptions__stream_attributes__string_to_eoXn+0x238>
    4cd2:	1ad2      	subs	r2, r2, r3
    4cd4:	2a1e      	cmp	r2, #30
    4cd6:	d10b      	bne.n	4cf0 <ada__exceptions__stream_attributes__string_to_eoXn+0x170>
    4cd8:	9a6e      	ldr	r2, [sp, #440]	; 0x1b8
    4cda:	1a9b      	subs	r3, r3, r2
    4cdc:	9800      	ldr	r0, [sp, #0]
    4cde:	4418      	add	r0, r3
    4ce0:	f64c 31a8 	movw	r1, #52136	; 0xcba8
    4ce4:	f2c0 0100 	movt	r1, #0
    4ce8:	221f      	movs	r2, #31
    4cea:	f7fe fb71 	bl	33d0 <memcmp>
    4cee:	b108      	cbz	r0, 4cf4 <ada__exceptions__stream_attributes__string_to_eoXn+0x174>
    4cf0:	f7ff ff36 	bl	4b60 <ada__exceptions__stream_attributes__string_to_eo__bad_eo.5653>
    4cf4:	f50d 7cdc 	add.w	ip, sp, #440	; 0x1b8
    4cf8:	f000 f86c 	bl	4dd4 <ada__exceptions__stream_attributes__string_to_eo__next_string.5655>
    4cfc:	9a70      	ldr	r2, [sp, #448]	; 0x1c0
    4cfe:	4613      	mov	r3, r2
    4d00:	9c71      	ldr	r4, [sp, #452]	; 0x1c4
    4d02:	42a2      	cmp	r2, r4
    4d04:	dc58      	bgt.n	4db8 <ada__exceptions__stream_attributes__string_to_eoXn+0x238>
    4d06:	f8dd 8000 	ldr.w	r8, [sp]
    4d0a:	9f6e      	ldr	r7, [sp, #440]	; 0x1b8
    4d0c:	1bd1      	subs	r1, r2, r7
    4d0e:	f818 1001 	ldrb.w	r1, [r8, r1]
    4d12:	2930      	cmp	r1, #48	; 0x30
    4d14:	d116      	bne.n	4d44 <ada__exceptions__stream_attributes__string_to_eoXn+0x1c4>
    4d16:	3201      	adds	r2, #1
    4d18:	1bd2      	subs	r2, r2, r7
    4d1a:	f818 2002 	ldrb.w	r2, [r8, r2]
    4d1e:	2a78      	cmp	r2, #120	; 0x78
    4d20:	d110      	bne.n	4d44 <ada__exceptions__stream_attributes__string_to_eoXn+0x1c4>
    4d22:	f04f 0900 	mov.w	r9, #0
    4d26:	ebc7 0508 	rsb	r5, r7, r8
    4d2a:	ae02      	add	r6, sp, #8
    4d2c:	e00c      	b.n	4d48 <ada__exceptions__stream_attributes__string_to_eoXn+0x1c8>
    4d2e:	1bd1      	subs	r1, r2, r7
    4d30:	f818 1001 	ldrb.w	r1, [r8, r1]
    4d34:	2930      	cmp	r1, #48	; 0x30
    4d36:	d105      	bne.n	4d44 <ada__exceptions__stream_attributes__string_to_eoXn+0x1c4>
    4d38:	3201      	adds	r2, #1
    4d3a:	1bd2      	subs	r2, r2, r7
    4d3c:	f818 2002 	ldrb.w	r2, [r8, r2]
    4d40:	2a78      	cmp	r2, #120	; 0x78
    4d42:	d001      	beq.n	4d48 <ada__exceptions__stream_attributes__string_to_eoXn+0x1c8>
    4d44:	f7ff ff0c 	bl	4b60 <ada__exceptions__stream_attributes__string_to_eo__bad_eo.5653>
    4d48:	3302      	adds	r3, #2
    4d4a:	9370      	str	r3, [sp, #448]	; 0x1c0
    4d4c:	42a3      	cmp	r3, r4
    4d4e:	dc1d      	bgt.n	4d8c <ada__exceptions__stream_attributes__string_to_eoXn+0x20c>
    4d50:	4648      	mov	r0, r9
    4d52:	5cea      	ldrb	r2, [r5, r3]
    4d54:	f1a2 0130 	sub.w	r1, r2, #48	; 0x30
    4d58:	b2c9      	uxtb	r1, r1
    4d5a:	2909      	cmp	r1, #9
    4d5c:	bf98      	it	ls
    4d5e:	3a30      	subls	r2, #48	; 0x30
    4d60:	d90d      	bls.n	4d7e <ada__exceptions__stream_attributes__string_to_eoXn+0x1fe>
    4d62:	f1a2 0161 	sub.w	r1, r2, #97	; 0x61
    4d66:	b2c9      	uxtb	r1, r1
    4d68:	2905      	cmp	r1, #5
    4d6a:	d801      	bhi.n	4d70 <ada__exceptions__stream_attributes__string_to_eoXn+0x1f0>
    4d6c:	3a57      	subs	r2, #87	; 0x57
    4d6e:	e006      	b.n	4d7e <ada__exceptions__stream_attributes__string_to_eoXn+0x1fe>
    4d70:	2a20      	cmp	r2, #32
    4d72:	d102      	bne.n	4d7a <ada__exceptions__stream_attributes__string_to_eoXn+0x1fa>
    4d74:	3301      	adds	r3, #1
    4d76:	9370      	str	r3, [sp, #448]	; 0x1c0
    4d78:	e009      	b.n	4d8e <ada__exceptions__stream_attributes__string_to_eoXn+0x20e>
    4d7a:	f7ff fef1 	bl	4b60 <ada__exceptions__stream_attributes__string_to_eo__bad_eo.5653>
    4d7e:	eb02 1000 	add.w	r0, r2, r0, lsl #4
    4d82:	3301      	adds	r3, #1
    4d84:	9370      	str	r3, [sp, #448]	; 0x1c0
    4d86:	42a3      	cmp	r3, r4
    4d88:	dde3      	ble.n	4d52 <ada__exceptions__stream_attributes__string_to_eoXn+0x1d2>
    4d8a:	e000      	b.n	4d8e <ada__exceptions__stream_attributes__string_to_eoXn+0x20e>
    4d8c:	4648      	mov	r0, r9
    4d8e:	f8d6 b0dc 	ldr.w	fp, [r6, #220]	; 0xdc
    4d92:	f1bb 0f32 	cmp.w	fp, #50	; 0x32
    4d96:	d101      	bne.n	4d9c <ada__exceptions__stream_attributes__string_to_eoXn+0x21c>
    4d98:	f7ff fee2 	bl	4b60 <ada__exceptions__stream_attributes__string_to_eo__bad_eo.5653>
    4d9c:	f10b 0301 	add.w	r3, fp, #1
    4da0:	f8c6 30dc 	str.w	r3, [r6, #220]	; 0xdc
    4da4:	f003 f8e0 	bl	7f68 <system__traceback_entries__tb_entry_for>
    4da8:	f10b 0b38 	add.w	fp, fp, #56	; 0x38
    4dac:	f846 002b 	str.w	r0, [r6, fp, lsl #2]
    4db0:	9a70      	ldr	r2, [sp, #448]	; 0x1c0
    4db2:	4613      	mov	r3, r2
    4db4:	42a2      	cmp	r2, r4
    4db6:	ddba      	ble.n	4d2e <ada__exceptions__stream_attributes__string_to_eoXn+0x1ae>
    4db8:	2301      	movs	r3, #1
    4dba:	f88d 30dc 	strb.w	r3, [sp, #220]	; 0xdc
    4dbe:	4650      	mov	r0, sl
    4dc0:	a902      	add	r1, sp, #8
    4dc2:	f44f 72d4 	mov.w	r2, #424	; 0x1a8
    4dc6:	f7fd f88d 	bl	1ee4 <memcpy>
    4dca:	4650      	mov	r0, sl
    4dcc:	b073      	add	sp, #460	; 0x1cc
    4dce:	e8bd 8ff0 	ldmia.w	sp!, {r4, r5, r6, r7, r8, r9, sl, fp, pc}
    4dd2:	bf00      	nop

00004dd4 <ada__exceptions__stream_attributes__string_to_eo__next_string.5655>:
    4dd4:	f8dc 300c 	ldr.w	r3, [ip, #12]
    4dd8:	1c9a      	adds	r2, r3, #2
    4dda:	f8cc 2008 	str.w	r2, [ip, #8]
    4dde:	f8dc 1004 	ldr.w	r1, [ip, #4]
    4de2:	6848      	ldr	r0, [r1, #4]
    4de4:	6840      	ldr	r0, [r0, #4]
    4de6:	4282      	cmp	r2, r0
    4de8:	da29      	bge.n	4e3e <ada__exceptions__stream_attributes__string_to_eo__next_string.5655+0x6a>
    4dea:	b510      	push	{r4, lr}
    4dec:	1cda      	adds	r2, r3, #3
    4dee:	f8cc 200c 	str.w	r2, [ip, #12]
    4df2:	6848      	ldr	r0, [r1, #4]
    4df4:	6840      	ldr	r0, [r0, #4]
    4df6:	1e44      	subs	r4, r0, #1
    4df8:	42a2      	cmp	r2, r4
    4dfa:	da1f      	bge.n	4e3c <ada__exceptions__stream_attributes__string_to_eo__next_string.5655+0x68>
    4dfc:	4282      	cmp	r2, r0
    4dfe:	da0b      	bge.n	4e18 <ada__exceptions__stream_attributes__string_to_eo__next_string.5655+0x44>
    4e00:	6808      	ldr	r0, [r1, #0]
    4e02:	f8dc 4000 	ldr.w	r4, [ip]
    4e06:	1d1a      	adds	r2, r3, #4
    4e08:	1b12      	subs	r2, r2, r4
    4e0a:	5c82      	ldrb	r2, [r0, r2]
    4e0c:	2a0a      	cmp	r2, #10
    4e0e:	d015      	beq.n	4e3c <ada__exceptions__stream_attributes__string_to_eo__next_string.5655+0x68>
    4e10:	3304      	adds	r3, #4
    4e12:	e00c      	b.n	4e2e <ada__exceptions__stream_attributes__string_to_eo__next_string.5655+0x5a>
    4e14:	429a      	cmp	r2, r3
    4e16:	dc01      	bgt.n	4e1c <ada__exceptions__stream_attributes__string_to_eo__next_string.5655+0x48>
    4e18:	f7ff fea2 	bl	4b60 <ada__exceptions__stream_attributes__string_to_eo__bad_eo.5653>
    4e1c:	6808      	ldr	r0, [r1, #0]
    4e1e:	1c5a      	adds	r2, r3, #1
    4e20:	f8dc 4000 	ldr.w	r4, [ip]
    4e24:	4613      	mov	r3, r2
    4e26:	1b12      	subs	r2, r2, r4
    4e28:	5c82      	ldrb	r2, [r0, r2]
    4e2a:	2a0a      	cmp	r2, #10
    4e2c:	d006      	beq.n	4e3c <ada__exceptions__stream_attributes__string_to_eo__next_string.5655+0x68>
    4e2e:	f8cc 300c 	str.w	r3, [ip, #12]
    4e32:	684a      	ldr	r2, [r1, #4]
    4e34:	6852      	ldr	r2, [r2, #4]
    4e36:	1e50      	subs	r0, r2, #1
    4e38:	4298      	cmp	r0, r3
    4e3a:	dceb      	bgt.n	4e14 <ada__exceptions__stream_attributes__string_to_eo__next_string.5655+0x40>
    4e3c:	bd10      	pop	{r4, pc}
    4e3e:	4770      	bx	lr

00004e40 <ada__exceptions__poll>:
    4e40:	4770      	bx	lr
    4e42:	bf00      	nop

00004e44 <ada__exceptions__code_address_for_aaa>:
    4e44:	4800      	ldr	r0, [pc, #0]	; (4e48 <ada__exceptions__code_address_for_aaa+0x4>)
    4e46:	4770      	bx	lr
    4e48:	00004e44 	.word	0x00004e44

00004e4c <ada__exceptions__call_chain>:
    4e4c:	f240 0350 	movw	r3, #80	; 0x50
    4e50:	f6c0 0300 	movt	r3, #2048	; 0x800
    4e54:	681b      	ldr	r3, [r3, #0]
    4e56:	b303      	cbz	r3, 4e9a <ada__exceptions__call_chain+0x4e>
    4e58:	f8d0 30dc 	ldr.w	r3, [r0, #220]	; 0xdc
    4e5c:	b9eb      	cbnz	r3, 4e9a <ada__exceptions__call_chain+0x4e>
    4e5e:	b530      	push	{r4, r5, lr}
    4e60:	b0b5      	sub	sp, #212	; 0xd4
    4e62:	4604      	mov	r4, r0
    4e64:	f7ff ffee 	bl	4e44 <ada__exceptions__code_address_for_aaa>
    4e68:	4605      	mov	r5, r0
    4e6a:	f001 f85b 	bl	5f24 <ada__exceptions__code_address_for_zzz>
    4e6e:	9000      	str	r0, [sp, #0]
    4e70:	2305      	movs	r3, #5
    4e72:	9301      	str	r3, [sp, #4]
    4e74:	a802      	add	r0, sp, #8
    4e76:	f64c 5170 	movw	r1, #52592	; 0xcd70
    4e7a:	f2c0 0100 	movt	r1, #0
    4e7e:	2232      	movs	r2, #50	; 0x32
    4e80:	462b      	mov	r3, r5
    4e82:	f004 f9b3 	bl	91ec <system__traceback__call_chain>
    4e86:	f8c4 00dc 	str.w	r0, [r4, #220]	; 0xdc
    4e8a:	f104 00e0 	add.w	r0, r4, #224	; 0xe0
    4e8e:	a902      	add	r1, sp, #8
    4e90:	22c8      	movs	r2, #200	; 0xc8
    4e92:	f7fd f827 	bl	1ee4 <memcpy>
    4e96:	b035      	add	sp, #212	; 0xd4
    4e98:	bd30      	pop	{r4, r5, pc}
    4e9a:	4770      	bx	lr

00004e9c <__gnat_current_target_exception>:
    4e9c:	b510      	push	{r4, lr}
    4e9e:	4604      	mov	r4, r0
    4ea0:	f64c 31c8 	movw	r1, #52168	; 0xcbc8
    4ea4:	f2c0 0100 	movt	r1, #0
    4ea8:	f44f 72d4 	mov.w	r2, #424	; 0x1a8
    4eac:	f7fd f81a 	bl	1ee4 <memcpy>
    4eb0:	4620      	mov	r0, r4
    4eb2:	bd10      	pop	{r4, pc}

00004eb4 <ada__exceptions__eid_to_string>:
    4eb4:	b510      	push	{r4, lr}
    4eb6:	b082      	sub	sp, #8
    4eb8:	4604      	mov	r4, r0
    4eba:	4668      	mov	r0, sp
    4ebc:	f7ff fe0e 	bl	4adc <ada__exceptions__stream_attributes__eid_to_stringXn>
    4ec0:	9b00      	ldr	r3, [sp, #0]
    4ec2:	6023      	str	r3, [r4, #0]
    4ec4:	9b01      	ldr	r3, [sp, #4]
    4ec6:	6063      	str	r3, [r4, #4]
    4ec8:	4620      	mov	r0, r4
    4eca:	b002      	add	sp, #8
    4ecc:	bd10      	pop	{r4, pc}
    4ece:	bf00      	nop

00004ed0 <ada__exceptions__eo_to_string>:
    4ed0:	b510      	push	{r4, lr}
    4ed2:	b082      	sub	sp, #8
    4ed4:	4604      	mov	r4, r0
    4ed6:	4668      	mov	r0, sp
    4ed8:	f7ff fe1a 	bl	4b10 <ada__exceptions__stream_attributes__eo_to_stringXn>
    4edc:	9b00      	ldr	r3, [sp, #0]
    4ede:	6023      	str	r3, [r4, #0]
    4ee0:	9b01      	ldr	r3, [sp, #4]
    4ee2:	6063      	str	r3, [r4, #4]
    4ee4:	4620      	mov	r0, r4
    4ee6:	b002      	add	sp, #8
    4ee8:	bd10      	pop	{r4, pc}
    4eea:	bf00      	nop

00004eec <ada__exceptions__exception_identity>:
    4eec:	6800      	ldr	r0, [r0, #0]
    4eee:	4770      	bx	lr

00004ef0 <ada__exceptions__exception_information>:
    4ef0:	b510      	push	{r4, lr}
    4ef2:	b082      	sub	sp, #8
    4ef4:	680b      	ldr	r3, [r1, #0]
    4ef6:	b93b      	cbnz	r3, 4f08 <ada__exceptions__exception_information+0x18>
    4ef8:	f64c 5078 	movw	r0, #52600	; 0xcd78
    4efc:	f2c0 0000 	movt	r0, #0
    4f00:	f240 21ed 	movw	r1, #749	; 0x2ed
    4f04:	f000 fada 	bl	54bc <__gnat_rcheck_CE_Explicit_Raise>
    4f08:	4604      	mov	r4, r0
    4f0a:	4668      	mov	r0, sp
    4f0c:	f7ff faee 	bl	44ec <ada__exceptions__exception_data__exception_informationXn>
    4f10:	9b00      	ldr	r3, [sp, #0]
    4f12:	6023      	str	r3, [r4, #0]
    4f14:	9b01      	ldr	r3, [sp, #4]
    4f16:	6063      	str	r3, [r4, #4]
    4f18:	4620      	mov	r0, r4
    4f1a:	b002      	add	sp, #8
    4f1c:	bd10      	pop	{r4, pc}
    4f1e:	bf00      	nop

00004f20 <ada__exceptions__exception_message>:
    4f20:	e92d 41f0 	stmdb	sp!, {r4, r5, r6, r7, r8, lr}
    4f24:	460c      	mov	r4, r1
    4f26:	680b      	ldr	r3, [r1, #0]
    4f28:	b93b      	cbnz	r3, 4f3a <ada__exceptions__exception_message+0x1a>
    4f2a:	f64c 5078 	movw	r0, #52600	; 0xcd78
    4f2e:	f2c0 0000 	movt	r0, #0
    4f32:	f240 21fa 	movw	r1, #762	; 0x2fa
    4f36:	f000 fac1 	bl	54bc <__gnat_rcheck_CE_Explicit_Raise>
    4f3a:	4607      	mov	r7, r0
    4f3c:	688e      	ldr	r6, [r1, #8]
    4f3e:	ea26 76e6 	bic.w	r6, r6, r6, asr #31
    4f42:	f106 000b 	add.w	r0, r6, #11
    4f46:	f020 0003 	bic.w	r0, r0, #3
    4f4a:	f7fd fb29 	bl	25a0 <system__secondary_stack__ss_allocate>
    4f4e:	4605      	mov	r5, r0
    4f50:	2301      	movs	r3, #1
    4f52:	6003      	str	r3, [r0, #0]
    4f54:	68a3      	ldr	r3, [r4, #8]
    4f56:	6043      	str	r3, [r0, #4]
    4f58:	f100 0808 	add.w	r8, r0, #8
    4f5c:	4640      	mov	r0, r8
    4f5e:	f104 010c 	add.w	r1, r4, #12
    4f62:	4632      	mov	r2, r6
    4f64:	f7fc ffbe 	bl	1ee4 <memcpy>
    4f68:	f8c7 8000 	str.w	r8, [r7]
    4f6c:	607d      	str	r5, [r7, #4]
    4f6e:	4638      	mov	r0, r7
    4f70:	e8bd 81f0 	ldmia.w	sp!, {r4, r5, r6, r7, r8, pc}

00004f74 <ada__exceptions__exception_name>:
    4f74:	e92d 41f0 	stmdb	sp!, {r4, r5, r6, r7, r8, lr}
    4f78:	b939      	cbnz	r1, 4f8a <ada__exceptions__exception_name+0x16>
    4f7a:	f64c 5078 	movw	r0, #52600	; 0xcd78
    4f7e:	f2c0 0000 	movt	r0, #0
    4f82:	f240 3107 	movw	r1, #775	; 0x307
    4f86:	f000 fa99 	bl	54bc <__gnat_rcheck_CE_Explicit_Raise>
    4f8a:	4606      	mov	r6, r0
    4f8c:	460f      	mov	r7, r1
    4f8e:	684d      	ldr	r5, [r1, #4]
    4f90:	3d01      	subs	r5, #1
    4f92:	ea25 78e5 	bic.w	r8, r5, r5, asr #31
    4f96:	f108 000b 	add.w	r0, r8, #11
    4f9a:	f020 0003 	bic.w	r0, r0, #3
    4f9e:	f7fd faff 	bl	25a0 <system__secondary_stack__ss_allocate>
    4fa2:	4604      	mov	r4, r0
    4fa4:	2301      	movs	r3, #1
    4fa6:	6003      	str	r3, [r0, #0]
    4fa8:	6045      	str	r5, [r0, #4]
    4faa:	f100 0508 	add.w	r5, r0, #8
    4fae:	4628      	mov	r0, r5
    4fb0:	68b9      	ldr	r1, [r7, #8]
    4fb2:	4642      	mov	r2, r8
    4fb4:	f7fc ff96 	bl	1ee4 <memcpy>
    4fb8:	6035      	str	r5, [r6, #0]
    4fba:	6074      	str	r4, [r6, #4]
    4fbc:	4630      	mov	r0, r6
    4fbe:	e8bd 81f0 	ldmia.w	sp!, {r4, r5, r6, r7, r8, pc}
    4fc2:	bf00      	nop

00004fc4 <ada__exceptions__exception_name__2>:
    4fc4:	b510      	push	{r4, lr}
    4fc6:	b082      	sub	sp, #8
    4fc8:	4604      	mov	r4, r0
    4fca:	4668      	mov	r0, sp
    4fcc:	6809      	ldr	r1, [r1, #0]
    4fce:	f7ff ffd1 	bl	4f74 <ada__exceptions__exception_name>
    4fd2:	9b00      	ldr	r3, [sp, #0]
    4fd4:	6023      	str	r3, [r4, #0]
    4fd6:	9b01      	ldr	r3, [sp, #4]
    4fd8:	6063      	str	r3, [r4, #4]
    4fda:	4620      	mov	r0, r4
    4fdc:	b002      	add	sp, #8
    4fde:	bd10      	pop	{r4, pc}

00004fe0 <ada__exceptions__exception_name_simple>:
    4fe0:	e92d 47f0 	stmdb	sp!, {r4, r5, r6, r7, r8, r9, sl, lr}
    4fe4:	b082      	sub	sp, #8
    4fe6:	4606      	mov	r6, r0
    4fe8:	4668      	mov	r0, sp
    4fea:	f7ff ffeb 	bl	4fc4 <ada__exceptions__exception_name__2>
    4fee:	9f00      	ldr	r7, [sp, #0]
    4ff0:	9b01      	ldr	r3, [sp, #4]
    4ff2:	681d      	ldr	r5, [r3, #0]
    4ff4:	6858      	ldr	r0, [r3, #4]
    4ff6:	4285      	cmp	r5, r0
    4ff8:	dc19      	bgt.n	502e <ada__exceptions__exception_name_simple+0x4e>
    4ffa:	1b42      	subs	r2, r0, r5
    4ffc:	1c51      	adds	r1, r2, #1
    4ffe:	4688      	mov	r8, r1
    5000:	2901      	cmp	r1, #1
    5002:	dd11      	ble.n	5028 <ada__exceptions__exception_name_simple+0x48>
    5004:	1e4b      	subs	r3, r1, #1
    5006:	1b5b      	subs	r3, r3, r5
    5008:	5cfb      	ldrb	r3, [r7, r3]
    500a:	2b2e      	cmp	r3, #46	; 0x2e
    500c:	d00c      	beq.n	5028 <ada__exceptions__exception_name_simple+0x48>
    500e:	4613      	mov	r3, r2
    5010:	1b52      	subs	r2, r2, r5
    5012:	443a      	add	r2, r7
    5014:	e004      	b.n	5020 <ada__exceptions__exception_name_simple+0x40>
    5016:	f812 4d01 	ldrb.w	r4, [r2, #-1]!
    501a:	3b01      	subs	r3, #1
    501c:	2c2e      	cmp	r4, #46	; 0x2e
    501e:	d003      	beq.n	5028 <ada__exceptions__exception_name_simple+0x48>
    5020:	4619      	mov	r1, r3
    5022:	4698      	mov	r8, r3
    5024:	2b01      	cmp	r3, #1
    5026:	d1f6      	bne.n	5016 <ada__exceptions__exception_name_simple+0x36>
    5028:	1b40      	subs	r0, r0, r5
    502a:	1c44      	adds	r4, r0, #1
    502c:	e002      	b.n	5034 <ada__exceptions__exception_name_simple+0x54>
    502e:	2100      	movs	r1, #0
    5030:	4688      	mov	r8, r1
    5032:	460c      	mov	r4, r1
    5034:	1a61      	subs	r1, r4, r1
    5036:	1c4c      	adds	r4, r1, #1
    5038:	ea24 7ae4 	bic.w	sl, r4, r4, asr #31
    503c:	f10a 000b 	add.w	r0, sl, #11
    5040:	f020 0003 	bic.w	r0, r0, #3
    5044:	f7fd faac 	bl	25a0 <system__secondary_stack__ss_allocate>
    5048:	4681      	mov	r9, r0
    504a:	2301      	movs	r3, #1
    504c:	6003      	str	r3, [r0, #0]
    504e:	6044      	str	r4, [r0, #4]
    5050:	f100 0408 	add.w	r4, r0, #8
    5054:	ebc5 0108 	rsb	r1, r5, r8
    5058:	4620      	mov	r0, r4
    505a:	4439      	add	r1, r7
    505c:	4652      	mov	r2, sl
    505e:	f7fc ff41 	bl	1ee4 <memcpy>
    5062:	6034      	str	r4, [r6, #0]
    5064:	f8c6 9004 	str.w	r9, [r6, #4]
    5068:	4630      	mov	r0, r6
    506a:	b002      	add	sp, #8
    506c:	e8bd 87f0 	ldmia.w	sp!, {r4, r5, r6, r7, r8, r9, sl, pc}

00005070 <__gnat_get_exception_machine_occurrence>:
    5070:	6840      	ldr	r0, [r0, #4]
    5072:	4770      	bx	lr

00005074 <ada__exceptions__image>:
    5074:	e92d 41f0 	stmdb	sp!, {r4, r5, r6, r7, r8, lr}
    5078:	b084      	sub	sp, #16
    507a:	4605      	mov	r5, r0
    507c:	4608      	mov	r0, r1
    507e:	aa01      	add	r2, sp, #4
    5080:	f64c 5388 	movw	r3, #52616	; 0xcd88
    5084:	f2c0 0300 	movt	r3, #0
    5088:	f7fe feb0 	bl	3dec <system__img_int__image_integer>
    508c:	4606      	mov	r6, r0
    508e:	ea20 77e0 	bic.w	r7, r0, r0, asr #31
    5092:	f107 000b 	add.w	r0, r7, #11
    5096:	f020 0003 	bic.w	r0, r0, #3
    509a:	f7fd fa81 	bl	25a0 <system__secondary_stack__ss_allocate>
    509e:	4604      	mov	r4, r0
    50a0:	2301      	movs	r3, #1
    50a2:	6003      	str	r3, [r0, #0]
    50a4:	6046      	str	r6, [r0, #4]
    50a6:	f100 0808 	add.w	r8, r0, #8
    50aa:	4640      	mov	r0, r8
    50ac:	a901      	add	r1, sp, #4
    50ae:	463a      	mov	r2, r7
    50b0:	f7fc ff18 	bl	1ee4 <memcpy>
    50b4:	7a23      	ldrb	r3, [r4, #8]
    50b6:	2b20      	cmp	r3, #32
    50b8:	bf1c      	itt	ne
    50ba:	f8c5 8000 	strne.w	r8, [r5]
    50be:	606c      	strne	r4, [r5, #4]
    50c0:	d11a      	bne.n	50f8 <ada__exceptions__image+0x84>
    50c2:	46b0      	mov	r8, r6
    50c4:	2e01      	cmp	r6, #1
    50c6:	bfb8      	it	lt
    50c8:	f04f 0801 	movlt.w	r8, #1
    50cc:	f108 000a 	add.w	r0, r8, #10
    50d0:	f020 0003 	bic.w	r0, r0, #3
    50d4:	f7fd fa64 	bl	25a0 <system__secondary_stack__ss_allocate>
    50d8:	4607      	mov	r7, r0
    50da:	2302      	movs	r3, #2
    50dc:	6003      	str	r3, [r0, #0]
    50de:	6046      	str	r6, [r0, #4]
    50e0:	f100 0608 	add.w	r6, r0, #8
    50e4:	4630      	mov	r0, r6
    50e6:	f104 0109 	add.w	r1, r4, #9
    50ea:	f108 32ff 	add.w	r2, r8, #4294967295
    50ee:	f7fc fef9 	bl	1ee4 <memcpy>
    50f2:	602e      	str	r6, [r5, #0]
    50f4:	606f      	str	r7, [r5, #4]
    50f6:	e7ff      	b.n	50f8 <ada__exceptions__image+0x84>
    50f8:	4628      	mov	r0, r5
    50fa:	b004      	add	sp, #16
    50fc:	e8bd 81f0 	ldmia.w	sp!, {r4, r5, r6, r7, r8, pc}

00005100 <__gnat_raise_constraint_error>:
    5100:	b510      	push	{r4, lr}
    5102:	b082      	sub	sp, #8
    5104:	4604      	mov	r4, r0
    5106:	460a      	mov	r2, r1
    5108:	2300      	movs	r3, #0
    510a:	9300      	str	r3, [sp, #0]
    510c:	f240 101c 	movw	r0, #284	; 0x11c
    5110:	f6c0 0000 	movt	r0, #2048	; 0x800
    5114:	4621      	mov	r1, r4
    5116:	f000 f979 	bl	540c <ada__exceptions__raise_with_location_and_msg>
    511a:	bf00      	nop

0000511c <__gnat_raise_constraint_error_msg>:
    511c:	b570      	push	{r4, r5, r6, lr}
    511e:	b082      	sub	sp, #8
    5120:	4606      	mov	r6, r0
    5122:	460d      	mov	r5, r1
    5124:	4614      	mov	r4, r2
    5126:	9300      	str	r3, [sp, #0]
    5128:	f240 101c 	movw	r0, #284	; 0x11c
    512c:	f6c0 0000 	movt	r0, #2048	; 0x800
    5130:	4631      	mov	r1, r6
    5132:	462a      	mov	r2, r5
    5134:	4623      	mov	r3, r4
    5136:	f000 f969 	bl	540c <ada__exceptions__raise_with_location_and_msg>
    513a:	bf00      	nop

0000513c <ada__exceptions__complete_occurrence>:
    513c:	b510      	push	{r4, lr}
    513e:	4604      	mov	r4, r0
    5140:	f7ff fe84 	bl	4e4c <ada__exceptions__call_chain>
    5144:	6820      	ldr	r0, [r4, #0]
    5146:	f003 f97f 	bl	8448 <__gnat_debug_raise_exception>
    514a:	bd10      	pop	{r4, pc}

0000514c <ada__exceptions__complete_and_propagate_occurrence>:
    514c:	b510      	push	{r4, lr}
    514e:	4604      	mov	r4, r0
    5150:	f7ff fff4 	bl	513c <ada__exceptions__complete_occurrence>
    5154:	4620      	mov	r0, r4
    5156:	f7ff fbe5 	bl	4924 <ada__exceptions__exception_propagation__propagate_exceptionXn>
    515a:	bf00      	nop

0000515c <ada__exceptions__raise_exception>:
    515c:	b508      	push	{r3, lr}
    515e:	f240 111c 	movw	r1, #284	; 0x11c
    5162:	f6c0 0100 	movt	r1, #2048	; 0x800
    5166:	2800      	cmp	r0, #0
    5168:	bf08      	it	eq
    516a:	4608      	moveq	r0, r1
    516c:	f000 f800 	bl	5170 <__gnat_raise_exception>

00005170 <__gnat_raise_exception>:
    5170:	b5f8      	push	{r3, r4, r5, r6, r7, lr}
    5172:	4605      	mov	r5, r0
    5174:	4616      	mov	r6, r2
    5176:	461f      	mov	r7, r3
    5178:	f7ff fb6c 	bl	4854 <ada__exceptions__exception_propagation__allocate_occurrenceXn>
    517c:	4604      	mov	r4, r0
    517e:	4629      	mov	r1, r5
    5180:	4632      	mov	r2, r6
    5182:	463b      	mov	r3, r7
    5184:	f7ff fb1a 	bl	47bc <ada__exceptions__exception_data__set_exception_msgXn>
    5188:	4620      	mov	r0, r4
    518a:	f7ff ffdf 	bl	514c <ada__exceptions__complete_and_propagate_occurrence>
    518e:	bf00      	nop

00005190 <ada__exceptions__raise_exception_no_defer>:
    5190:	b5f8      	push	{r3, r4, r5, r6, r7, lr}
    5192:	4605      	mov	r5, r0
    5194:	4616      	mov	r6, r2
    5196:	461f      	mov	r7, r3
    5198:	f7ff fb5c 	bl	4854 <ada__exceptions__exception_propagation__allocate_occurrenceXn>
    519c:	4604      	mov	r4, r0
    519e:	4629      	mov	r1, r5
    51a0:	4632      	mov	r2, r6
    51a2:	463b      	mov	r3, r7
    51a4:	f7ff fb0a 	bl	47bc <ada__exceptions__exception_data__set_exception_msgXn>
    51a8:	4620      	mov	r0, r4
    51aa:	f7ff ffcf 	bl	514c <ada__exceptions__complete_and_propagate_occurrence>
    51ae:	bf00      	nop

000051b0 <ada__exceptions__raise_from_controlled_operation___finalizer.5863>:
    51b0:	b508      	push	{r3, lr}
    51b2:	f8dc 0004 	ldr.w	r0, [ip, #4]
    51b6:	f7fd fa17 	bl	25e8 <system__secondary_stack__ss_release>
    51ba:	bd08      	pop	{r3, pc}

000051bc <__gnat_raise_from_controlled_operation>:
    51bc:	e92d 4ff0 	stmdb	sp!, {r4, r5, r6, r7, r8, r9, sl, fp, lr}
    51c0:	b08d      	sub	sp, #52	; 0x34
    51c2:	af00      	add	r7, sp, #0
    51c4:	4604      	mov	r4, r0
    51c6:	f7fd fa09 	bl	25dc <system__secondary_stack__ss_mark>
    51ca:	62f8      	str	r0, [r7, #44]	; 0x2c
    51cc:	f107 0008 	add.w	r0, r7, #8
    51d0:	4621      	mov	r1, r4
    51d2:	f7ff fea5 	bl	4f20 <ada__exceptions__exception_message>
    51d6:	f8d7 b008 	ldr.w	fp, [r7, #8]
    51da:	68fb      	ldr	r3, [r7, #12]
    51dc:	f8d3 8000 	ldr.w	r8, [r3]
    51e0:	685e      	ldr	r6, [r3, #4]
    51e2:	45b0      	cmp	r8, r6
    51e4:	bfc8      	it	gt
    51e6:	2300      	movgt	r3, #0
    51e8:	dc06      	bgt.n	51f8 <__gnat_raise_from_controlled_operation+0x3c>
    51ea:	ebc8 0306 	rsb	r3, r8, r6
    51ee:	3301      	adds	r3, #1
    51f0:	2b17      	cmp	r3, #23
    51f2:	bfa8      	it	ge
    51f4:	2317      	movge	r3, #23
    51f6:	e7ff      	b.n	51f8 <__gnat_raise_from_controlled_operation+0x3c>
    51f8:	4443      	add	r3, r8
    51fa:	3b17      	subs	r3, #23
    51fc:	4543      	cmp	r3, r8
    51fe:	d114      	bne.n	522a <__gnat_raise_from_controlled_operation+0x6e>
    5200:	4658      	mov	r0, fp
    5202:	f64c 5190 	movw	r1, #52624	; 0xcd90
    5206:	f2c0 0100 	movt	r1, #0
    520a:	2217      	movs	r2, #23
    520c:	f7fe f8e0 	bl	33d0 <memcmp>
    5210:	b958      	cbnz	r0, 522a <__gnat_raise_from_controlled_operation+0x6e>
    5212:	f8c7 8010 	str.w	r8, [r7, #16]
    5216:	617e      	str	r6, [r7, #20]
    5218:	f240 1000 	movw	r0, #256	; 0x100
    521c:	f6c0 0000 	movt	r0, #2048	; 0x800
    5220:	465a      	mov	r2, fp
    5222:	f107 0310 	add.w	r3, r7, #16
    5226:	f7ff ffb3 	bl	5190 <ada__exceptions__raise_exception_no_defer>
    522a:	f7fd f9d7 	bl	25dc <system__secondary_stack__ss_mark>
    522e:	62b8      	str	r0, [r7, #40]	; 0x28
    5230:	f8c7 d004 	str.w	sp, [r7, #4]
    5234:	f107 0008 	add.w	r0, r7, #8
    5238:	4621      	mov	r1, r4
    523a:	f7ff fec3 	bl	4fc4 <ada__exceptions__exception_name__2>
    523e:	f8d7 c008 	ldr.w	ip, [r7, #8]
    5242:	68fa      	ldr	r2, [r7, #12]
    5244:	6853      	ldr	r3, [r2, #4]
    5246:	6815      	ldr	r5, [r2, #0]
    5248:	42ab      	cmp	r3, r5
    524a:	bfa6      	itte	ge
    524c:	1b5d      	subge	r5, r3, r5
    524e:	3501      	addge	r5, #1
    5250:	2500      	movlt	r5, #0
    5252:	3517      	adds	r5, #23
    5254:	ea25 79e5 	bic.w	r9, r5, r5, asr #31
    5258:	f109 0307 	add.w	r3, r9, #7
    525c:	f023 0307 	bic.w	r3, r3, #7
    5260:	ebad 0d03 	sub.w	sp, sp, r3
    5264:	46ea      	mov	sl, sp
    5266:	f64c 5490 	movw	r4, #52624	; 0xcd90
    526a:	f2c0 0400 	movt	r4, #0
    526e:	cc0f      	ldmia	r4!, {r0, r1, r2, r3}
    5270:	9000      	str	r0, [sp, #0]
    5272:	9101      	str	r1, [sp, #4]
    5274:	9202      	str	r2, [sp, #8]
    5276:	9303      	str	r3, [sp, #12]
    5278:	6820      	ldr	r0, [r4, #0]
    527a:	9004      	str	r0, [sp, #16]
    527c:	88a2      	ldrh	r2, [r4, #4]
    527e:	79a3      	ldrb	r3, [r4, #6]
    5280:	f8ad 2014 	strh.w	r2, [sp, #20]
    5284:	f88d 3016 	strb.w	r3, [sp, #22]
    5288:	462a      	mov	r2, r5
    528a:	2d17      	cmp	r5, #23
    528c:	bfb8      	it	lt
    528e:	2217      	movlt	r2, #23
    5290:	f10d 0017 	add.w	r0, sp, #23
    5294:	4661      	mov	r1, ip
    5296:	3a17      	subs	r2, #23
    5298:	f7fc fe24 	bl	1ee4 <memcpy>
    529c:	45b0      	cmp	r8, r6
    529e:	dd0b      	ble.n	52b8 <__gnat_raise_from_controlled_operation+0xfc>
    52a0:	2301      	movs	r3, #1
    52a2:	61bb      	str	r3, [r7, #24]
    52a4:	61fd      	str	r5, [r7, #28]
    52a6:	f240 1000 	movw	r0, #256	; 0x100
    52aa:	f6c0 0000 	movt	r0, #2048	; 0x800
    52ae:	466a      	mov	r2, sp
    52b0:	f107 0318 	add.w	r3, r7, #24
    52b4:	f7ff ff6c 	bl	5190 <ada__exceptions__raise_exception_no_defer>
    52b8:	f8c7 d000 	str.w	sp, [r7]
    52bc:	ebc8 0606 	rsb	r6, r8, r6
    52c0:	3601      	adds	r6, #1
    52c2:	f109 0402 	add.w	r4, r9, #2
    52c6:	4434      	add	r4, r6
    52c8:	ea24 73e4 	bic.w	r3, r4, r4, asr #31
    52cc:	3307      	adds	r3, #7
    52ce:	f023 0307 	bic.w	r3, r3, #7
    52d2:	ebad 0d03 	sub.w	sp, sp, r3
    52d6:	4668      	mov	r0, sp
    52d8:	4651      	mov	r1, sl
    52da:	ea29 72e9 	bic.w	r2, r9, r9, asr #31
    52de:	f7fc fe01 	bl	1ee4 <memcpy>
    52e2:	f64c 53a8 	movw	r3, #52648	; 0xcda8
    52e6:	f2c0 0300 	movt	r3, #0
    52ea:	881b      	ldrh	r3, [r3, #0]
    52ec:	f82d 3009 	strh.w	r3, [sp, r9]
    52f0:	f109 0203 	add.w	r2, r9, #3
    52f4:	f109 0002 	add.w	r0, r9, #2
    52f8:	4468      	add	r0, sp
    52fa:	4659      	mov	r1, fp
    52fc:	4294      	cmp	r4, r2
    52fe:	bfac      	ite	ge
    5300:	4632      	movge	r2, r6
    5302:	2200      	movlt	r2, #0
    5304:	f7fc fdee 	bl	1ee4 <memcpy>
    5308:	2301      	movs	r3, #1
    530a:	623b      	str	r3, [r7, #32]
    530c:	627c      	str	r4, [r7, #36]	; 0x24
    530e:	f240 1000 	movw	r0, #256	; 0x100
    5312:	f6c0 0000 	movt	r0, #2048	; 0x800
    5316:	466a      	mov	r2, sp
    5318:	f107 0320 	add.w	r3, r7, #32
    531c:	f7ff ff38 	bl	5190 <ada__exceptions__raise_exception_no_defer>
    5320:	f8d7 d000 	ldr.w	sp, [r7]
    5324:	4604      	mov	r4, r0
    5326:	e000      	b.n	532a <__gnat_raise_from_controlled_operation+0x16e>
    5328:	4604      	mov	r4, r0
    532a:	f107 0c28 	add.w	ip, r7, #40	; 0x28
    532e:	f000 f80f 	bl	5350 <ada__exceptions__raise_from_controlled_operation__B_3___finalizer.5898>
    5332:	4620      	mov	r0, r4
    5334:	e7ff      	b.n	5336 <__gnat_raise_from_controlled_operation+0x17a>
    5336:	f8d7 d004 	ldr.w	sp, [r7, #4]
    533a:	4604      	mov	r4, r0
    533c:	e000      	b.n	5340 <__gnat_raise_from_controlled_operation+0x184>
    533e:	4604      	mov	r4, r0
    5340:	f107 0c28 	add.w	ip, r7, #40	; 0x28
    5344:	f7ff ff34 	bl	51b0 <ada__exceptions__raise_from_controlled_operation___finalizer.5863>
    5348:	4620      	mov	r0, r4
    534a:	f004 ff51 	bl	a1f0 <_Unwind_Resume>
    534e:	bf00      	nop

00005350 <ada__exceptions__raise_from_controlled_operation__B_3___finalizer.5898>:
    5350:	b508      	push	{r3, lr}
    5352:	f8dc 0000 	ldr.w	r0, [ip]
    5356:	f7fd f947 	bl	25e8 <system__secondary_stack__ss_release>
    535a:	bd08      	pop	{r3, pc}

0000535c <ada__exceptions__create_occurrence_from_signal_handler>:
    535c:	b570      	push	{r4, r5, r6, lr}
    535e:	b082      	sub	sp, #8
    5360:	4606      	mov	r6, r0
    5362:	460d      	mov	r5, r1
    5364:	f7ff fa76 	bl	4854 <ada__exceptions__exception_propagation__allocate_occurrenceXn>
    5368:	4604      	mov	r4, r0
    536a:	2300      	movs	r3, #0
    536c:	9300      	str	r3, [sp, #0]
    536e:	9301      	str	r3, [sp, #4]
    5370:	4631      	mov	r1, r6
    5372:	462a      	mov	r2, r5
    5374:	f7ff f9d6 	bl	4724 <ada__exceptions__exception_data__set_exception_c_msgXn>
    5378:	4620      	mov	r0, r4
    537a:	f7ff fedf 	bl	513c <ada__exceptions__complete_occurrence>
    537e:	4620      	mov	r0, r4
    5380:	b002      	add	sp, #8
    5382:	bd70      	pop	{r4, r5, r6, pc}

00005384 <__gnat_create_machine_occurrence_from_signal_handler>:
    5384:	b508      	push	{r3, lr}
    5386:	f7ff ffe9 	bl	535c <ada__exceptions__create_occurrence_from_signal_handler>
    538a:	6840      	ldr	r0, [r0, #4]
    538c:	bd08      	pop	{r3, pc}
    538e:	bf00      	nop

00005390 <ada__exceptions__raise_from_signal_handler>:
    5390:	b508      	push	{r3, lr}
    5392:	f7ff ffe3 	bl	535c <ada__exceptions__create_occurrence_from_signal_handler>
    5396:	f7ff fac5 	bl	4924 <ada__exceptions__exception_propagation__propagate_exceptionXn>
    539a:	bf00      	nop

0000539c <__gnat_raise_program_error>:
    539c:	b510      	push	{r4, lr}
    539e:	b082      	sub	sp, #8
    53a0:	4604      	mov	r4, r0
    53a2:	460a      	mov	r2, r1
    53a4:	2300      	movs	r3, #0
    53a6:	9300      	str	r3, [sp, #0]
    53a8:	f240 1000 	movw	r0, #256	; 0x100
    53ac:	f6c0 0000 	movt	r0, #2048	; 0x800
    53b0:	4621      	mov	r1, r4
    53b2:	f000 f82b 	bl	540c <ada__exceptions__raise_with_location_and_msg>
    53b6:	bf00      	nop

000053b8 <__gnat_raise_program_error_msg>:
    53b8:	b510      	push	{r4, lr}
    53ba:	b082      	sub	sp, #8
    53bc:	4604      	mov	r4, r0
    53be:	460b      	mov	r3, r1
    53c0:	9200      	str	r2, [sp, #0]
    53c2:	f240 1000 	movw	r0, #256	; 0x100
    53c6:	f6c0 0000 	movt	r0, #2048	; 0x800
    53ca:	4621      	mov	r1, r4
    53cc:	461a      	mov	r2, r3
    53ce:	2300      	movs	r3, #0
    53d0:	f000 f81c 	bl	540c <ada__exceptions__raise_with_location_and_msg>

000053d4 <__gnat_raise_storage_error>:
    53d4:	b510      	push	{r4, lr}
    53d6:	b082      	sub	sp, #8
    53d8:	4604      	mov	r4, r0
    53da:	460a      	mov	r2, r1
    53dc:	2300      	movs	r3, #0
    53de:	9300      	str	r3, [sp, #0]
    53e0:	f240 00b0 	movw	r0, #176	; 0xb0
    53e4:	f6c0 0000 	movt	r0, #2048	; 0x800
    53e8:	4621      	mov	r1, r4
    53ea:	f000 f80f 	bl	540c <ada__exceptions__raise_with_location_and_msg>
    53ee:	bf00      	nop

000053f0 <__gnat_raise_storage_error_msg>:
    53f0:	b510      	push	{r4, lr}
    53f2:	b082      	sub	sp, #8
    53f4:	4604      	mov	r4, r0
    53f6:	460b      	mov	r3, r1
    53f8:	9200      	str	r2, [sp, #0]
    53fa:	f240 00b0 	movw	r0, #176	; 0xb0
    53fe:	f6c0 0000 	movt	r0, #2048	; 0x800
    5402:	4621      	mov	r1, r4
    5404:	461a      	mov	r2, r3
    5406:	2300      	movs	r3, #0
    5408:	f000 f800 	bl	540c <ada__exceptions__raise_with_location_and_msg>

0000540c <ada__exceptions__raise_with_location_and_msg>:
    540c:	e92d 41f0 	stmdb	sp!, {r4, r5, r6, r7, r8, lr}
    5410:	b082      	sub	sp, #8
    5412:	4607      	mov	r7, r0
    5414:	460e      	mov	r6, r1
    5416:	4615      	mov	r5, r2
    5418:	4698      	mov	r8, r3
    541a:	f7ff fa1b 	bl	4854 <ada__exceptions__exception_propagation__allocate_occurrenceXn>
    541e:	4604      	mov	r4, r0
    5420:	f8cd 8000 	str.w	r8, [sp]
    5424:	9b08      	ldr	r3, [sp, #32]
    5426:	9301      	str	r3, [sp, #4]
    5428:	4639      	mov	r1, r7
    542a:	4632      	mov	r2, r6
    542c:	462b      	mov	r3, r5
    542e:	f7ff f979 	bl	4724 <ada__exceptions__exception_data__set_exception_c_msgXn>
    5432:	4620      	mov	r0, r4
    5434:	f7ff fe8a 	bl	514c <ada__exceptions__complete_and_propagate_occurrence>

00005438 <__gnat_raise_with_msg>:
    5438:	b538      	push	{r3, r4, r5, lr}
    543a:	4605      	mov	r5, r0
    543c:	f7ff fa0a 	bl	4854 <ada__exceptions__exception_propagation__allocate_occurrenceXn>
    5440:	4604      	mov	r4, r0
    5442:	f7fc ff5d 	bl	2300 <system__soft_links__get_current_excep_soft>
    5446:	4601      	mov	r1, r0
    5448:	2300      	movs	r3, #0
    544a:	f884 30d4 	strb.w	r3, [r4, #212]	; 0xd4
    544e:	6025      	str	r5, [r4, #0]
    5450:	f8c4 30dc 	str.w	r3, [r4, #220]	; 0xdc
    5454:	f240 1318 	movw	r3, #280	; 0x118
    5458:	f6c0 0300 	movt	r3, #2048	; 0x800
    545c:	681b      	ldr	r3, [r3, #0]
    545e:	f8c4 30d8 	str.w	r3, [r4, #216]	; 0xd8
    5462:	6882      	ldr	r2, [r0, #8]
    5464:	60a2      	str	r2, [r4, #8]
    5466:	f104 000c 	add.w	r0, r4, #12
    546a:	310c      	adds	r1, #12
    546c:	ea22 72e2 	bic.w	r2, r2, r2, asr #31
    5470:	f002 fd7c 	bl	7f6c <memmove>
    5474:	4620      	mov	r0, r4
    5476:	f7ff fe69 	bl	514c <ada__exceptions__complete_and_propagate_occurrence>
    547a:	bf00      	nop

0000547c <__gnat_rcheck_CE_Access_Check>:
    547c:	b508      	push	{r3, lr}
    547e:	2200      	movs	r2, #0
    5480:	f24c 63d4 	movw	r3, #50900	; 0xc6d4
    5484:	f2c0 0300 	movt	r3, #0
    5488:	f7ff fe48 	bl	511c <__gnat_raise_constraint_error_msg>

0000548c <__gnat_rcheck_CE_Null_Access_Parameter>:
    548c:	b508      	push	{r3, lr}
    548e:	2200      	movs	r2, #0
    5490:	f24c 63e8 	movw	r3, #50920	; 0xc6e8
    5494:	f2c0 0300 	movt	r3, #0
    5498:	f7ff fe40 	bl	511c <__gnat_raise_constraint_error_msg>

0000549c <__gnat_rcheck_CE_Discriminant_Check>:
    549c:	b508      	push	{r3, lr}
    549e:	2200      	movs	r2, #0
    54a0:	f24c 7304 	movw	r3, #50948	; 0xc704
    54a4:	f2c0 0300 	movt	r3, #0
    54a8:	f7ff fe38 	bl	511c <__gnat_raise_constraint_error_msg>

000054ac <__gnat_rcheck_CE_Divide_By_Zero>:
    54ac:	b508      	push	{r3, lr}
    54ae:	2200      	movs	r2, #0
    54b0:	f24c 7320 	movw	r3, #50976	; 0xc720
    54b4:	f2c0 0300 	movt	r3, #0
    54b8:	f7ff fe30 	bl	511c <__gnat_raise_constraint_error_msg>

000054bc <__gnat_rcheck_CE_Explicit_Raise>:
    54bc:	b508      	push	{r3, lr}
    54be:	2200      	movs	r2, #0
    54c0:	f24c 7330 	movw	r3, #50992	; 0xc730
    54c4:	f2c0 0300 	movt	r3, #0
    54c8:	f7ff fe28 	bl	511c <__gnat_raise_constraint_error_msg>

000054cc <__gnat_rcheck_CE_Index_Check>:
    54cc:	b508      	push	{r3, lr}
    54ce:	2200      	movs	r2, #0
    54d0:	f24c 7340 	movw	r3, #51008	; 0xc740
    54d4:	f2c0 0300 	movt	r3, #0
    54d8:	f7ff fe20 	bl	511c <__gnat_raise_constraint_error_msg>

000054dc <__gnat_rcheck_CE_Invalid_Data>:
    54dc:	b508      	push	{r3, lr}
    54de:	2200      	movs	r2, #0
    54e0:	f24c 7354 	movw	r3, #51028	; 0xc754
    54e4:	f2c0 0300 	movt	r3, #0
    54e8:	f7ff fe18 	bl	511c <__gnat_raise_constraint_error_msg>

000054ec <__gnat_rcheck_CE_Length_Check>:
    54ec:	b508      	push	{r3, lr}
    54ee:	2200      	movs	r2, #0
    54f0:	f24c 7364 	movw	r3, #51044	; 0xc764
    54f4:	f2c0 0300 	movt	r3, #0
    54f8:	f7ff fe10 	bl	511c <__gnat_raise_constraint_error_msg>

000054fc <__gnat_rcheck_CE_Null_Exception_Id>:
    54fc:	b508      	push	{r3, lr}
    54fe:	2200      	movs	r2, #0
    5500:	f24c 7378 	movw	r3, #51064	; 0xc778
    5504:	f2c0 0300 	movt	r3, #0
    5508:	f7ff fe08 	bl	511c <__gnat_raise_constraint_error_msg>

0000550c <__gnat_rcheck_CE_Null_Not_Allowed>:
    550c:	b508      	push	{r3, lr}
    550e:	2200      	movs	r2, #0
    5510:	f24c 738c 	movw	r3, #51084	; 0xc78c
    5514:	f2c0 0300 	movt	r3, #0
    5518:	f7ff fe00 	bl	511c <__gnat_raise_constraint_error_msg>

0000551c <__gnat_rcheck_CE_Overflow_Check>:
    551c:	b508      	push	{r3, lr}
    551e:	2200      	movs	r2, #0
    5520:	f24c 73a8 	movw	r3, #51112	; 0xc7a8
    5524:	f2c0 0300 	movt	r3, #0
    5528:	f7ff fdf8 	bl	511c <__gnat_raise_constraint_error_msg>

0000552c <__gnat_rcheck_CE_Partition_Check>:
    552c:	b508      	push	{r3, lr}
    552e:	2200      	movs	r2, #0
    5530:	f24c 73c0 	movw	r3, #51136	; 0xc7c0
    5534:	f2c0 0300 	movt	r3, #0
    5538:	f7ff fdf0 	bl	511c <__gnat_raise_constraint_error_msg>

0000553c <__gnat_rcheck_CE_Range_Check>:
    553c:	b508      	push	{r3, lr}
    553e:	2200      	movs	r2, #0
    5540:	f24c 73d8 	movw	r3, #51160	; 0xc7d8
    5544:	f2c0 0300 	movt	r3, #0
    5548:	f7ff fde8 	bl	511c <__gnat_raise_constraint_error_msg>

0000554c <__gnat_rcheck_CE_Tag_Check>:
    554c:	b508      	push	{r3, lr}
    554e:	2200      	movs	r2, #0
    5550:	f24c 73ec 	movw	r3, #51180	; 0xc7ec
    5554:	f2c0 0300 	movt	r3, #0
    5558:	f7ff fde0 	bl	511c <__gnat_raise_constraint_error_msg>

0000555c <__gnat_rcheck_PE_Access_Before_Elaboration>:
    555c:	b508      	push	{r3, lr}
    555e:	f64c 0200 	movw	r2, #51200	; 0xc800
    5562:	f2c0 0200 	movt	r2, #0
    5566:	f7ff ff27 	bl	53b8 <__gnat_raise_program_error_msg>
    556a:	bf00      	nop

0000556c <__gnat_rcheck_PE_Accessibility_Check>:
    556c:	b508      	push	{r3, lr}
    556e:	f64c 021c 	movw	r2, #51228	; 0xc81c
    5572:	f2c0 0200 	movt	r2, #0
    5576:	f7ff ff1f 	bl	53b8 <__gnat_raise_program_error_msg>
    557a:	bf00      	nop

0000557c <__gnat_rcheck_PE_Address_Of_Intrinsic>:
    557c:	b508      	push	{r3, lr}
    557e:	f64c 0238 	movw	r2, #51256	; 0xc838
    5582:	f2c0 0200 	movt	r2, #0
    5586:	f7ff ff17 	bl	53b8 <__gnat_raise_program_error_msg>
    558a:	bf00      	nop

0000558c <__gnat_rcheck_PE_Aliased_Parameters>:
    558c:	b508      	push	{r3, lr}
    558e:	f64c 0268 	movw	r2, #51304	; 0xc868
    5592:	f2c0 0200 	movt	r2, #0
    5596:	f7ff ff0f 	bl	53b8 <__gnat_raise_program_error_msg>
    559a:	bf00      	nop

0000559c <__gnat_rcheck_PE_All_Guards_Closed>:
    559c:	b508      	push	{r3, lr}
    559e:	f64c 027c 	movw	r2, #51324	; 0xc87c
    55a2:	f2c0 0200 	movt	r2, #0
    55a6:	f7ff ff07 	bl	53b8 <__gnat_raise_program_error_msg>
    55aa:	bf00      	nop

000055ac <__gnat_rcheck_PE_Bad_Predicated_Generic_Type>:
    55ac:	b508      	push	{r3, lr}
    55ae:	f64c 0290 	movw	r2, #51344	; 0xc890
    55b2:	f2c0 0200 	movt	r2, #0
    55b6:	f7ff feff 	bl	53b8 <__gnat_raise_program_error_msg>
    55ba:	bf00      	nop

000055bc <__gnat_rcheck_PE_Current_Task_In_Entry_Body>:
    55bc:	b508      	push	{r3, lr}
    55be:	f64c 02c0 	movw	r2, #51392	; 0xc8c0
    55c2:	f2c0 0200 	movt	r2, #0
    55c6:	f7ff fef7 	bl	53b8 <__gnat_raise_program_error_msg>
    55ca:	bf00      	nop

000055cc <__gnat_rcheck_PE_Duplicated_Entry_Address>:
    55cc:	b508      	push	{r3, lr}
    55ce:	f64c 02e8 	movw	r2, #51432	; 0xc8e8
    55d2:	f2c0 0200 	movt	r2, #0
    55d6:	f7ff feef 	bl	53b8 <__gnat_raise_program_error_msg>
    55da:	bf00      	nop

000055dc <__gnat_rcheck_PE_Explicit_Raise>:
    55dc:	b508      	push	{r3, lr}
    55de:	f64c 1204 	movw	r2, #51460	; 0xc904
    55e2:	f2c0 0200 	movt	r2, #0
    55e6:	f7ff fee7 	bl	53b8 <__gnat_raise_program_error_msg>
    55ea:	bf00      	nop

000055ec <__gnat_rcheck_PE_Implicit_Return>:
    55ec:	b508      	push	{r3, lr}
    55ee:	f64c 1238 	movw	r2, #51512	; 0xc938
    55f2:	f2c0 0200 	movt	r2, #0
    55f6:	f7ff fedf 	bl	53b8 <__gnat_raise_program_error_msg>
    55fa:	bf00      	nop

000055fc <__gnat_rcheck_PE_Misaligned_Address_Value>:
    55fc:	b508      	push	{r3, lr}
    55fe:	f64c 1258 	movw	r2, #51544	; 0xc958
    5602:	f2c0 0200 	movt	r2, #0
    5606:	f7ff fed7 	bl	53b8 <__gnat_raise_program_error_msg>
    560a:	bf00      	nop

0000560c <__gnat_rcheck_PE_Missing_Return>:
    560c:	b508      	push	{r3, lr}
    560e:	f64c 1274 	movw	r2, #51572	; 0xc974
    5612:	f2c0 0200 	movt	r2, #0
    5616:	f7ff fecf 	bl	53b8 <__gnat_raise_program_error_msg>
    561a:	bf00      	nop

0000561c <__gnat_rcheck_PE_Non_Transportable_Actual>:
    561c:	b508      	push	{r3, lr}
    561e:	f64c 12f8 	movw	r2, #51704	; 0xc9f8
    5622:	f2c0 0200 	movt	r2, #0
    5626:	f7ff fec7 	bl	53b8 <__gnat_raise_program_error_msg>
    562a:	bf00      	nop

0000562c <__gnat_rcheck_PE_Overlaid_Controlled_Object>:
    562c:	b508      	push	{r3, lr}
    562e:	f64c 1284 	movw	r2, #51588	; 0xc984
    5632:	f2c0 0200 	movt	r2, #0
    5636:	f7ff febf 	bl	53b8 <__gnat_raise_program_error_msg>
    563a:	bf00      	nop

0000563c <__gnat_rcheck_PE_Potentially_Blocking_Operation>:
    563c:	b508      	push	{r3, lr}
    563e:	f64c 12a0 	movw	r2, #51616	; 0xc9a0
    5642:	f2c0 0200 	movt	r2, #0
    5646:	f7ff feb7 	bl	53b8 <__gnat_raise_program_error_msg>
    564a:	bf00      	nop

0000564c <__gnat_rcheck_PE_Stream_Operation_Not_Allowed>:
    564c:	b508      	push	{r3, lr}
    564e:	f64c 2278 	movw	r2, #51832	; 0xca78
    5652:	f2c0 0200 	movt	r2, #0
    5656:	f7ff feaf 	bl	53b8 <__gnat_raise_program_error_msg>
    565a:	bf00      	nop

0000565c <__gnat_rcheck_PE_Stubbed_Subprogram_Called>:
    565c:	b508      	push	{r3, lr}
    565e:	f64c 12c0 	movw	r2, #51648	; 0xc9c0
    5662:	f2c0 0200 	movt	r2, #0
    5666:	f7ff fea7 	bl	53b8 <__gnat_raise_program_error_msg>
    566a:	bf00      	nop

0000566c <__gnat_rcheck_PE_Unchecked_Union_Restriction>:
    566c:	b508      	push	{r3, lr}
    566e:	f64c 12dc 	movw	r2, #51676	; 0xc9dc
    5672:	f2c0 0200 	movt	r2, #0
    5676:	f7ff fe9f 	bl	53b8 <__gnat_raise_program_error_msg>
    567a:	bf00      	nop

0000567c <__gnat_rcheck_SE_Empty_Storage_Pool>:
    567c:	b508      	push	{r3, lr}
    567e:	f64c 222c 	movw	r2, #51756	; 0xca2c
    5682:	f2c0 0200 	movt	r2, #0
    5686:	f7ff feb3 	bl	53f0 <__gnat_raise_storage_error_msg>
    568a:	bf00      	nop

0000568c <__gnat_rcheck_SE_Explicit_Raise>:
    568c:	b508      	push	{r3, lr}
    568e:	f64c 2240 	movw	r2, #51776	; 0xca40
    5692:	f2c0 0200 	movt	r2, #0
    5696:	f7ff feab 	bl	53f0 <__gnat_raise_storage_error_msg>
    569a:	bf00      	nop

0000569c <__gnat_rcheck_SE_Infinite_Recursion>:
    569c:	b508      	push	{r3, lr}
    569e:	f64c 2250 	movw	r2, #51792	; 0xca50
    56a2:	f2c0 0200 	movt	r2, #0
    56a6:	f7ff fea3 	bl	53f0 <__gnat_raise_storage_error_msg>
    56aa:	bf00      	nop

000056ac <__gnat_rcheck_SE_Object_Too_Large>:
    56ac:	b508      	push	{r3, lr}
    56ae:	f64c 2264 	movw	r2, #51812	; 0xca64
    56b2:	f2c0 0200 	movt	r2, #0
    56b6:	f7ff fe9b 	bl	53f0 <__gnat_raise_storage_error_msg>
    56ba:	bf00      	nop

000056bc <__gnat_rcheck_CE_Access_Check_ext>:
    56bc:	b508      	push	{r3, lr}
    56be:	f24c 63d4 	movw	r3, #50900	; 0xc6d4
    56c2:	f2c0 0300 	movt	r3, #0
    56c6:	f7ff fd29 	bl	511c <__gnat_raise_constraint_error_msg>
    56ca:	bf00      	nop

000056cc <ada__exceptions__rcheck_ce_index_check_ext___finalizer.5970>:
    56cc:	b508      	push	{r3, lr}
    56ce:	f8dc 0000 	ldr.w	r0, [ip]
    56d2:	f7fc ff89 	bl	25e8 <system__secondary_stack__ss_release>
    56d6:	bd08      	pop	{r3, pc}

000056d8 <__gnat_rcheck_CE_Index_Check_ext>:
    56d8:	e92d 4ff0 	stmdb	sp!, {r4, r5, r6, r7, r8, r9, sl, fp, lr}
    56dc:	b08b      	sub	sp, #44	; 0x2c
    56de:	af00      	add	r7, sp, #0
    56e0:	6178      	str	r0, [r7, #20]
    56e2:	6139      	str	r1, [r7, #16]
    56e4:	60fa      	str	r2, [r7, #12]
    56e6:	461c      	mov	r4, r3
    56e8:	f7fc ff78 	bl	25dc <system__secondary_stack__ss_mark>
    56ec:	6278      	str	r0, [r7, #36]	; 0x24
    56ee:	f107 0018 	add.w	r0, r7, #24
    56f2:	4621      	mov	r1, r4
    56f4:	f7ff fcbe 	bl	5074 <ada__exceptions__image>
    56f8:	69bb      	ldr	r3, [r7, #24]
    56fa:	603b      	str	r3, [r7, #0]
    56fc:	69fe      	ldr	r6, [r7, #28]
    56fe:	f107 0018 	add.w	r0, r7, #24
    5702:	6d39      	ldr	r1, [r7, #80]	; 0x50
    5704:	f7ff fcb6 	bl	5074 <ada__exceptions__image>
    5708:	69bb      	ldr	r3, [r7, #24]
    570a:	607b      	str	r3, [r7, #4]
    570c:	69fd      	ldr	r5, [r7, #28]
    570e:	f107 0018 	add.w	r0, r7, #24
    5712:	6d79      	ldr	r1, [r7, #84]	; 0x54
    5714:	f7ff fcae 	bl	5074 <ada__exceptions__image>
    5718:	69bb      	ldr	r3, [r7, #24]
    571a:	60bb      	str	r3, [r7, #8]
    571c:	69f9      	ldr	r1, [r7, #28]
    571e:	6873      	ldr	r3, [r6, #4]
    5720:	6834      	ldr	r4, [r6, #0]
    5722:	42a3      	cmp	r3, r4
    5724:	bfa6      	itte	ge
    5726:	1b1c      	subge	r4, r3, r4
    5728:	3401      	addge	r4, #1
    572a:	2400      	movlt	r4, #0
    572c:	f104 0b19 	add.w	fp, r4, #25
    5730:	f104 0621 	add.w	r6, r4, #33	; 0x21
    5734:	686b      	ldr	r3, [r5, #4]
    5736:	6828      	ldr	r0, [r5, #0]
    5738:	4283      	cmp	r3, r0
    573a:	bfa6      	itte	ge
    573c:	ebc0 0903 	rsbge	r9, r0, r3
    5740:	f109 0901 	addge.w	r9, r9, #1
    5744:	f04f 0900 	movlt.w	r9, #0
    5748:	444e      	add	r6, r9
    574a:	f106 0a02 	add.w	sl, r6, #2
    574e:	684b      	ldr	r3, [r1, #4]
    5750:	680a      	ldr	r2, [r1, #0]
    5752:	4293      	cmp	r3, r2
    5754:	bfa6      	itte	ge
    5756:	ebc2 0803 	rsbge	r8, r2, r3
    575a:	f108 0801 	addge.w	r8, r8, #1
    575e:	f04f 0800 	movlt.w	r8, #0
    5762:	44c2      	add	sl, r8
    5764:	f10a 0301 	add.w	r3, sl, #1
    5768:	ea23 73e3 	bic.w	r3, r3, r3, asr #31
    576c:	3307      	adds	r3, #7
    576e:	f023 0307 	bic.w	r3, r3, #7
    5772:	ebad 0d03 	sub.w	sp, sp, r3
    5776:	466d      	mov	r5, sp
    5778:	f64c 5ef4 	movw	lr, #52724	; 0xcdf4
    577c:	f2c0 0e00 	movt	lr, #0
    5780:	e8be 000f 	ldmia.w	lr!, {r0, r1, r2, r3}
    5784:	9000      	str	r0, [sp, #0]
    5786:	9101      	str	r1, [sp, #4]
    5788:	9202      	str	r2, [sp, #8]
    578a:	9303      	str	r3, [sp, #12]
    578c:	f8be 3000 	ldrh.w	r3, [lr]
    5790:	f8ad 3010 	strh.w	r3, [sp, #16]
    5794:	230a      	movs	r3, #10
    5796:	f88d 3012 	strb.w	r3, [sp, #18]
    579a:	f64c 53ac 	movw	r3, #52652	; 0xcdac
    579e:	f2c0 0300 	movt	r3, #0
    57a2:	6818      	ldr	r0, [r3, #0]
    57a4:	f8cd 0013 	str.w	r0, [sp, #19]
    57a8:	889b      	ldrh	r3, [r3, #4]
    57aa:	f8ad 3017 	strh.w	r3, [sp, #23]
    57ae:	465a      	mov	r2, fp
    57b0:	2a19      	cmp	r2, #25
    57b2:	bfb8      	it	lt
    57b4:	2219      	movlt	r2, #25
    57b6:	f10d 0019 	add.w	r0, sp, #25
    57ba:	6839      	ldr	r1, [r7, #0]
    57bc:	3a19      	subs	r2, #25
    57be:	f7fc fb91 	bl	1ee4 <memcpy>
    57c2:	192a      	adds	r2, r5, r4
    57c4:	f64c 53b4 	movw	r3, #52660	; 0xcdb4
    57c8:	f2c0 0300 	movt	r3, #0
    57cc:	cb03      	ldmia	r3!, {r0, r1}
    57ce:	f8c2 0019 	str.w	r0, [r2, #25]
    57d2:	f8c2 101d 	str.w	r1, [r2, #29]
    57d6:	f104 0222 	add.w	r2, r4, #34	; 0x22
    57da:	f104 0021 	add.w	r0, r4, #33	; 0x21
    57de:	4468      	add	r0, sp
    57e0:	6879      	ldr	r1, [r7, #4]
    57e2:	4296      	cmp	r6, r2
    57e4:	bfac      	ite	ge
    57e6:	464a      	movge	r2, r9
    57e8:	2200      	movlt	r2, #0
    57ea:	f7fc fb7b 	bl	1ee4 <memcpy>
    57ee:	f64c 53bc 	movw	r3, #52668	; 0xcdbc
    57f2:	f2c0 0300 	movt	r3, #0
    57f6:	881b      	ldrh	r3, [r3, #0]
    57f8:	f82d 3006 	strh.w	r3, [sp, r6]
    57fc:	1cf2      	adds	r2, r6, #3
    57fe:	1cb0      	adds	r0, r6, #2
    5800:	4468      	add	r0, sp
    5802:	68b9      	ldr	r1, [r7, #8]
    5804:	4592      	cmp	sl, r2
    5806:	bfac      	ite	ge
    5808:	4642      	movge	r2, r8
    580a:	2200      	movlt	r2, #0
    580c:	f7fc fb6a 	bl	1ee4 <memcpy>
    5810:	2300      	movs	r3, #0
    5812:	f80d 300a 	strb.w	r3, [sp, sl]
    5816:	6978      	ldr	r0, [r7, #20]
    5818:	6939      	ldr	r1, [r7, #16]
    581a:	68fa      	ldr	r2, [r7, #12]
    581c:	466b      	mov	r3, sp
    581e:	f7ff fc7d 	bl	511c <__gnat_raise_constraint_error_msg>
    5822:	4604      	mov	r4, r0
    5824:	f107 0c24 	add.w	ip, r7, #36	; 0x24
    5828:	f7ff ff50 	bl	56cc <ada__exceptions__rcheck_ce_index_check_ext___finalizer.5970>
    582c:	4620      	mov	r0, r4
    582e:	f004 fcdf 	bl	a1f0 <_Unwind_Resume>
    5832:	bf00      	nop

00005834 <ada__exceptions__rcheck_ce_invalid_data_ext___finalizer.6045>:
    5834:	b508      	push	{r3, lr}
    5836:	f8dc 0000 	ldr.w	r0, [ip]
    583a:	f7fc fed5 	bl	25e8 <system__secondary_stack__ss_release>
    583e:	bd08      	pop	{r3, pc}

00005840 <__gnat_rcheck_CE_Invalid_Data_ext>:
    5840:	e92d 4ff0 	stmdb	sp!, {r4, r5, r6, r7, r8, r9, sl, fp, lr}
    5844:	b08b      	sub	sp, #44	; 0x2c
    5846:	af00      	add	r7, sp, #0
    5848:	6178      	str	r0, [r7, #20]
    584a:	6139      	str	r1, [r7, #16]
    584c:	60fa      	str	r2, [r7, #12]
    584e:	461c      	mov	r4, r3
    5850:	f7fc fec4 	bl	25dc <system__secondary_stack__ss_mark>
    5854:	6278      	str	r0, [r7, #36]	; 0x24
    5856:	f107 0018 	add.w	r0, r7, #24
    585a:	4621      	mov	r1, r4
    585c:	f7ff fc0a 	bl	5074 <ada__exceptions__image>
    5860:	f8d7 b018 	ldr.w	fp, [r7, #24]
    5864:	69fe      	ldr	r6, [r7, #28]
    5866:	f107 0018 	add.w	r0, r7, #24
    586a:	6d39      	ldr	r1, [r7, #80]	; 0x50
    586c:	f7ff fc02 	bl	5074 <ada__exceptions__image>
    5870:	69bb      	ldr	r3, [r7, #24]
    5872:	607b      	str	r3, [r7, #4]
    5874:	69fd      	ldr	r5, [r7, #28]
    5876:	f107 0018 	add.w	r0, r7, #24
    587a:	6d79      	ldr	r1, [r7, #84]	; 0x54
    587c:	f7ff fbfa 	bl	5074 <ada__exceptions__image>
    5880:	69bb      	ldr	r3, [r7, #24]
    5882:	60bb      	str	r3, [r7, #8]
    5884:	69f9      	ldr	r1, [r7, #28]
    5886:	6873      	ldr	r3, [r6, #4]
    5888:	6834      	ldr	r4, [r6, #0]
    588a:	42a3      	cmp	r3, r4
    588c:	bfa6      	itte	ge
    588e:	1b1c      	subge	r4, r3, r4
    5890:	3401      	addge	r4, #1
    5892:	2400      	movlt	r4, #0
    5894:	f104 0e13 	add.w	lr, r4, #19
    5898:	f104 061b 	add.w	r6, r4, #27
    589c:	686b      	ldr	r3, [r5, #4]
    589e:	6828      	ldr	r0, [r5, #0]
    58a0:	4283      	cmp	r3, r0
    58a2:	bfa6      	itte	ge
    58a4:	ebc0 0903 	rsbge	r9, r0, r3
    58a8:	f109 0901 	addge.w	r9, r9, #1
    58ac:	f04f 0900 	movlt.w	r9, #0
    58b0:	444e      	add	r6, r9
    58b2:	f106 0a02 	add.w	sl, r6, #2
    58b6:	684b      	ldr	r3, [r1, #4]
    58b8:	680a      	ldr	r2, [r1, #0]
    58ba:	4293      	cmp	r3, r2
    58bc:	bfa6      	itte	ge
    58be:	ebc2 0803 	rsbge	r8, r2, r3
    58c2:	f108 0801 	addge.w	r8, r8, #1
    58c6:	f04f 0800 	movlt.w	r8, #0
    58ca:	44c2      	add	sl, r8
    58cc:	f10a 0301 	add.w	r3, sl, #1
    58d0:	ea23 73e3 	bic.w	r3, r3, r3, asr #31
    58d4:	3307      	adds	r3, #7
    58d6:	f023 0307 	bic.w	r3, r3, #7
    58da:	ebad 0d03 	sub.w	sp, sp, r3
    58de:	466d      	mov	r5, sp
    58e0:	f64c 6308 	movw	r3, #52744	; 0xce08
    58e4:	f2c0 0300 	movt	r3, #0
    58e8:	cb07      	ldmia	r3!, {r0, r1, r2}
    58ea:	9000      	str	r0, [sp, #0]
    58ec:	9101      	str	r1, [sp, #4]
    58ee:	9202      	str	r2, [sp, #8]
    58f0:	230a      	movs	r3, #10
    58f2:	f88d 300c 	strb.w	r3, [sp, #12]
    58f6:	f64c 53c0 	movw	r3, #52672	; 0xcdc0
    58fa:	f2c0 0300 	movt	r3, #0
    58fe:	6818      	ldr	r0, [r3, #0]
    5900:	f8cd 000d 	str.w	r0, [sp, #13]
    5904:	889b      	ldrh	r3, [r3, #4]
    5906:	f8ad 3011 	strh.w	r3, [sp, #17]
    590a:	4672      	mov	r2, lr
    590c:	2a13      	cmp	r2, #19
    590e:	bfb8      	it	lt
    5910:	2213      	movlt	r2, #19
    5912:	f10d 0013 	add.w	r0, sp, #19
    5916:	4659      	mov	r1, fp
    5918:	3a13      	subs	r2, #19
    591a:	f7fc fae3 	bl	1ee4 <memcpy>
    591e:	192a      	adds	r2, r5, r4
    5920:	f102 0e13 	add.w	lr, r2, #19
    5924:	f64c 53b4 	movw	r3, #52660	; 0xcdb4
    5928:	f2c0 0300 	movt	r3, #0
    592c:	cb03      	ldmia	r3!, {r0, r1}
    592e:	f8c2 0013 	str.w	r0, [r2, #19]
    5932:	f8ce 1004 	str.w	r1, [lr, #4]
    5936:	f104 021c 	add.w	r2, r4, #28
    593a:	f104 001b 	add.w	r0, r4, #27
    593e:	4468      	add	r0, sp
    5940:	6879      	ldr	r1, [r7, #4]
    5942:	4296      	cmp	r6, r2
    5944:	bfac      	ite	ge
    5946:	464a      	movge	r2, r9
    5948:	2200      	movlt	r2, #0
    594a:	f7fc facb 	bl	1ee4 <memcpy>
    594e:	f64c 53bc 	movw	r3, #52668	; 0xcdbc
    5952:	f2c0 0300 	movt	r3, #0
    5956:	881b      	ldrh	r3, [r3, #0]
    5958:	f82d 3006 	strh.w	r3, [sp, r6]
    595c:	1cf2      	adds	r2, r6, #3
    595e:	1cb0      	adds	r0, r6, #2
    5960:	4468      	add	r0, sp
    5962:	68b9      	ldr	r1, [r7, #8]
    5964:	4592      	cmp	sl, r2
    5966:	bfac      	ite	ge
    5968:	4642      	movge	r2, r8
    596a:	2200      	movlt	r2, #0
    596c:	f7fc faba 	bl	1ee4 <memcpy>
    5970:	2300      	movs	r3, #0
    5972:	f80d 300a 	strb.w	r3, [sp, sl]
    5976:	6978      	ldr	r0, [r7, #20]
    5978:	6939      	ldr	r1, [r7, #16]
    597a:	68fa      	ldr	r2, [r7, #12]
    597c:	466b      	mov	r3, sp
    597e:	f7ff fbcd 	bl	511c <__gnat_raise_constraint_error_msg>
    5982:	4604      	mov	r4, r0
    5984:	f107 0c24 	add.w	ip, r7, #36	; 0x24
    5988:	f7ff ff54 	bl	5834 <ada__exceptions__rcheck_ce_invalid_data_ext___finalizer.6045>
    598c:	4620      	mov	r0, r4
    598e:	f004 fc2f 	bl	a1f0 <_Unwind_Resume>
    5992:	bf00      	nop

00005994 <ada__exceptions__rcheck_ce_range_check_ext___finalizer.6120>:
    5994:	b508      	push	{r3, lr}
    5996:	f8dc 0000 	ldr.w	r0, [ip]
    599a:	f7fc fe25 	bl	25e8 <system__secondary_stack__ss_release>
    599e:	bd08      	pop	{r3, pc}

000059a0 <__gnat_rcheck_CE_Range_Check_ext>:
    59a0:	e92d 4ff0 	stmdb	sp!, {r4, r5, r6, r7, r8, r9, sl, fp, lr}
    59a4:	b08b      	sub	sp, #44	; 0x2c
    59a6:	af00      	add	r7, sp, #0
    59a8:	6178      	str	r0, [r7, #20]
    59aa:	6139      	str	r1, [r7, #16]
    59ac:	60fa      	str	r2, [r7, #12]
    59ae:	461c      	mov	r4, r3
    59b0:	f7fc fe14 	bl	25dc <system__secondary_stack__ss_mark>
    59b4:	6278      	str	r0, [r7, #36]	; 0x24
    59b6:	f107 0018 	add.w	r0, r7, #24
    59ba:	4621      	mov	r1, r4
    59bc:	f7ff fb5a 	bl	5074 <ada__exceptions__image>
    59c0:	69bb      	ldr	r3, [r7, #24]
    59c2:	603b      	str	r3, [r7, #0]
    59c4:	69fe      	ldr	r6, [r7, #28]
    59c6:	f107 0018 	add.w	r0, r7, #24
    59ca:	6d39      	ldr	r1, [r7, #80]	; 0x50
    59cc:	f7ff fb52 	bl	5074 <ada__exceptions__image>
    59d0:	69bb      	ldr	r3, [r7, #24]
    59d2:	607b      	str	r3, [r7, #4]
    59d4:	69fd      	ldr	r5, [r7, #28]
    59d6:	f107 0018 	add.w	r0, r7, #24
    59da:	6d79      	ldr	r1, [r7, #84]	; 0x54
    59dc:	f7ff fb4a 	bl	5074 <ada__exceptions__image>
    59e0:	69bb      	ldr	r3, [r7, #24]
    59e2:	60bb      	str	r3, [r7, #8]
    59e4:	69f9      	ldr	r1, [r7, #28]
    59e6:	6873      	ldr	r3, [r6, #4]
    59e8:	6834      	ldr	r4, [r6, #0]
    59ea:	42a3      	cmp	r3, r4
    59ec:	bfa6      	itte	ge
    59ee:	1b1c      	subge	r4, r3, r4
    59f0:	3401      	addge	r4, #1
    59f2:	2400      	movlt	r4, #0
    59f4:	f104 0b19 	add.w	fp, r4, #25
    59f8:	f104 0621 	add.w	r6, r4, #33	; 0x21
    59fc:	686b      	ldr	r3, [r5, #4]
    59fe:	6828      	ldr	r0, [r5, #0]
    5a00:	4283      	cmp	r3, r0
    5a02:	bfa6      	itte	ge
    5a04:	ebc0 0903 	rsbge	r9, r0, r3
    5a08:	f109 0901 	addge.w	r9, r9, #1
    5a0c:	f04f 0900 	movlt.w	r9, #0
    5a10:	444e      	add	r6, r9
    5a12:	f106 0a02 	add.w	sl, r6, #2
    5a16:	684b      	ldr	r3, [r1, #4]
    5a18:	680a      	ldr	r2, [r1, #0]
    5a1a:	4293      	cmp	r3, r2
    5a1c:	bfa6      	itte	ge
    5a1e:	ebc2 0803 	rsbge	r8, r2, r3
    5a22:	f108 0801 	addge.w	r8, r8, #1
    5a26:	f04f 0800 	movlt.w	r8, #0
    5a2a:	44c2      	add	sl, r8
    5a2c:	f10a 0301 	add.w	r3, sl, #1
    5a30:	ea23 73e3 	bic.w	r3, r3, r3, asr #31
    5a34:	3307      	adds	r3, #7
    5a36:	f023 0307 	bic.w	r3, r3, #7
    5a3a:	ebad 0d03 	sub.w	sp, sp, r3
    5a3e:	466d      	mov	r5, sp
    5a40:	f64c 6e18 	movw	lr, #52760	; 0xce18
    5a44:	f2c0 0e00 	movt	lr, #0
    5a48:	e8be 000f 	ldmia.w	lr!, {r0, r1, r2, r3}
    5a4c:	9000      	str	r0, [sp, #0]
    5a4e:	9101      	str	r1, [sp, #4]
    5a50:	9202      	str	r2, [sp, #8]
    5a52:	9303      	str	r3, [sp, #12]
    5a54:	f8be 3000 	ldrh.w	r3, [lr]
    5a58:	f8ad 3010 	strh.w	r3, [sp, #16]
    5a5c:	230a      	movs	r3, #10
    5a5e:	f88d 3012 	strb.w	r3, [sp, #18]
    5a62:	f64c 53c0 	movw	r3, #52672	; 0xcdc0
    5a66:	f2c0 0300 	movt	r3, #0
    5a6a:	6818      	ldr	r0, [r3, #0]
    5a6c:	f8cd 0013 	str.w	r0, [sp, #19]
    5a70:	889b      	ldrh	r3, [r3, #4]
    5a72:	f8ad 3017 	strh.w	r3, [sp, #23]
    5a76:	465a      	mov	r2, fp
    5a78:	2a19      	cmp	r2, #25
    5a7a:	bfb8      	it	lt
    5a7c:	2219      	movlt	r2, #25
    5a7e:	f10d 0019 	add.w	r0, sp, #25
    5a82:	6839      	ldr	r1, [r7, #0]
    5a84:	3a19      	subs	r2, #25
    5a86:	f7fc fa2d 	bl	1ee4 <memcpy>
    5a8a:	192a      	adds	r2, r5, r4
    5a8c:	f64c 53b4 	movw	r3, #52660	; 0xcdb4
    5a90:	f2c0 0300 	movt	r3, #0
    5a94:	cb03      	ldmia	r3!, {r0, r1}
    5a96:	f8c2 0019 	str.w	r0, [r2, #25]
    5a9a:	f8c2 101d 	str.w	r1, [r2, #29]
    5a9e:	f104 0222 	add.w	r2, r4, #34	; 0x22
    5aa2:	f104 0021 	add.w	r0, r4, #33	; 0x21
    5aa6:	4468      	add	r0, sp
    5aa8:	6879      	ldr	r1, [r7, #4]
    5aaa:	4296      	cmp	r6, r2
    5aac:	bfac      	ite	ge
    5aae:	464a      	movge	r2, r9
    5ab0:	2200      	movlt	r2, #0
    5ab2:	f7fc fa17 	bl	1ee4 <memcpy>
    5ab6:	f64c 53bc 	movw	r3, #52668	; 0xcdbc
    5aba:	f2c0 0300 	movt	r3, #0
    5abe:	881b      	ldrh	r3, [r3, #0]
    5ac0:	f82d 3006 	strh.w	r3, [sp, r6]
    5ac4:	1cf2      	adds	r2, r6, #3
    5ac6:	1cb0      	adds	r0, r6, #2
    5ac8:	4468      	add	r0, sp
    5aca:	68b9      	ldr	r1, [r7, #8]
    5acc:	4592      	cmp	sl, r2
    5ace:	bfac      	ite	ge
    5ad0:	4642      	movge	r2, r8
    5ad2:	2200      	movlt	r2, #0
    5ad4:	f7fc fa06 	bl	1ee4 <memcpy>
    5ad8:	2300      	movs	r3, #0
    5ada:	f80d 300a 	strb.w	r3, [sp, sl]
    5ade:	6978      	ldr	r0, [r7, #20]
    5ae0:	6939      	ldr	r1, [r7, #16]
    5ae2:	68fa      	ldr	r2, [r7, #12]
    5ae4:	466b      	mov	r3, sp
    5ae6:	f7ff fb19 	bl	511c <__gnat_raise_constraint_error_msg>
    5aea:	4604      	mov	r4, r0
    5aec:	f107 0c24 	add.w	ip, r7, #36	; 0x24
    5af0:	f7ff ff50 	bl	5994 <ada__exceptions__rcheck_ce_range_check_ext___finalizer.6120>
    5af4:	4620      	mov	r0, r4
    5af6:	f004 fb7b 	bl	a1f0 <_Unwind_Resume>
    5afa:	bf00      	nop

00005afc <__gnat_rcheck_PE_Finalize_Raised_Exception>:
    5afc:	b5f0      	push	{r4, r5, r6, r7, lr}
    5afe:	b083      	sub	sp, #12
    5b00:	4607      	mov	r7, r0
    5b02:	460e      	mov	r6, r1
    5b04:	f7fe fea6 	bl	4854 <ada__exceptions__exception_propagation__allocate_occurrenceXn>
    5b08:	4605      	mov	r5, r0
    5b0a:	2300      	movs	r3, #0
    5b0c:	9300      	str	r3, [sp, #0]
    5b0e:	f64c 1414 	movw	r4, #51476	; 0xc914
    5b12:	f2c0 0400 	movt	r4, #0
    5b16:	9401      	str	r4, [sp, #4]
    5b18:	f240 1100 	movw	r1, #256	; 0x100
    5b1c:	f6c0 0100 	movt	r1, #2048	; 0x800
    5b20:	463a      	mov	r2, r7
    5b22:	4633      	mov	r3, r6
    5b24:	f7fe fdfe 	bl	4724 <ada__exceptions__exception_data__set_exception_c_msgXn>
    5b28:	4628      	mov	r0, r5
    5b2a:	f7ff fb0f 	bl	514c <ada__exceptions__complete_and_propagate_occurrence>
    5b2e:	bf00      	nop

00005b30 <__gnat_reraise>:
    5b30:	b538      	push	{r3, r4, r5, lr}
    5b32:	f7fe fe8f 	bl	4854 <ada__exceptions__exception_propagation__allocate_occurrenceXn>
    5b36:	4604      	mov	r4, r0
    5b38:	6845      	ldr	r5, [r0, #4]
    5b3a:	f7fc fbe1 	bl	2300 <system__soft_links__get_current_excep_soft>
    5b3e:	4601      	mov	r1, r0
    5b40:	4620      	mov	r0, r4
    5b42:	f000 f847 	bl	5bd4 <ada__exceptions__save_occurrence>
    5b46:	6065      	str	r5, [r4, #4]
    5b48:	4620      	mov	r0, r4
    5b4a:	f7ff faff 	bl	514c <ada__exceptions__complete_and_propagate_occurrence>
    5b4e:	bf00      	nop

00005b50 <__gnat_reraise_library_exception_if_any>:
    5b50:	b500      	push	{lr}
    5b52:	b0eb      	sub	sp, #428	; 0x1ac
    5b54:	4668      	mov	r0, sp
    5b56:	f7fe faa9 	bl	40ac <ada__exceptions__exception_occurrenceIP>
    5b5a:	f240 0386 	movw	r3, #134	; 0x86
    5b5e:	f6c0 0300 	movt	r3, #2048	; 0x800
    5b62:	781b      	ldrb	r3, [r3, #0]
    5b64:	b1db      	cbz	r3, 5b9e <__gnat_reraise_library_exception_if_any+0x4e>
    5b66:	4668      	mov	r0, sp
    5b68:	f642 010c 	movw	r1, #10252	; 0x280c
    5b6c:	f6c0 0100 	movt	r1, #2048	; 0x800
    5b70:	f44f 72d4 	mov.w	r2, #424	; 0x1a8
    5b74:	f7fc f9b6 	bl	1ee4 <memcpy>
    5b78:	9b00      	ldr	r3, [sp, #0]
    5b7a:	b96b      	cbnz	r3, 5b98 <__gnat_reraise_library_exception_if_any+0x48>
    5b7c:	f240 1000 	movw	r0, #256	; 0x100
    5b80:	f6c0 0000 	movt	r0, #2048	; 0x800
    5b84:	f64c 52c8 	movw	r2, #52680	; 0xcdc8
    5b88:	f2c0 0200 	movt	r2, #0
    5b8c:	f64c 53e8 	movw	r3, #52712	; 0xcde8
    5b90:	f2c0 0300 	movt	r3, #0
    5b94:	f7ff fafc 	bl	5190 <ada__exceptions__raise_exception_no_defer>
    5b98:	4668      	mov	r0, sp
    5b9a:	f7ff fb0f 	bl	51bc <__gnat_raise_from_controlled_operation>
    5b9e:	b06b      	add	sp, #428	; 0x1ac
    5ba0:	f85d fb04 	ldr.w	pc, [sp], #4

00005ba4 <ada__exceptions__reraise_occurrence>:
    5ba4:	b508      	push	{r3, lr}
    5ba6:	6803      	ldr	r3, [r0, #0]
    5ba8:	b10b      	cbz	r3, 5bae <ada__exceptions__reraise_occurrence+0xa>
    5baa:	f000 f801 	bl	5bb0 <ada__exceptions__reraise_occurrence_always>
    5bae:	bd08      	pop	{r3, pc}

00005bb0 <ada__exceptions__reraise_occurrence_always>:
    5bb0:	b508      	push	{r3, lr}
    5bb2:	f000 f801 	bl	5bb8 <ada__exceptions__reraise_occurrence_no_defer>
    5bb6:	bf00      	nop

00005bb8 <ada__exceptions__reraise_occurrence_no_defer>:
    5bb8:	b570      	push	{r4, r5, r6, lr}
    5bba:	4606      	mov	r6, r0
    5bbc:	f7fe fe4a 	bl	4854 <ada__exceptions__exception_propagation__allocate_occurrenceXn>
    5bc0:	4604      	mov	r4, r0
    5bc2:	6845      	ldr	r5, [r0, #4]
    5bc4:	4631      	mov	r1, r6
    5bc6:	f000 f805 	bl	5bd4 <ada__exceptions__save_occurrence>
    5bca:	6065      	str	r5, [r4, #4]
    5bcc:	4620      	mov	r0, r4
    5bce:	f7ff fabd 	bl	514c <ada__exceptions__complete_and_propagate_occurrence>
    5bd2:	bf00      	nop

00005bd4 <ada__exceptions__save_occurrence>:
    5bd4:	b538      	push	{r3, r4, r5, lr}
    5bd6:	4604      	mov	r4, r0
    5bd8:	460d      	mov	r5, r1
    5bda:	680b      	ldr	r3, [r1, #0]
    5bdc:	6003      	str	r3, [r0, #0]
    5bde:	2300      	movs	r3, #0
    5be0:	6043      	str	r3, [r0, #4]
    5be2:	688a      	ldr	r2, [r1, #8]
    5be4:	6082      	str	r2, [r0, #8]
    5be6:	f8d1 30dc 	ldr.w	r3, [r1, #220]	; 0xdc
    5bea:	f8c0 30dc 	str.w	r3, [r0, #220]	; 0xdc
    5bee:	f8d1 30d8 	ldr.w	r3, [r1, #216]	; 0xd8
    5bf2:	f8c0 30d8 	str.w	r3, [r0, #216]	; 0xd8
    5bf6:	300c      	adds	r0, #12
    5bf8:	310c      	adds	r1, #12
    5bfa:	ea22 72e2 	bic.w	r2, r2, r2, asr #31
    5bfe:	f7fc f971 	bl	1ee4 <memcpy>
    5c02:	f8d4 20dc 	ldr.w	r2, [r4, #220]	; 0xdc
    5c06:	ea22 72e2 	bic.w	r2, r2, r2, asr #31
    5c0a:	f104 00e0 	add.w	r0, r4, #224	; 0xe0
    5c0e:	f105 01e0 	add.w	r1, r5, #224	; 0xe0
    5c12:	0092      	lsls	r2, r2, #2
    5c14:	f7fc f966 	bl	1ee4 <memcpy>
    5c18:	bd38      	pop	{r3, r4, r5, pc}
    5c1a:	bf00      	nop

00005c1c <ada__exceptions__save_occurrence__2>:
    5c1c:	b538      	push	{r3, r4, r5, lr}
    5c1e:	4605      	mov	r5, r0
    5c20:	f44f 70d4 	mov.w	r0, #424	; 0x1a8
    5c24:	f002 fb94 	bl	8350 <__gnat_malloc>
    5c28:	4604      	mov	r4, r0
    5c2a:	f7fe fa3f 	bl	40ac <ada__exceptions__exception_occurrenceIP>
    5c2e:	4620      	mov	r0, r4
    5c30:	4629      	mov	r1, r5
    5c32:	f7ff ffcf 	bl	5bd4 <ada__exceptions__save_occurrence>
    5c36:	4620      	mov	r0, r4
    5c38:	bd38      	pop	{r3, r4, r5, pc}
    5c3a:	bf00      	nop

00005c3c <ada__exceptions__string_to_eid>:
    5c3c:	b508      	push	{r3, lr}
    5c3e:	f7fe ff83 	bl	4b48 <ada__exceptions__stream_attributes__string_to_eidXn>
    5c42:	bd08      	pop	{r3, pc}

00005c44 <ada__exceptions__string_to_eo>:
    5c44:	b510      	push	{r4, lr}
    5c46:	4604      	mov	r4, r0
    5c48:	f7fe ff9a 	bl	4b80 <ada__exceptions__stream_attributes__string_to_eoXn>
    5c4c:	4620      	mov	r0, r4
    5c4e:	bd10      	pop	{r4, pc}

00005c50 <__gnat_to_stderr_char>:
    5c50:	b508      	push	{r3, lr}
    5c52:	f003 fb2f 	bl	92b4 <put_char_stderr>
    5c56:	bd08      	pop	{r3, pc}

00005c58 <__gnat_to_stderr>:
    5c58:	b570      	push	{r4, r5, r6, lr}
    5c5a:	680d      	ldr	r5, [r1, #0]
    5c5c:	684e      	ldr	r6, [r1, #4]
    5c5e:	42b5      	cmp	r5, r6
    5c60:	dc09      	bgt.n	5c76 <__gnat_to_stderr+0x1e>
    5c62:	1e6c      	subs	r4, r5, #1
    5c64:	1b45      	subs	r5, r0, r5
    5c66:	3401      	adds	r4, #1
    5c68:	5d28      	ldrb	r0, [r5, r4]
    5c6a:	280d      	cmp	r0, #13
    5c6c:	d001      	beq.n	5c72 <__gnat_to_stderr+0x1a>
    5c6e:	f7ff ffef 	bl	5c50 <__gnat_to_stderr_char>
    5c72:	42a6      	cmp	r6, r4
    5c74:	d1f7      	bne.n	5c66 <__gnat_to_stderr+0xe>
    5c76:	bd70      	pop	{r4, r5, r6, pc}

00005c78 <__gnat_transfer_occurrence>:
    5c78:	b508      	push	{r3, lr}
    5c7a:	f7ff ffab 	bl	5bd4 <ada__exceptions__save_occurrence>
    5c7e:	bd08      	pop	{r3, pc}

00005c80 <ada__exceptions__triggered_by_abort>:
    5c80:	b508      	push	{r3, lr}
    5c82:	f7fc fb3d 	bl	2300 <system__soft_links__get_current_excep_soft>
    5c86:	b150      	cbz	r0, 5c9e <ada__exceptions__triggered_by_abort+0x1e>
    5c88:	f7ff f930 	bl	4eec <ada__exceptions__exception_identity>
    5c8c:	f240 03e8 	movw	r3, #232	; 0xe8
    5c90:	f6c0 0300 	movt	r3, #2048	; 0x800
    5c94:	4283      	cmp	r3, r0
    5c96:	bf14      	ite	ne
    5c98:	2000      	movne	r0, #0
    5c9a:	2001      	moveq	r0, #1
    5c9c:	e000      	b.n	5ca0 <ada__exceptions__triggered_by_abort+0x20>
    5c9e:	2000      	movs	r0, #0
    5ca0:	bd08      	pop	{r3, pc}
    5ca2:	bf00      	nop

00005ca4 <ada__exceptions__wide_exception_name>:
    5ca4:	e92d 47f0 	stmdb	sp!, {r4, r5, r6, r7, r8, r9, sl, lr}
    5ca8:	b088      	sub	sp, #32
    5caa:	af02      	add	r7, sp, #8
    5cac:	4606      	mov	r6, r0
    5cae:	4638      	mov	r0, r7
    5cb0:	f7ff f960 	bl	4f74 <ada__exceptions__exception_name>
    5cb4:	683d      	ldr	r5, [r7, #0]
    5cb6:	687b      	ldr	r3, [r7, #4]
    5cb8:	6819      	ldr	r1, [r3, #0]
    5cba:	685a      	ldr	r2, [r3, #4]
    5cbc:	4291      	cmp	r1, r2
    5cbe:	bfda      	itte	le
    5cc0:	1a54      	suble	r4, r2, r1
    5cc2:	3401      	addle	r4, #1
    5cc4:	2400      	movgt	r4, #0
    5cc6:	ea24 73e4 	bic.w	r3, r4, r4, asr #31
    5cca:	005b      	lsls	r3, r3, #1
    5ccc:	3308      	adds	r3, #8
    5cce:	f023 0307 	bic.w	r3, r3, #7
    5cd2:	ebad 0d03 	sub.w	sp, sp, r3
    5cd6:	f10d 0808 	add.w	r8, sp, #8
    5cda:	60b9      	str	r1, [r7, #8]
    5cdc:	60fa      	str	r2, [r7, #12]
    5cde:	f04f 0901 	mov.w	r9, #1
    5ce2:	f8c7 9010 	str.w	r9, [r7, #16]
    5ce6:	617c      	str	r4, [r7, #20]
    5ce8:	f240 0344 	movw	r3, #68	; 0x44
    5cec:	f6c0 0300 	movt	r3, #2048	; 0x800
    5cf0:	7818      	ldrb	r0, [r3, #0]
    5cf2:	f001 fdff 	bl	78f4 <system__wch_con__get_wc_encoding_method>
    5cf6:	9000      	str	r0, [sp, #0]
    5cf8:	4628      	mov	r0, r5
    5cfa:	f107 0108 	add.w	r1, r7, #8
    5cfe:	4642      	mov	r2, r8
    5d00:	f107 0310 	add.w	r3, r7, #16
    5d04:	f003 f870 	bl	8de8 <system__wch_stw__string_to_wide_string>
    5d08:	4682      	mov	sl, r0
    5d0a:	ea20 75e0 	bic.w	r5, r0, r0, asr #31
    5d0e:	fa05 f509 	lsl.w	r5, r5, r9
    5d12:	f105 000b 	add.w	r0, r5, #11
    5d16:	f020 0003 	bic.w	r0, r0, #3
    5d1a:	f7fc fc41 	bl	25a0 <system__secondary_stack__ss_allocate>
    5d1e:	4604      	mov	r4, r0
    5d20:	f8c0 9000 	str.w	r9, [r0]
    5d24:	f8c0 a004 	str.w	sl, [r0, #4]
    5d28:	f100 0908 	add.w	r9, r0, #8
    5d2c:	4648      	mov	r0, r9
    5d2e:	4641      	mov	r1, r8
    5d30:	462a      	mov	r2, r5
    5d32:	f7fc f8d7 	bl	1ee4 <memcpy>
    5d36:	f8c6 9000 	str.w	r9, [r6]
    5d3a:	6074      	str	r4, [r6, #4]
    5d3c:	4630      	mov	r0, r6
    5d3e:	3718      	adds	r7, #24
    5d40:	46bd      	mov	sp, r7
    5d42:	e8bd 87f0 	ldmia.w	sp!, {r4, r5, r6, r7, r8, r9, sl, pc}
    5d46:	bf00      	nop

00005d48 <ada__exceptions__wide_exception_name__2>:
    5d48:	e92d 47f0 	stmdb	sp!, {r4, r5, r6, r7, r8, r9, sl, lr}
    5d4c:	b088      	sub	sp, #32
    5d4e:	af02      	add	r7, sp, #8
    5d50:	4606      	mov	r6, r0
    5d52:	4638      	mov	r0, r7
    5d54:	f7ff f936 	bl	4fc4 <ada__exceptions__exception_name__2>
    5d58:	683d      	ldr	r5, [r7, #0]
    5d5a:	687b      	ldr	r3, [r7, #4]
    5d5c:	6819      	ldr	r1, [r3, #0]
    5d5e:	685a      	ldr	r2, [r3, #4]
    5d60:	4291      	cmp	r1, r2
    5d62:	bfda      	itte	le
    5d64:	1a54      	suble	r4, r2, r1
    5d66:	3401      	addle	r4, #1
    5d68:	2400      	movgt	r4, #0
    5d6a:	ea24 73e4 	bic.w	r3, r4, r4, asr #31
    5d6e:	005b      	lsls	r3, r3, #1
    5d70:	3308      	adds	r3, #8
    5d72:	f023 0307 	bic.w	r3, r3, #7
    5d76:	ebad 0d03 	sub.w	sp, sp, r3
    5d7a:	f10d 0808 	add.w	r8, sp, #8
    5d7e:	60b9      	str	r1, [r7, #8]
    5d80:	60fa      	str	r2, [r7, #12]
    5d82:	f04f 0901 	mov.w	r9, #1
    5d86:	f8c7 9010 	str.w	r9, [r7, #16]
    5d8a:	617c      	str	r4, [r7, #20]
    5d8c:	f240 0344 	movw	r3, #68	; 0x44
    5d90:	f6c0 0300 	movt	r3, #2048	; 0x800
    5d94:	7818      	ldrb	r0, [r3, #0]
    5d96:	f001 fdad 	bl	78f4 <system__wch_con__get_wc_encoding_method>
    5d9a:	9000      	str	r0, [sp, #0]
    5d9c:	4628      	mov	r0, r5
    5d9e:	f107 0108 	add.w	r1, r7, #8
    5da2:	4642      	mov	r2, r8
    5da4:	f107 0310 	add.w	r3, r7, #16
    5da8:	f003 f81e 	bl	8de8 <system__wch_stw__string_to_wide_string>
    5dac:	4682      	mov	sl, r0
    5dae:	ea20 75e0 	bic.w	r5, r0, r0, asr #31
    5db2:	fa05 f509 	lsl.w	r5, r5, r9
    5db6:	f105 000b 	add.w	r0, r5, #11
    5dba:	f020 0003 	bic.w	r0, r0, #3
    5dbe:	f7fc fbef 	bl	25a0 <system__secondary_stack__ss_allocate>
    5dc2:	4604      	mov	r4, r0
    5dc4:	f8c0 9000 	str.w	r9, [r0]
    5dc8:	f8c0 a004 	str.w	sl, [r0, #4]
    5dcc:	f100 0908 	add.w	r9, r0, #8
    5dd0:	4648      	mov	r0, r9
    5dd2:	4641      	mov	r1, r8
    5dd4:	462a      	mov	r2, r5
    5dd6:	f7fc f885 	bl	1ee4 <memcpy>
    5dda:	f8c6 9000 	str.w	r9, [r6]
    5dde:	6074      	str	r4, [r6, #4]
    5de0:	4630      	mov	r0, r6
    5de2:	3718      	adds	r7, #24
    5de4:	46bd      	mov	sp, r7
    5de6:	e8bd 87f0 	ldmia.w	sp!, {r4, r5, r6, r7, r8, r9, sl, pc}
    5dea:	bf00      	nop

00005dec <ada__exceptions__wide_wide_exception_name>:
    5dec:	e92d 47f0 	stmdb	sp!, {r4, r5, r6, r7, r8, r9, sl, lr}
    5df0:	b088      	sub	sp, #32
    5df2:	af02      	add	r7, sp, #8
    5df4:	4606      	mov	r6, r0
    5df6:	4638      	mov	r0, r7
    5df8:	f7ff f8bc 	bl	4f74 <ada__exceptions__exception_name>
    5dfc:	683c      	ldr	r4, [r7, #0]
    5dfe:	687b      	ldr	r3, [r7, #4]
    5e00:	6818      	ldr	r0, [r3, #0]
    5e02:	6859      	ldr	r1, [r3, #4]
    5e04:	4288      	cmp	r0, r1
    5e06:	bfda      	itte	le
    5e08:	1a0a      	suble	r2, r1, r0
    5e0a:	3201      	addle	r2, #1
    5e0c:	2200      	movgt	r2, #0
    5e0e:	ea22 73e2 	bic.w	r3, r2, r2, asr #31
    5e12:	009b      	lsls	r3, r3, #2
    5e14:	330a      	adds	r3, #10
    5e16:	f023 0307 	bic.w	r3, r3, #7
    5e1a:	ebad 0d03 	sub.w	sp, sp, r3
    5e1e:	f10d 0808 	add.w	r8, sp, #8
    5e22:	60b8      	str	r0, [r7, #8]
    5e24:	60f9      	str	r1, [r7, #12]
    5e26:	f04f 0901 	mov.w	r9, #1
    5e2a:	f8c7 9010 	str.w	r9, [r7, #16]
    5e2e:	617a      	str	r2, [r7, #20]
    5e30:	f240 0344 	movw	r3, #68	; 0x44
    5e34:	f6c0 0300 	movt	r3, #2048	; 0x800
    5e38:	7818      	ldrb	r0, [r3, #0]
    5e3a:	f001 fd5b 	bl	78f4 <system__wch_con__get_wc_encoding_method>
    5e3e:	9000      	str	r0, [sp, #0]
    5e40:	4620      	mov	r0, r4
    5e42:	f107 0108 	add.w	r1, r7, #8
    5e46:	4642      	mov	r2, r8
    5e48:	f107 0310 	add.w	r3, r7, #16
    5e4c:	f003 f804 	bl	8e58 <system__wch_stw__string_to_wide_wide_string>
    5e50:	4682      	mov	sl, r0
    5e52:	ea20 75e0 	bic.w	r5, r0, r0, asr #31
    5e56:	00ad      	lsls	r5, r5, #2
    5e58:	f105 0008 	add.w	r0, r5, #8
    5e5c:	f7fc fba0 	bl	25a0 <system__secondary_stack__ss_allocate>
    5e60:	4604      	mov	r4, r0
    5e62:	f8c0 9000 	str.w	r9, [r0]
    5e66:	f8c0 a004 	str.w	sl, [r0, #4]
    5e6a:	f100 0908 	add.w	r9, r0, #8
    5e6e:	4648      	mov	r0, r9
    5e70:	4641      	mov	r1, r8
    5e72:	462a      	mov	r2, r5
    5e74:	f7fc f836 	bl	1ee4 <memcpy>
    5e78:	f8c6 9000 	str.w	r9, [r6]
    5e7c:	6074      	str	r4, [r6, #4]
    5e7e:	4630      	mov	r0, r6
    5e80:	3718      	adds	r7, #24
    5e82:	46bd      	mov	sp, r7
    5e84:	e8bd 87f0 	ldmia.w	sp!, {r4, r5, r6, r7, r8, r9, sl, pc}

00005e88 <ada__exceptions__wide_wide_exception_name__2>:
    5e88:	e92d 47f0 	stmdb	sp!, {r4, r5, r6, r7, r8, r9, sl, lr}
    5e8c:	b088      	sub	sp, #32
    5e8e:	af02      	add	r7, sp, #8
    5e90:	4606      	mov	r6, r0
    5e92:	4638      	mov	r0, r7
    5e94:	f7ff f896 	bl	4fc4 <ada__exceptions__exception_name__2>
    5e98:	683c      	ldr	r4, [r7, #0]
    5e9a:	687b      	ldr	r3, [r7, #4]
    5e9c:	6818      	ldr	r0, [r3, #0]
    5e9e:	6859      	ldr	r1, [r3, #4]
    5ea0:	4288      	cmp	r0, r1
    5ea2:	bfda      	itte	le
    5ea4:	1a0a      	suble	r2, r1, r0
    5ea6:	3201      	addle	r2, #1
    5ea8:	2200      	movgt	r2, #0
    5eaa:	ea22 73e2 	bic.w	r3, r2, r2, asr #31
    5eae:	009b      	lsls	r3, r3, #2
    5eb0:	330a      	adds	r3, #10
    5eb2:	f023 0307 	bic.w	r3, r3, #7
    5eb6:	ebad 0d03 	sub.w	sp, sp, r3
    5eba:	f10d 0808 	add.w	r8, sp, #8
    5ebe:	60b8      	str	r0, [r7, #8]
    5ec0:	60f9      	str	r1, [r7, #12]
    5ec2:	f04f 0901 	mov.w	r9, #1
    5ec6:	f8c7 9010 	str.w	r9, [r7, #16]
    5eca:	617a      	str	r2, [r7, #20]
    5ecc:	f240 0344 	movw	r3, #68	; 0x44
    5ed0:	f6c0 0300 	movt	r3, #2048	; 0x800
    5ed4:	7818      	ldrb	r0, [r3, #0]
    5ed6:	f001 fd0d 	bl	78f4 <system__wch_con__get_wc_encoding_method>
    5eda:	9000      	str	r0, [sp, #0]
    5edc:	4620      	mov	r0, r4
    5ede:	f107 0108 	add.w	r1, r7, #8
    5ee2:	4642      	mov	r2, r8
    5ee4:	f107 0310 	add.w	r3, r7, #16
    5ee8:	f002 ffb6 	bl	8e58 <system__wch_stw__string_to_wide_wide_string>
    5eec:	4682      	mov	sl, r0
    5eee:	ea20 75e0 	bic.w	r5, r0, r0, asr #31
    5ef2:	00ad      	lsls	r5, r5, #2
    5ef4:	f105 0008 	add.w	r0, r5, #8
    5ef8:	f7fc fb52 	bl	25a0 <system__secondary_stack__ss_allocate>
    5efc:	4604      	mov	r4, r0
    5efe:	f8c0 9000 	str.w	r9, [r0]
    5f02:	f8c0 a004 	str.w	sl, [r0, #4]
    5f06:	f100 0908 	add.w	r9, r0, #8
    5f0a:	4648      	mov	r0, r9
    5f0c:	4641      	mov	r1, r8
    5f0e:	462a      	mov	r2, r5
    5f10:	f7fb ffe8 	bl	1ee4 <memcpy>
    5f14:	f8c6 9000 	str.w	r9, [r6]
    5f18:	6074      	str	r4, [r6, #4]
    5f1a:	4630      	mov	r0, r6
    5f1c:	3718      	adds	r7, #24
    5f1e:	46bd      	mov	sp, r7
    5f20:	e8bd 87f0 	ldmia.w	sp!, {r4, r5, r6, r7, r8, r9, sl, pc}

00005f24 <ada__exceptions__code_address_for_zzz>:
    5f24:	4800      	ldr	r0, [pc, #0]	; (5f28 <ada__exceptions__code_address_for_zzz+0x4>)
    5f26:	4770      	bx	lr
    5f28:	00005f24 	.word	0x00005f24

00005f2c <ada__tags__tag_arrayIP>:
    5f2c:	b410      	push	{r4}
    5f2e:	680c      	ldr	r4, [r1, #0]
    5f30:	684b      	ldr	r3, [r1, #4]
    5f32:	429c      	cmp	r4, r3
    5f34:	dc08      	bgt.n	5f48 <ada__tags__tag_arrayIP+0x1c>
    5f36:	1c5a      	adds	r2, r3, #1
    5f38:	2300      	movs	r3, #0
    5f3a:	1b12      	subs	r2, r2, r4
    5f3c:	4619      	mov	r1, r3
    5f3e:	f840 1023 	str.w	r1, [r0, r3, lsl #2]
    5f42:	3301      	adds	r3, #1
    5f44:	4293      	cmp	r3, r2
    5f46:	d1fa      	bne.n	5f3e <ada__tags__tag_arrayIP+0x12>
    5f48:	f85d 4b04 	ldr.w	r4, [sp], #4
    5f4c:	4770      	bx	lr
    5f4e:	bf00      	nop

00005f50 <ada__tags__interface_data_elementIP>:
    5f50:	2300      	movs	r3, #0
    5f52:	60c3      	str	r3, [r0, #12]
    5f54:	4770      	bx	lr
    5f56:	bf00      	nop

00005f58 <ada__tags__interfaces_arrayIP>:
    5f58:	b430      	push	{r4, r5}
    5f5a:	680c      	ldr	r4, [r1, #0]
    5f5c:	6849      	ldr	r1, [r1, #4]
    5f5e:	428c      	cmp	r4, r1
    5f60:	dc0a      	bgt.n	5f78 <ada__tags__interfaces_arrayIP+0x20>
    5f62:	1e62      	subs	r2, r4, #1
    5f64:	2500      	movs	r5, #0
    5f66:	3201      	adds	r2, #1
    5f68:	1b13      	subs	r3, r2, r4
    5f6a:	428a      	cmp	r2, r1
    5f6c:	eb03 0383 	add.w	r3, r3, r3, lsl #2
    5f70:	eb00 0383 	add.w	r3, r0, r3, lsl #2
    5f74:	60dd      	str	r5, [r3, #12]
    5f76:	d1f6      	bne.n	5f66 <ada__tags__interfaces_arrayIP+0xe>
    5f78:	bc30      	pop	{r4, r5}
    5f7a:	4770      	bx	lr

00005f7c <ada__tags__interface_dataIP>:
    5f7c:	2900      	cmp	r1, #0
    5f7e:	6001      	str	r1, [r0, #0]
    5f80:	dd0e      	ble.n	5fa0 <ada__tags__interface_dataIP+0x24>
    5f82:	b410      	push	{r4}
    5f84:	2200      	movs	r2, #0
    5f86:	4614      	mov	r4, r2
    5f88:	3201      	adds	r2, #1
    5f8a:	428a      	cmp	r2, r1
    5f8c:	eb02 0382 	add.w	r3, r2, r2, lsl #2
    5f90:	eb00 0383 	add.w	r3, r0, r3, lsl #2
    5f94:	f843 4c04 	str.w	r4, [r3, #-4]
    5f98:	d1f6      	bne.n	5f88 <ada__tags__interface_dataIP+0xc>
    5f9a:	f85d 4b04 	ldr.w	r4, [sp], #4
    5f9e:	4770      	bx	lr
    5fa0:	4770      	bx	lr
    5fa2:	bf00      	nop

00005fa4 <ada__tags__select_specific_data_elementIP>:
    5fa4:	4770      	bx	lr
    5fa6:	bf00      	nop

00005fa8 <ada__tags__select_specific_data_arrayIP>:
    5fa8:	4770      	bx	lr
    5faa:	bf00      	nop

00005fac <ada__tags__select_specific_dataIP>:
    5fac:	6001      	str	r1, [r0, #0]
    5fae:	4770      	bx	lr

00005fb0 <ada__tags__address_arrayIP>:
    5fb0:	b410      	push	{r4}
    5fb2:	680c      	ldr	r4, [r1, #0]
    5fb4:	684b      	ldr	r3, [r1, #4]
    5fb6:	429c      	cmp	r4, r3
    5fb8:	dc08      	bgt.n	5fcc <ada__tags__address_arrayIP+0x1c>
    5fba:	1c5a      	adds	r2, r3, #1
    5fbc:	2300      	movs	r3, #0
    5fbe:	1b12      	subs	r2, r2, r4
    5fc0:	4619      	mov	r1, r3
    5fc2:	f840 1023 	str.w	r1, [r0, r3, lsl #2]
    5fc6:	3301      	adds	r3, #1
    5fc8:	4293      	cmp	r3, r2
    5fca:	d1fa      	bne.n	5fc2 <ada__tags__address_arrayIP+0x12>
    5fcc:	f85d 4b04 	ldr.w	r4, [sp], #4
    5fd0:	4770      	bx	lr
    5fd2:	bf00      	nop

00005fd4 <ada__tags__tag_tableIP>:
    5fd4:	b410      	push	{r4}
    5fd6:	680c      	ldr	r4, [r1, #0]
    5fd8:	684b      	ldr	r3, [r1, #4]
    5fda:	429c      	cmp	r4, r3
    5fdc:	dc08      	bgt.n	5ff0 <ada__tags__tag_tableIP+0x1c>
    5fde:	1c5a      	adds	r2, r3, #1
    5fe0:	2300      	movs	r3, #0
    5fe2:	1b12      	subs	r2, r2, r4
    5fe4:	4619      	mov	r1, r3
    5fe6:	f840 1023 	str.w	r1, [r0, r3, lsl #2]
    5fea:	3301      	adds	r3, #1
    5fec:	4293      	cmp	r3, r2
    5fee:	d1fa      	bne.n	5fe6 <ada__tags__tag_tableIP+0x12>
    5ff0:	f85d 4b04 	ldr.w	r4, [sp], #4
    5ff4:	4770      	bx	lr
    5ff6:	bf00      	nop

00005ff8 <ada__tags__type_specific_dataIP>:
    5ff8:	2200      	movs	r2, #0
    5ffa:	4291      	cmp	r1, r2
    5ffc:	6001      	str	r1, [r0, #0]
    5ffe:	60c2      	str	r2, [r0, #12]
    6000:	6102      	str	r2, [r0, #16]
    6002:	6142      	str	r2, [r0, #20]
    6004:	61c2      	str	r2, [r0, #28]
    6006:	6202      	str	r2, [r0, #32]
    6008:	6242      	str	r2, [r0, #36]	; 0x24
    600a:	db07      	blt.n	601c <ada__tags__type_specific_dataIP+0x24>
    600c:	3028      	adds	r0, #40	; 0x28
    600e:	f04f 33ff 	mov.w	r3, #4294967295
    6012:	3301      	adds	r3, #1
    6014:	428b      	cmp	r3, r1
    6016:	f840 2b04 	str.w	r2, [r0], #4
    601a:	d1fa      	bne.n	6012 <ada__tags__type_specific_dataIP+0x1a>
    601c:	4770      	bx	lr
    601e:	bf00      	nop

00006020 <ada__tags__dispatch_table_wrapperIP>:
    6020:	2900      	cmp	r1, #0
    6022:	6001      	str	r1, [r0, #0]
    6024:	dd07      	ble.n	6036 <ada__tags__dispatch_table_wrapperIP+0x16>
    6026:	2300      	movs	r3, #0
    6028:	3014      	adds	r0, #20
    602a:	461a      	mov	r2, r3
    602c:	3301      	adds	r3, #1
    602e:	428b      	cmp	r3, r1
    6030:	f840 2b04 	str.w	r2, [r0], #4
    6034:	d1fa      	bne.n	602c <ada__tags__dispatch_table_wrapperIP+0xc>
    6036:	4770      	bx	lr

00006038 <ada__tags__no_dispatch_table_wrapperIP>:
    6038:	4770      	bx	lr
    603a:	bf00      	nop

0000603c <ada__tags__object_specific_data_arrayIP>:
    603c:	4770      	bx	lr
    603e:	bf00      	nop

00006040 <ada__tags__object_specific_dataIP>:
    6040:	6001      	str	r1, [r0, #0]
    6042:	4770      	bx	lr

00006044 <ada__tags__external_tag_htable__TtableBIPXn>:
    6044:	780b      	ldrb	r3, [r1, #0]
    6046:	784a      	ldrb	r2, [r1, #1]
    6048:	b25b      	sxtb	r3, r3
    604a:	b252      	sxtb	r2, r2
    604c:	4293      	cmp	r3, r2
    604e:	dc08      	bgt.n	6062 <ada__tags__external_tag_htable__TtableBIPXn+0x1e>
    6050:	eba0 0083 	sub.w	r0, r0, r3, lsl #2
    6054:	2100      	movs	r1, #0
    6056:	3b01      	subs	r3, #1
    6058:	3301      	adds	r3, #1
    605a:	4293      	cmp	r3, r2
    605c:	f840 1023 	str.w	r1, [r0, r3, lsl #2]
    6060:	d1fa      	bne.n	6058 <ada__tags__external_tag_htable__TtableBIPXn+0x14>
    6062:	4770      	bx	lr

00006064 <ada__tags__external_tag_htable__get_firstXn>:
    6064:	b470      	push	{r4, r5, r6}
    6066:	f642 4200 	movw	r2, #11264	; 0x2c00
    606a:	f240 1474 	movw	r4, #372	; 0x174
    606e:	f6c0 0200 	movt	r2, #2048	; 0x800
    6072:	f240 1670 	movw	r6, #368	; 0x170
    6076:	f642 5500 	movw	r5, #11520	; 0x2d00
    607a:	2301      	movs	r3, #1
    607c:	f6c0 0400 	movt	r4, #2048	; 0x800
    6080:	f6c0 0600 	movt	r6, #2048	; 0x800
    6084:	6810      	ldr	r0, [r2, #0]
    6086:	f6c0 0500 	movt	r5, #2048	; 0x800
    608a:	6020      	str	r0, [r4, #0]
    608c:	7033      	strb	r3, [r6, #0]
    608e:	702b      	strb	r3, [r5, #0]
    6090:	b968      	cbnz	r0, 60ae <ada__tags__external_tag_htable__get_firstXn+0x4a>
    6092:	3204      	adds	r2, #4
    6094:	2102      	movs	r1, #2
    6096:	e002      	b.n	609e <ada__tags__external_tag_htable__get_firstXn+0x3a>
    6098:	2b41      	cmp	r3, #65	; 0x41
    609a:	d00a      	beq.n	60b2 <ada__tags__external_tag_htable__get_firstXn+0x4e>
    609c:	4619      	mov	r1, r3
    609e:	6810      	ldr	r0, [r2, #0]
    60a0:	1c4b      	adds	r3, r1, #1
    60a2:	3204      	adds	r2, #4
    60a4:	b2db      	uxtb	r3, r3
    60a6:	2800      	cmp	r0, #0
    60a8:	d0f6      	beq.n	6098 <ada__tags__external_tag_htable__get_firstXn+0x34>
    60aa:	7029      	strb	r1, [r5, #0]
    60ac:	6020      	str	r0, [r4, #0]
    60ae:	bc70      	pop	{r4, r5, r6}
    60b0:	4770      	bx	lr
    60b2:	7029      	strb	r1, [r5, #0]
    60b4:	6020      	str	r0, [r4, #0]
    60b6:	7030      	strb	r0, [r6, #0]
    60b8:	bc70      	pop	{r4, r5, r6}
    60ba:	4770      	bx	lr

000060bc <ada__tags__external_tag_htable__get_nextXn>:
    60bc:	b4f0      	push	{r4, r5, r6, r7}
    60be:	f240 1670 	movw	r6, #368	; 0x170
    60c2:	f6c0 0600 	movt	r6, #2048	; 0x800
    60c6:	7830      	ldrb	r0, [r6, #0]
    60c8:	b338      	cbz	r0, 611a <ada__tags__external_tag_htable__get_nextXn+0x5e>
    60ca:	f240 1574 	movw	r5, #372	; 0x174
    60ce:	f6c0 0500 	movt	r5, #2048	; 0x800
    60d2:	682b      	ldr	r3, [r5, #0]
    60d4:	f853 3c04 	ldr.w	r3, [r3, #-4]
    60d8:	695b      	ldr	r3, [r3, #20]
    60da:	6818      	ldr	r0, [r3, #0]
    60dc:	6028      	str	r0, [r5, #0]
    60de:	b9e0      	cbnz	r0, 611a <ada__tags__external_tag_htable__get_nextXn+0x5e>
    60e0:	f642 5700 	movw	r7, #11520	; 0x2d00
    60e4:	f6c0 0700 	movt	r7, #2048	; 0x800
    60e8:	7839      	ldrb	r1, [r7, #0]
    60ea:	2940      	cmp	r1, #64	; 0x40
    60ec:	bf1c      	itt	ne
    60ee:	f642 4400 	movwne	r4, #11264	; 0x2c00
    60f2:	f6c0 0400 	movtne	r4, #2048	; 0x800
    60f6:	d102      	bne.n	60fe <ada__tags__external_tag_htable__get_nextXn+0x42>
    60f8:	e013      	b.n	6122 <ada__tags__external_tag_htable__get_nextXn+0x66>
    60fa:	2b40      	cmp	r3, #64	; 0x40
    60fc:	d00f      	beq.n	611e <ada__tags__external_tag_htable__get_nextXn+0x62>
    60fe:	1c4b      	adds	r3, r1, #1
    6100:	b2db      	uxtb	r3, r3
    6102:	4619      	mov	r1, r3
    6104:	b25a      	sxtb	r2, r3
    6106:	f102 4280 	add.w	r2, r2, #1073741824	; 0x40000000
    610a:	3a01      	subs	r2, #1
    610c:	b2db      	uxtb	r3, r3
    610e:	f854 0022 	ldr.w	r0, [r4, r2, lsl #2]
    6112:	2800      	cmp	r0, #0
    6114:	d0f1      	beq.n	60fa <ada__tags__external_tag_htable__get_nextXn+0x3e>
    6116:	703b      	strb	r3, [r7, #0]
    6118:	6028      	str	r0, [r5, #0]
    611a:	bcf0      	pop	{r4, r5, r6, r7}
    611c:	4770      	bx	lr
    611e:	703b      	strb	r3, [r7, #0]
    6120:	6028      	str	r0, [r5, #0]
    6122:	2300      	movs	r3, #0
    6124:	4618      	mov	r0, r3
    6126:	7033      	strb	r3, [r6, #0]
    6128:	bcf0      	pop	{r4, r5, r6, r7}
    612a:	4770      	bx	lr

0000612c <ada__tags__external_tag_htable__get_non_nullXn>:
    612c:	b470      	push	{r4, r5, r6}
    612e:	f240 1574 	movw	r5, #372	; 0x174
    6132:	f6c0 0500 	movt	r5, #2048	; 0x800
    6136:	6828      	ldr	r0, [r5, #0]
    6138:	b9e8      	cbnz	r0, 6176 <ada__tags__external_tag_htable__get_non_nullXn+0x4a>
    613a:	f642 5600 	movw	r6, #11520	; 0x2d00
    613e:	f6c0 0600 	movt	r6, #2048	; 0x800
    6142:	7831      	ldrb	r1, [r6, #0]
    6144:	2940      	cmp	r1, #64	; 0x40
    6146:	bf1c      	itt	ne
    6148:	f642 4400 	movwne	r4, #11264	; 0x2c00
    614c:	f6c0 0400 	movtne	r4, #2048	; 0x800
    6150:	d102      	bne.n	6158 <ada__tags__external_tag_htable__get_non_nullXn+0x2c>
    6152:	e014      	b.n	617e <ada__tags__external_tag_htable__get_non_nullXn+0x52>
    6154:	2b40      	cmp	r3, #64	; 0x40
    6156:	d010      	beq.n	617a <ada__tags__external_tag_htable__get_non_nullXn+0x4e>
    6158:	1c4b      	adds	r3, r1, #1
    615a:	b2db      	uxtb	r3, r3
    615c:	4619      	mov	r1, r3
    615e:	b25a      	sxtb	r2, r3
    6160:	f102 4280 	add.w	r2, r2, #1073741824	; 0x40000000
    6164:	3a01      	subs	r2, #1
    6166:	b2db      	uxtb	r3, r3
    6168:	f854 2022 	ldr.w	r2, [r4, r2, lsl #2]
    616c:	2a00      	cmp	r2, #0
    616e:	d0f1      	beq.n	6154 <ada__tags__external_tag_htable__get_non_nullXn+0x28>
    6170:	4610      	mov	r0, r2
    6172:	7033      	strb	r3, [r6, #0]
    6174:	602a      	str	r2, [r5, #0]
    6176:	bc70      	pop	{r4, r5, r6}
    6178:	4770      	bx	lr
    617a:	7033      	strb	r3, [r6, #0]
    617c:	602a      	str	r2, [r5, #0]
    617e:	f240 1370 	movw	r3, #368	; 0x170
    6182:	2200      	movs	r2, #0
    6184:	f6c0 0300 	movt	r3, #2048	; 0x800
    6188:	701a      	strb	r2, [r3, #0]
    618a:	bc70      	pop	{r4, r5, r6}
    618c:	4770      	bx	lr
    618e:	bf00      	nop

00006190 <ada__tags__external_tag_htable__resetXn>:
    6190:	f642 4300 	movw	r3, #11264	; 0x2c00
    6194:	f6c0 0300 	movt	r3, #2048	; 0x800
    6198:	2100      	movs	r1, #0
    619a:	f503 7280 	add.w	r2, r3, #256	; 0x100
    619e:	f843 1b04 	str.w	r1, [r3], #4
    61a2:	4293      	cmp	r3, r2
    61a4:	d1fb      	bne.n	619e <ada__tags__external_tag_htable__resetXn+0xe>
    61a6:	4770      	bx	lr

000061a8 <ada__tags__htable_subprograms__equalXn>:
    61a8:	7803      	ldrb	r3, [r0, #0]
    61aa:	780a      	ldrb	r2, [r1, #0]
    61ac:	4293      	cmp	r3, r2
    61ae:	d112      	bne.n	61d6 <ada__tags__htable_subprograms__equalXn+0x2e>
    61b0:	b19b      	cbz	r3, 61da <ada__tags__htable_subprograms__equalXn+0x32>
    61b2:	b410      	push	{r4}
    61b4:	2301      	movs	r3, #1
    61b6:	e000      	b.n	61ba <ada__tags__htable_subprograms__equalXn+0x12>
    61b8:	b14a      	cbz	r2, 61ce <ada__tags__htable_subprograms__equalXn+0x26>
    61ba:	5cc2      	ldrb	r2, [r0, r3]
    61bc:	5ccc      	ldrb	r4, [r1, r3]
    61be:	42a2      	cmp	r2, r4
    61c0:	f103 0301 	add.w	r3, r3, #1
    61c4:	d0f8      	beq.n	61b8 <ada__tags__htable_subprograms__equalXn+0x10>
    61c6:	2000      	movs	r0, #0
    61c8:	f85d 4b04 	ldr.w	r4, [sp], #4
    61cc:	4770      	bx	lr
    61ce:	2001      	movs	r0, #1
    61d0:	f85d 4b04 	ldr.w	r4, [sp], #4
    61d4:	4770      	bx	lr
    61d6:	2000      	movs	r0, #0
    61d8:	4770      	bx	lr
    61da:	2001      	movs	r0, #1
    61dc:	4770      	bx	lr
    61de:	bf00      	nop

000061e0 <ada__tags__htable_subprograms__get_ht_linkXn>:
    61e0:	f850 3c04 	ldr.w	r3, [r0, #-4]
    61e4:	695b      	ldr	r3, [r3, #20]
    61e6:	6818      	ldr	r0, [r3, #0]
    61e8:	4770      	bx	lr
    61ea:	bf00      	nop

000061ec <ada__tags__htable_subprograms__hashXn>:
    61ec:	b430      	push	{r4, r5}
    61ee:	7804      	ldrb	r4, [r0, #0]
    61f0:	b1d4      	cbz	r4, 6228 <ada__tags__htable_subprograms__hashXn+0x3c>
    61f2:	1c45      	adds	r5, r0, #1
    61f4:	4629      	mov	r1, r5
    61f6:	2201      	movs	r2, #1
    61f8:	3201      	adds	r2, #1
    61fa:	f811 3b01 	ldrb.w	r3, [r1], #1
    61fe:	2b00      	cmp	r3, #0
    6200:	d1fa      	bne.n	61f8 <ada__tags__htable_subprograms__hashXn+0xc>
    6202:	3a01      	subs	r2, #1
    6204:	4402      	add	r2, r0
    6206:	4628      	mov	r0, r5
    6208:	e001      	b.n	620e <ada__tags__htable_subprograms__hashXn+0x22>
    620a:	f810 4b01 	ldrb.w	r4, [r0], #1
    620e:	0419      	lsls	r1, r3, #16
    6210:	eb01 1183 	add.w	r1, r1, r3, lsl #6
    6214:	4290      	cmp	r0, r2
    6216:	440c      	add	r4, r1
    6218:	eba4 0303 	sub.w	r3, r4, r3
    621c:	d1f5      	bne.n	620a <ada__tags__htable_subprograms__hashXn+0x1e>
    621e:	f003 033f 	and.w	r3, r3, #63	; 0x3f
    6222:	1c58      	adds	r0, r3, #1
    6224:	bc30      	pop	{r4, r5}
    6226:	4770      	bx	lr
    6228:	2001      	movs	r0, #1
    622a:	e7fb      	b.n	6224 <ada__tags__htable_subprograms__hashXn+0x38>

0000622c <ada__tags__external_tag_htable__getXn>:
    622c:	b5f8      	push	{r3, r4, r5, r6, r7, lr}
    622e:	4605      	mov	r5, r0
    6230:	f7ff ffdc 	bl	61ec <ada__tags__htable_subprograms__hashXn>
    6234:	f642 4200 	movw	r2, #11264	; 0x2c00
    6238:	f6c0 0200 	movt	r2, #2048	; 0x800
    623c:	b240      	sxtb	r0, r0
    623e:	f100 4380 	add.w	r3, r0, #1073741824	; 0x40000000
    6242:	3b01      	subs	r3, #1
    6244:	f852 0023 	ldr.w	r0, [r2, r3, lsl #2]
    6248:	b1a0      	cbz	r0, 6274 <ada__tags__external_tag_htable__getXn+0x48>
    624a:	782f      	ldrb	r7, [r5, #0]
    624c:	f850 6c04 	ldr.w	r6, [r0, #-4]
    6250:	6934      	ldr	r4, [r6, #16]
    6252:	7823      	ldrb	r3, [r4, #0]
    6254:	42bb      	cmp	r3, r7
    6256:	d109      	bne.n	626c <ada__tags__external_tag_htable__getXn+0x40>
    6258:	b167      	cbz	r7, 6274 <ada__tags__external_tag_htable__getXn+0x48>
    625a:	2301      	movs	r3, #1
    625c:	e000      	b.n	6260 <ada__tags__external_tag_htable__getXn+0x34>
    625e:	b14a      	cbz	r2, 6274 <ada__tags__external_tag_htable__getXn+0x48>
    6260:	5ce2      	ldrb	r2, [r4, r3]
    6262:	5d59      	ldrb	r1, [r3, r5]
    6264:	428a      	cmp	r2, r1
    6266:	f103 0301 	add.w	r3, r3, #1
    626a:	d0f8      	beq.n	625e <ada__tags__external_tag_htable__getXn+0x32>
    626c:	6973      	ldr	r3, [r6, #20]
    626e:	6818      	ldr	r0, [r3, #0]
    6270:	2800      	cmp	r0, #0
    6272:	d1eb      	bne.n	624c <ada__tags__external_tag_htable__getXn+0x20>
    6274:	bdf8      	pop	{r3, r4, r5, r6, r7, pc}
    6276:	bf00      	nop

00006278 <ada__tags__external_tag_htable__presentXn>:
    6278:	b508      	push	{r3, lr}
    627a:	f7ff ffd7 	bl	622c <ada__tags__external_tag_htable__getXn>
    627e:	3000      	adds	r0, #0
    6280:	bf18      	it	ne
    6282:	2001      	movne	r0, #1
    6284:	bd08      	pop	{r3, pc}
    6286:	bf00      	nop

00006288 <ada__tags__external_tag_htable__removeXn>:
    6288:	b5f8      	push	{r3, r4, r5, r6, r7, lr}
    628a:	4605      	mov	r5, r0
    628c:	f7ff ffae 	bl	61ec <ada__tags__htable_subprograms__hashXn>
    6290:	f642 4700 	movw	r7, #11264	; 0x2c00
    6294:	f6c0 0700 	movt	r7, #2048	; 0x800
    6298:	b240      	sxtb	r0, r0
    629a:	f100 4680 	add.w	r6, r0, #1073741824	; 0x40000000
    629e:	3e01      	subs	r6, #1
    62a0:	f857 0026 	ldr.w	r0, [r7, r6, lsl #2]
    62a4:	b370      	cbz	r0, 6304 <ada__tags__external_tag_htable__removeXn+0x7c>
    62a6:	f850 cc04 	ldr.w	ip, [r0, #-4]
    62aa:	f895 e000 	ldrb.w	lr, [r5]
    62ae:	f8dc 4010 	ldr.w	r4, [ip, #16]
    62b2:	7823      	ldrb	r3, [r4, #0]
    62b4:	4573      	cmp	r3, lr
    62b6:	d10b      	bne.n	62d0 <ada__tags__external_tag_htable__removeXn+0x48>
    62b8:	f1be 0f00 	cmp.w	lr, #0
    62bc:	d023      	beq.n	6306 <ada__tags__external_tag_htable__removeXn+0x7e>
    62be:	2301      	movs	r3, #1
    62c0:	e000      	b.n	62c4 <ada__tags__external_tag_htable__removeXn+0x3c>
    62c2:	b302      	cbz	r2, 6306 <ada__tags__external_tag_htable__removeXn+0x7e>
    62c4:	5ce2      	ldrb	r2, [r4, r3]
    62c6:	5ce9      	ldrb	r1, [r5, r3]
    62c8:	428a      	cmp	r2, r1
    62ca:	f103 0301 	add.w	r3, r3, #1
    62ce:	d0f8      	beq.n	62c2 <ada__tags__external_tag_htable__removeXn+0x3a>
    62d0:	f850 3c04 	ldr.w	r3, [r0, #-4]
    62d4:	695e      	ldr	r6, [r3, #20]
    62d6:	6830      	ldr	r0, [r6, #0]
    62d8:	b1a0      	cbz	r0, 6304 <ada__tags__external_tag_htable__removeXn+0x7c>
    62da:	f850 7c04 	ldr.w	r7, [r0, #-4]
    62de:	693c      	ldr	r4, [r7, #16]
    62e0:	7823      	ldrb	r3, [r4, #0]
    62e2:	459e      	cmp	lr, r3
    62e4:	d1f4      	bne.n	62d0 <ada__tags__external_tag_htable__removeXn+0x48>
    62e6:	f1be 0f00 	cmp.w	lr, #0
    62ea:	d008      	beq.n	62fe <ada__tags__external_tag_htable__removeXn+0x76>
    62ec:	2301      	movs	r3, #1
    62ee:	5ce2      	ldrb	r2, [r4, r3]
    62f0:	5ce9      	ldrb	r1, [r5, r3]
    62f2:	428a      	cmp	r2, r1
    62f4:	f103 0301 	add.w	r3, r3, #1
    62f8:	d1ea      	bne.n	62d0 <ada__tags__external_tag_htable__removeXn+0x48>
    62fa:	2a00      	cmp	r2, #0
    62fc:	d1f7      	bne.n	62ee <ada__tags__external_tag_htable__removeXn+0x66>
    62fe:	697b      	ldr	r3, [r7, #20]
    6300:	681b      	ldr	r3, [r3, #0]
    6302:	6033      	str	r3, [r6, #0]
    6304:	bdf8      	pop	{r3, r4, r5, r6, r7, pc}
    6306:	f8dc 3014 	ldr.w	r3, [ip, #20]
    630a:	681b      	ldr	r3, [r3, #0]
    630c:	f847 3026 	str.w	r3, [r7, r6, lsl #2]
    6310:	bdf8      	pop	{r3, r4, r5, r6, r7, pc}
    6312:	bf00      	nop

00006314 <ada__tags__external_tag_htable__setXn>:
    6314:	b538      	push	{r3, r4, r5, lr}
    6316:	f850 5c04 	ldr.w	r5, [r0, #-4]
    631a:	4604      	mov	r4, r0
    631c:	6928      	ldr	r0, [r5, #16]
    631e:	f7ff ff65 	bl	61ec <ada__tags__htable_subprograms__hashXn>
    6322:	f06f 4240 	mvn.w	r2, #3221225472	; 0xc0000000
    6326:	f642 4300 	movw	r3, #11264	; 0x2c00
    632a:	f6c0 0300 	movt	r3, #2048	; 0x800
    632e:	6969      	ldr	r1, [r5, #20]
    6330:	fa42 f080 	sxtab	r0, r2, r0
    6334:	f853 2020 	ldr.w	r2, [r3, r0, lsl #2]
    6338:	600a      	str	r2, [r1, #0]
    633a:	f843 4020 	str.w	r4, [r3, r0, lsl #2]
    633e:	bd38      	pop	{r3, r4, r5, pc}

00006340 <ada__tags__external_tag_htable__set_if_not_presentXn>:
    6340:	e92d 43f8 	stmdb	sp!, {r3, r4, r5, r6, r7, r8, r9, lr}
    6344:	f850 8c04 	ldr.w	r8, [r0, #-4]
    6348:	4681      	mov	r9, r0
    634a:	f8d8 5010 	ldr.w	r5, [r8, #16]
    634e:	4628      	mov	r0, r5
    6350:	f7ff ff4c 	bl	61ec <ada__tags__htable_subprograms__hashXn>
    6354:	f642 4c00 	movw	ip, #11264	; 0x2c00
    6358:	f6c0 0c00 	movt	ip, #2048	; 0x800
    635c:	b240      	sxtb	r0, r0
    635e:	f100 4e80 	add.w	lr, r0, #1073741824	; 0x40000000
    6362:	f10e 3eff 	add.w	lr, lr, #4294967295
    6366:	f85c 002e 	ldr.w	r0, [ip, lr, lsl #2]
    636a:	b1a8      	cbz	r0, 6398 <ada__tags__external_tag_htable__set_if_not_presentXn+0x58>
    636c:	4603      	mov	r3, r0
    636e:	782f      	ldrb	r7, [r5, #0]
    6370:	f853 6c04 	ldr.w	r6, [r3, #-4]
    6374:	6934      	ldr	r4, [r6, #16]
    6376:	7823      	ldrb	r3, [r4, #0]
    6378:	42bb      	cmp	r3, r7
    637a:	d109      	bne.n	6390 <ada__tags__external_tag_htable__set_if_not_presentXn+0x50>
    637c:	b1af      	cbz	r7, 63aa <ada__tags__external_tag_htable__set_if_not_presentXn+0x6a>
    637e:	2301      	movs	r3, #1
    6380:	e000      	b.n	6384 <ada__tags__external_tag_htable__set_if_not_presentXn+0x44>
    6382:	b192      	cbz	r2, 63aa <ada__tags__external_tag_htable__set_if_not_presentXn+0x6a>
    6384:	5ce2      	ldrb	r2, [r4, r3]
    6386:	5ce9      	ldrb	r1, [r5, r3]
    6388:	428a      	cmp	r2, r1
    638a:	f103 0301 	add.w	r3, r3, #1
    638e:	d0f8      	beq.n	6382 <ada__tags__external_tag_htable__set_if_not_presentXn+0x42>
    6390:	6973      	ldr	r3, [r6, #20]
    6392:	681b      	ldr	r3, [r3, #0]
    6394:	2b00      	cmp	r3, #0
    6396:	d1eb      	bne.n	6370 <ada__tags__external_tag_htable__set_if_not_presentXn+0x30>
    6398:	f8d8 2014 	ldr.w	r2, [r8, #20]
    639c:	2301      	movs	r3, #1
    639e:	6010      	str	r0, [r2, #0]
    63a0:	f84c 902e 	str.w	r9, [ip, lr, lsl #2]
    63a4:	4618      	mov	r0, r3
    63a6:	e8bd 83f8 	ldmia.w	sp!, {r3, r4, r5, r6, r7, r8, r9, pc}
    63aa:	2300      	movs	r3, #0
    63ac:	4618      	mov	r0, r3
    63ae:	e8bd 83f8 	ldmia.w	sp!, {r3, r4, r5, r6, r7, r8, r9, pc}
    63b2:	bf00      	nop

000063b4 <ada__tags__htable_subprograms__set_ht_linkXn>:
    63b4:	f850 3c04 	ldr.w	r3, [r0, #-4]
    63b8:	695b      	ldr	r3, [r3, #20]
    63ba:	6019      	str	r1, [r3, #0]
    63bc:	4770      	bx	lr
    63be:	bf00      	nop

000063c0 <ada__tags__cw_membership>:
    63c0:	f850 0c04 	ldr.w	r0, [r0, #-4]
    63c4:	f851 2c04 	ldr.w	r2, [r1, #-4]
    63c8:	6803      	ldr	r3, [r0, #0]
    63ca:	6812      	ldr	r2, [r2, #0]
    63cc:	1a9b      	subs	r3, r3, r2
    63ce:	bf57      	itett	pl
    63d0:	330a      	addpl	r3, #10
    63d2:	2000      	movmi	r0, #0
    63d4:	f850 0023 	ldrpl.w	r0, [r0, r3, lsl #2]
    63d8:	1a08      	subpl	r0, r1, r0
    63da:	bf5c      	itt	pl
    63dc:	fab0 f080 	clzpl	r0, r0
    63e0:	0940      	lsrpl	r0, r0, #5
    63e2:	4770      	bx	lr

000063e4 <ada__tags__get_external_tag>:
    63e4:	f850 3c04 	ldr.w	r3, [r0, #-4]
    63e8:	6918      	ldr	r0, [r3, #16]
    63ea:	4770      	bx	lr

000063ec <ada__tags__is_primary_dt>:
    63ec:	f810 0c10 	ldrb.w	r0, [r0, #-16]
    63f0:	f1a0 0001 	sub.w	r0, r0, #1
    63f4:	fab0 f080 	clz	r0, r0
    63f8:	0940      	lsrs	r0, r0, #5
    63fa:	4770      	bx	lr

000063fc <ada__tags__osd>:
    63fc:	f850 0c04 	ldr.w	r0, [r0, #-4]
    6400:	4770      	bx	lr
    6402:	bf00      	nop

00006404 <ada__tags__ssd>:
    6404:	f850 3c04 	ldr.w	r3, [r0, #-4]
    6408:	6a58      	ldr	r0, [r3, #36]	; 0x24
    640a:	4770      	bx	lr

0000640c <ada__tags__base_address>:
    640c:	6803      	ldr	r3, [r0, #0]
    640e:	f06f 4200 	mvn.w	r2, #2147483648	; 0x80000000
    6412:	f853 3c08 	ldr.w	r3, [r3, #-8]
    6416:	4293      	cmp	r3, r2
    6418:	bf08      	it	eq
    641a:	6843      	ldreq	r3, [r0, #4]
    641c:	1ac0      	subs	r0, r0, r3
    641e:	4770      	bx	lr

00006420 <ada__tags__check_tsd>:
    6420:	b5f0      	push	{r4, r5, r6, r7, lr}
    6422:	b083      	sub	sp, #12
    6424:	af00      	add	r7, sp, #0
    6426:	6905      	ldr	r5, [r0, #16]
    6428:	782b      	ldrb	r3, [r5, #0]
    642a:	b173      	cbz	r3, 644a <ada__tags__check_tsd+0x2a>
    642c:	1c6b      	adds	r3, r5, #1
    642e:	2401      	movs	r4, #1
    6430:	3401      	adds	r4, #1
    6432:	f813 2b01 	ldrb.w	r2, [r3], #1
    6436:	2a00      	cmp	r2, #0
    6438:	d1fa      	bne.n	6430 <ada__tags__check_tsd+0x10>
    643a:	1e66      	subs	r6, r4, #1
    643c:	4628      	mov	r0, r5
    643e:	f7ff fef5 	bl	622c <ada__tags__external_tag_htable__getXn>
    6442:	b928      	cbnz	r0, 6450 <ada__tags__check_tsd+0x30>
    6444:	370c      	adds	r7, #12
    6446:	46bd      	mov	sp, r7
    6448:	bdf0      	pop	{r4, r5, r6, r7, pc}
    644a:	461e      	mov	r6, r3
    644c:	2401      	movs	r4, #1
    644e:	e7f5      	b.n	643c <ada__tags__check_tsd+0x1c>
    6450:	f64c 6e58 	movw	lr, #52824	; 0xce58
    6454:	3419      	adds	r4, #25
    6456:	f2c0 0e00 	movt	lr, #0
    645a:	ea24 7ce4 	bic.w	ip, r4, r4, asr #31
    645e:	f10c 0c07 	add.w	ip, ip, #7
    6462:	e8be 000f 	ldmia.w	lr!, {r0, r1, r2, r3}
    6466:	f02c 0c07 	bic.w	ip, ip, #7
    646a:	ebad 0d0c 	sub.w	sp, sp, ip
    646e:	9000      	str	r0, [sp, #0]
    6470:	9101      	str	r1, [sp, #4]
    6472:	e8be 0003 	ldmia.w	lr!, {r0, r1}
    6476:	f89e e000 	ldrb.w	lr, [lr]
    647a:	9202      	str	r2, [sp, #8]
    647c:	9004      	str	r0, [sp, #16]
    647e:	f10d 0019 	add.w	r0, sp, #25
    6482:	ea26 72e6 	bic.w	r2, r6, r6, asr #31
    6486:	9105      	str	r1, [sp, #20]
    6488:	2622      	movs	r6, #34	; 0x22
    648a:	4629      	mov	r1, r5
    648c:	eb0d 0504 	add.w	r5, sp, r4
    6490:	9303      	str	r3, [sp, #12]
    6492:	f88d e018 	strb.w	lr, [sp, #24]
    6496:	f001 fd69 	bl	7f6c <memmove>
    649a:	2101      	movs	r1, #1
    649c:	f240 1000 	movw	r0, #256	; 0x100
    64a0:	466a      	mov	r2, sp
    64a2:	f6c0 0000 	movt	r0, #2048	; 0x800
    64a6:	463b      	mov	r3, r7
    64a8:	f805 6c01 	strb.w	r6, [r5, #-1]
    64ac:	607c      	str	r4, [r7, #4]
    64ae:	6039      	str	r1, [r7, #0]
    64b0:	f7fe fe5e 	bl	5170 <__gnat_raise_exception>

000064b4 <ada__tags__displace>:
    64b4:	e92d 41f0 	stmdb	sp!, {r4, r5, r6, r7, r8, lr}
    64b8:	b330      	cbz	r0, 6508 <ada__tags__displace+0x54>
    64ba:	6803      	ldr	r3, [r0, #0]
    64bc:	f06f 4200 	mvn.w	r2, #2147483648	; 0x80000000
    64c0:	f853 3c08 	ldr.w	r3, [r3, #-8]
    64c4:	4293      	cmp	r3, r2
    64c6:	bf08      	it	eq
    64c8:	6843      	ldreq	r3, [r0, #4]
    64ca:	ebc3 0800 	rsb	r8, r3, r0
    64ce:	f8d8 0000 	ldr.w	r0, [r8]
    64d2:	f850 3c04 	ldr.w	r3, [r0, #-4]
    64d6:	6a1e      	ldr	r6, [r3, #32]
    64d8:	b1d6      	cbz	r6, 6510 <ada__tags__displace+0x5c>
    64da:	6837      	ldr	r7, [r6, #0]
    64dc:	2300      	movs	r3, #0
    64de:	e001      	b.n	64e4 <ada__tags__displace+0x30>
    64e0:	429f      	cmp	r7, r3
    64e2:	d015      	beq.n	6510 <ada__tags__displace+0x5c>
    64e4:	3301      	adds	r3, #1
    64e6:	eb03 0283 	add.w	r2, r3, r3, lsl #2
    64ea:	eb06 0282 	add.w	r2, r6, r2, lsl #2
    64ee:	f852 5c10 	ldr.w	r5, [r2, #-16]
    64f2:	428d      	cmp	r5, r1
    64f4:	d1f4      	bne.n	64e0 <ada__tags__displace+0x2c>
    64f6:	f812 3c0c 	ldrb.w	r3, [r2, #-12]
    64fa:	b1fb      	cbz	r3, 653c <ada__tags__displace+0x88>
    64fc:	f852 3c08 	ldr.w	r3, [r2, #-8]
    6500:	4498      	add	r8, r3
    6502:	4640      	mov	r0, r8
    6504:	e8bd 81f0 	ldmia.w	sp!, {r4, r5, r6, r7, r8, pc}
    6508:	4680      	mov	r8, r0
    650a:	4640      	mov	r0, r8
    650c:	e8bd 81f0 	ldmia.w	sp!, {r4, r5, r6, r7, r8, pc}
    6510:	f850 0c04 	ldr.w	r0, [r0, #-4]
    6514:	f851 2c04 	ldr.w	r2, [r1, #-4]
    6518:	6803      	ldr	r3, [r0, #0]
    651a:	6812      	ldr	r2, [r2, #0]
    651c:	1a9b      	subs	r3, r3, r2
    651e:	d404      	bmi.n	652a <ada__tags__displace+0x76>
    6520:	330a      	adds	r3, #10
    6522:	f850 3023 	ldr.w	r3, [r0, r3, lsl #2]
    6526:	4299      	cmp	r1, r3
    6528:	d0ef      	beq.n	650a <ada__tags__displace+0x56>
    652a:	4a07      	ldr	r2, [pc, #28]	; (6548 <ada__tags__displace+0x94>)
    652c:	f240 101c 	movw	r0, #284	; 0x11c
    6530:	f6c0 0000 	movt	r0, #2048	; 0x800
    6534:	f102 0330 	add.w	r3, r2, #48	; 0x30
    6538:	f7fe fe1a 	bl	5170 <__gnat_raise_exception>
    653c:	4640      	mov	r0, r8
    653e:	f852 3c04 	ldr.w	r3, [r2, #-4]
    6542:	4798      	blx	r3
    6544:	4480      	add	r8, r0
    6546:	e7e0      	b.n	650a <ada__tags__displace+0x56>
    6548:	0000ce74 	.word	0x0000ce74

0000654c <ada__tags__dt>:
    654c:	3814      	subs	r0, #20
    654e:	4770      	bx	lr

00006550 <ada__tags__iw_membership>:
    6550:	b430      	push	{r4, r5}
    6552:	6803      	ldr	r3, [r0, #0]
    6554:	f06f 4200 	mvn.w	r2, #2147483648	; 0x80000000
    6558:	f853 3c08 	ldr.w	r3, [r3, #-8]
    655c:	4293      	cmp	r3, r2
    655e:	bf08      	it	eq
    6560:	6843      	ldreq	r3, [r0, #4]
    6562:	1ac0      	subs	r0, r0, r3
    6564:	6803      	ldr	r3, [r0, #0]
    6566:	f853 0c04 	ldr.w	r0, [r3, #-4]
    656a:	6a04      	ldr	r4, [r0, #32]
    656c:	b184      	cbz	r4, 6590 <ada__tags__iw_membership+0x40>
    656e:	6825      	ldr	r5, [r4, #0]
    6570:	2300      	movs	r3, #0
    6572:	e001      	b.n	6578 <ada__tags__iw_membership+0x28>
    6574:	429d      	cmp	r5, r3
    6576:	d00b      	beq.n	6590 <ada__tags__iw_membership+0x40>
    6578:	3301      	adds	r3, #1
    657a:	eb03 0283 	add.w	r2, r3, r3, lsl #2
    657e:	eb04 0282 	add.w	r2, r4, r2, lsl #2
    6582:	f852 2c10 	ldr.w	r2, [r2, #-16]
    6586:	428a      	cmp	r2, r1
    6588:	d1f4      	bne.n	6574 <ada__tags__iw_membership+0x24>
    658a:	2001      	movs	r0, #1
    658c:	bc30      	pop	{r4, r5}
    658e:	4770      	bx	lr
    6590:	4603      	mov	r3, r0
    6592:	f04f 32ff 	mov.w	r2, #4294967295
    6596:	f853 4b28 	ldr.w	r4, [r3], #40
    659a:	e001      	b.n	65a0 <ada__tags__iw_membership+0x50>
    659c:	4294      	cmp	r4, r2
    659e:	d005      	beq.n	65ac <ada__tags__iw_membership+0x5c>
    65a0:	6818      	ldr	r0, [r3, #0]
    65a2:	3201      	adds	r2, #1
    65a4:	3304      	adds	r3, #4
    65a6:	4281      	cmp	r1, r0
    65a8:	d1f8      	bne.n	659c <ada__tags__iw_membership+0x4c>
    65aa:	e7ee      	b.n	658a <ada__tags__iw_membership+0x3a>
    65ac:	2000      	movs	r0, #0
    65ae:	bc30      	pop	{r4, r5}
    65b0:	4770      	bx	lr
    65b2:	bf00      	nop

000065b4 <ada__tags__expanded_name>:
    65b4:	e92d 43f8 	stmdb	sp!, {r3, r4, r5, r6, r7, r8, r9, lr}
    65b8:	b351      	cbz	r1, 6610 <ada__tags__expanded_name+0x5c>
    65ba:	f851 3c04 	ldr.w	r3, [r1, #-4]
    65be:	4606      	mov	r6, r0
    65c0:	68df      	ldr	r7, [r3, #12]
    65c2:	783b      	ldrb	r3, [r7, #0]
    65c4:	b303      	cbz	r3, 6608 <ada__tags__expanded_name+0x54>
    65c6:	1c7a      	adds	r2, r7, #1
    65c8:	2301      	movs	r3, #1
    65ca:	3301      	adds	r3, #1
    65cc:	f812 4b01 	ldrb.w	r4, [r2], #1
    65d0:	2c00      	cmp	r4, #0
    65d2:	d1fa      	bne.n	65ca <ada__tags__expanded_name+0x16>
    65d4:	1e5c      	subs	r4, r3, #1
    65d6:	ea24 79e4 	bic.w	r9, r4, r4, asr #31
    65da:	f109 000b 	add.w	r0, r9, #11
    65de:	f020 0003 	bic.w	r0, r0, #3
    65e2:	f7fb ffdd 	bl	25a0 <system__secondary_stack__ss_allocate>
    65e6:	2301      	movs	r3, #1
    65e8:	4639      	mov	r1, r7
    65ea:	464a      	mov	r2, r9
    65ec:	4605      	mov	r5, r0
    65ee:	f100 0808 	add.w	r8, r0, #8
    65f2:	6044      	str	r4, [r0, #4]
    65f4:	4640      	mov	r0, r8
    65f6:	602b      	str	r3, [r5, #0]
    65f8:	f7fb fc74 	bl	1ee4 <memcpy>
    65fc:	f8c6 8000 	str.w	r8, [r6]
    6600:	6075      	str	r5, [r6, #4]
    6602:	4630      	mov	r0, r6
    6604:	e8bd 83f8 	ldmia.w	sp!, {r3, r4, r5, r6, r7, r8, r9, pc}
    6608:	461c      	mov	r4, r3
    660a:	2008      	movs	r0, #8
    660c:	4699      	mov	r9, r3
    660e:	e7e8      	b.n	65e2 <ada__tags__expanded_name+0x2e>
    6610:	4a04      	ldr	r2, [pc, #16]	; (6624 <ada__tags__expanded_name+0x70>)
    6612:	f240 1078 	movw	r0, #376	; 0x178
    6616:	f6c0 0000 	movt	r0, #2048	; 0x800
    661a:	f102 0310 	add.w	r3, r2, #16
    661e:	f7fe fda7 	bl	5170 <__gnat_raise_exception>
    6622:	bf00      	nop
    6624:	0000ceac 	.word	0x0000ceac

00006628 <ada__tags__external_tag>:
    6628:	e92d 43f8 	stmdb	sp!, {r3, r4, r5, r6, r7, r8, r9, lr}
    662c:	b351      	cbz	r1, 6684 <ada__tags__external_tag+0x5c>
    662e:	f851 3c04 	ldr.w	r3, [r1, #-4]
    6632:	4606      	mov	r6, r0
    6634:	691f      	ldr	r7, [r3, #16]
    6636:	783b      	ldrb	r3, [r7, #0]
    6638:	b303      	cbz	r3, 667c <ada__tags__external_tag+0x54>
    663a:	1c7a      	adds	r2, r7, #1
    663c:	2301      	movs	r3, #1
    663e:	3301      	adds	r3, #1
    6640:	f812 4b01 	ldrb.w	r4, [r2], #1
    6644:	2c00      	cmp	r4, #0
    6646:	d1fa      	bne.n	663e <ada__tags__external_tag+0x16>
    6648:	1e5c      	subs	r4, r3, #1
    664a:	ea24 79e4 	bic.w	r9, r4, r4, asr #31
    664e:	f109 000b 	add.w	r0, r9, #11
    6652:	f020 0003 	bic.w	r0, r0, #3
    6656:	f7fb ffa3 	bl	25a0 <system__secondary_stack__ss_allocate>
    665a:	2301      	movs	r3, #1
    665c:	4639      	mov	r1, r7
    665e:	464a      	mov	r2, r9
    6660:	4605      	mov	r5, r0
    6662:	f100 0808 	add.w	r8, r0, #8
    6666:	6044      	str	r4, [r0, #4]
    6668:	4640      	mov	r0, r8
    666a:	602b      	str	r3, [r5, #0]
    666c:	f7fb fc3a 	bl	1ee4 <memcpy>
    6670:	f8c6 8000 	str.w	r8, [r6]
    6674:	6075      	str	r5, [r6, #4]
    6676:	4630      	mov	r0, r6
    6678:	e8bd 83f8 	ldmia.w	sp!, {r3, r4, r5, r6, r7, r8, r9, pc}
    667c:	461c      	mov	r4, r3
    667e:	2008      	movs	r0, #8
    6680:	4699      	mov	r9, r3
    6682:	e7e8      	b.n	6656 <ada__tags__external_tag+0x2e>
    6684:	4a04      	ldr	r2, [pc, #16]	; (6698 <ada__tags__external_tag+0x70>)
    6686:	f240 1078 	movw	r0, #376	; 0x178
    668a:	f6c0 0000 	movt	r0, #2048	; 0x800
    668e:	f1a2 0308 	sub.w	r3, r2, #8
    6692:	f7fe fd6d 	bl	5170 <__gnat_raise_exception>
    6696:	bf00      	nop
    6698:	0000cec4 	.word	0x0000cec4

0000669c <ada__tags__get_entry_index>:
    669c:	f850 3c04 	ldr.w	r3, [r0, #-4]
    66a0:	6a5b      	ldr	r3, [r3, #36]	; 0x24
    66a2:	eb03 01c1 	add.w	r1, r3, r1, lsl #3
    66a6:	f851 0c04 	ldr.w	r0, [r1, #-4]
    66aa:	4770      	bx	lr

000066ac <ada__tags__get_prim_op_kind>:
    66ac:	f850 3c04 	ldr.w	r3, [r0, #-4]
    66b0:	6a5b      	ldr	r3, [r3, #36]	; 0x24
    66b2:	f813 0031 	ldrb.w	r0, [r3, r1, lsl #3]
    66b6:	4770      	bx	lr

000066b8 <ada__tags__get_offset_index>:
    66b8:	f810 3c10 	ldrb.w	r3, [r0, #-16]
    66bc:	2b01      	cmp	r3, #1
    66be:	bf0e      	itee	eq
    66c0:	4608      	moveq	r0, r1
    66c2:	f850 3c04 	ldrne.w	r3, [r0, #-4]
    66c6:	f853 0021 	ldrne.w	r0, [r3, r1, lsl #2]
    66ca:	4770      	bx	lr

000066cc <ada__tags__get_tagged_kind>:
    66cc:	f810 0c0f 	ldrb.w	r0, [r0, #-15]
    66d0:	4770      	bx	lr
    66d2:	bf00      	nop

000066d4 <ada__tags__interface_ancestor_tags>:
    66d4:	e92d 4ff0 	stmdb	sp!, {r4, r5, r6, r7, r8, r9, sl, fp, lr}
    66d8:	b083      	sub	sp, #12
    66da:	af00      	add	r7, sp, #0
    66dc:	f851 3c04 	ldr.w	r3, [r1, #-4]
    66e0:	4681      	mov	r9, r0
    66e2:	f8d3 8020 	ldr.w	r8, [r3, #32]
    66e6:	f1b8 0f00 	cmp.w	r8, #0
    66ea:	d03d      	beq.n	6768 <ada__tags__interface_ancestor_tags+0x94>
    66ec:	f8d8 5000 	ldr.w	r5, [r8]
    66f0:	46ea      	mov	sl, sp
    66f2:	2d00      	cmp	r5, #0
    66f4:	ea4f 0b85 	mov.w	fp, r5, lsl #2
    66f8:	f10b 030a 	add.w	r3, fp, #10
    66fc:	f023 0307 	bic.w	r3, r3, #7
    6700:	ebad 0d03 	sub.w	sp, sp, r3
    6704:	bfc8      	it	gt
    6706:	2300      	movgt	r3, #0
    6708:	4669      	mov	r1, sp
    670a:	bfc8      	it	gt
    670c:	461a      	movgt	r2, r3
    670e:	dd04      	ble.n	671a <ada__tags__interface_ancestor_tags+0x46>
    6710:	f841 2023 	str.w	r2, [r1, r3, lsl #2]
    6714:	3301      	adds	r3, #1
    6716:	42ab      	cmp	r3, r5
    6718:	d1fa      	bne.n	6710 <ada__tags__interface_ancestor_tags+0x3c>
    671a:	460e      	mov	r6, r1
    671c:	2300      	movs	r3, #0
    671e:	3301      	adds	r3, #1
    6720:	429d      	cmp	r5, r3
    6722:	eb03 0483 	add.w	r4, r3, r3, lsl #2
    6726:	eb08 0484 	add.w	r4, r8, r4, lsl #2
    672a:	f854 2c10 	ldr.w	r2, [r4, #-16]
    672e:	f846 2b04 	str.w	r2, [r6], #4
    6732:	d1f4      	bne.n	671e <ada__tags__interface_ancestor_tags+0x4a>
    6734:	f10b 0008 	add.w	r0, fp, #8
    6738:	6079      	str	r1, [r7, #4]
    673a:	f7fb ff31 	bl	25a0 <system__secondary_stack__ss_allocate>
    673e:	2301      	movs	r3, #1
    6740:	465a      	mov	r2, fp
    6742:	6879      	ldr	r1, [r7, #4]
    6744:	4604      	mov	r4, r0
    6746:	f100 0608 	add.w	r6, r0, #8
    674a:	6045      	str	r5, [r0, #4]
    674c:	4630      	mov	r0, r6
    674e:	6023      	str	r3, [r4, #0]
    6750:	f7fb fbc8 	bl	1ee4 <memcpy>
    6754:	f8c9 6000 	str.w	r6, [r9]
    6758:	f8c9 4004 	str.w	r4, [r9, #4]
    675c:	46d5      	mov	sp, sl
    675e:	4648      	mov	r0, r9
    6760:	370c      	adds	r7, #12
    6762:	46bd      	mov	sp, r7
    6764:	e8bd 8ff0 	ldmia.w	sp!, {r4, r5, r6, r7, r8, r9, sl, fp, pc}
    6768:	2008      	movs	r0, #8
    676a:	f7fb ff19 	bl	25a0 <system__secondary_stack__ss_allocate>
    676e:	2201      	movs	r2, #1
    6770:	f100 0308 	add.w	r3, r0, #8
    6774:	f8c0 8004 	str.w	r8, [r0, #4]
    6778:	f8c9 0004 	str.w	r0, [r9, #4]
    677c:	6002      	str	r2, [r0, #0]
    677e:	f8c9 3000 	str.w	r3, [r9]
    6782:	4648      	mov	r0, r9
    6784:	370c      	adds	r7, #12
    6786:	46bd      	mov	sp, r7
    6788:	e8bd 8ff0 	ldmia.w	sp!, {r4, r5, r6, r7, r8, r9, sl, fp, pc}

0000678c <ada__tags__internal_tag>:
    678c:	e92d 47f0 	stmdb	sp!, {r4, r5, r6, r7, r8, r9, sl, lr}
    6790:	b08a      	sub	sp, #40	; 0x28
    6792:	af00      	add	r7, sp, #0
    6794:	684c      	ldr	r4, [r1, #4]
    6796:	4689      	mov	r9, r1
    6798:	680d      	ldr	r5, [r1, #0]
    679a:	4606      	mov	r6, r0
    679c:	f104 0801 	add.w	r8, r4, #1
    67a0:	4545      	cmp	r5, r8
    67a2:	bfda      	itte	le
    67a4:	ebc5 0308 	rsble	r3, r5, r8
    67a8:	3301      	addle	r3, #1
    67aa:	2300      	movgt	r3, #0
    67ac:	17e9      	asrs	r1, r5, #31
    67ae:	3307      	adds	r3, #7
    67b0:	f023 0307 	bic.w	r3, r3, #7
    67b4:	f115 000f 	adds.w	r0, r5, #15
    67b8:	f141 0100 	adc.w	r1, r1, #0
    67bc:	ebad 0d03 	sub.w	sp, sp, r3
    67c0:	42a0      	cmp	r0, r4
    67c2:	ea4f 73e4 	mov.w	r3, r4, asr #31
    67c6:	eb71 0303 	sbcs.w	r3, r1, r3
    67ca:	46ea      	mov	sl, sp
    67cc:	da2d      	bge.n	682a <ada__tags__internal_tag+0x9e>
    67ce:	4630      	mov	r0, r6
    67d0:	2210      	movs	r2, #16
    67d2:	4962      	ldr	r1, [pc, #392]	; (695c <ada__tags__internal_tag+0x1d0>)
    67d4:	f7fc fdfc 	bl	33d0 <memcmp>
    67d8:	bb38      	cbnz	r0, 682a <ada__tags__internal_tag+0x9e>
    67da:	f105 0e10 	add.w	lr, r5, #16
    67de:	4574      	cmp	r4, lr
    67e0:	f2c0 80b9 	blt.w	6956 <ada__tags__internal_tag+0x1ca>
    67e4:	7c33      	ldrb	r3, [r6, #16]
    67e6:	2b23      	cmp	r3, #35	; 0x23
    67e8:	bf18      	it	ne
    67ea:	1b71      	subne	r1, r6, r5
    67ec:	4673      	mov	r3, lr
    67ee:	d103      	bne.n	67f8 <ada__tags__internal_tag+0x6c>
    67f0:	e005      	b.n	67fe <ada__tags__internal_tag+0x72>
    67f2:	5cca      	ldrb	r2, [r1, r3]
    67f4:	2a23      	cmp	r2, #35	; 0x23
    67f6:	d002      	beq.n	67fe <ada__tags__internal_tag+0x72>
    67f8:	3301      	adds	r3, #1
    67fa:	429c      	cmp	r4, r3
    67fc:	daf9      	bge.n	67f2 <ada__tags__internal_tag+0x66>
    67fe:	f103 0c01 	add.w	ip, r3, #1
    6802:	4564      	cmp	r4, ip
    6804:	db4e      	blt.n	68a4 <ada__tags__internal_tag+0x118>
    6806:	ebc5 020c 	rsb	r2, r5, ip
    680a:	5cb2      	ldrb	r2, [r6, r2]
    680c:	2a23      	cmp	r2, #35	; 0x23
    680e:	d046      	beq.n	689e <ada__tags__internal_tag+0x112>
    6810:	3302      	adds	r3, #2
    6812:	e006      	b.n	6822 <ada__tags__internal_tag+0x96>
    6814:	3301      	adds	r3, #1
    6816:	1b5a      	subs	r2, r3, r5
    6818:	4432      	add	r2, r6
    681a:	f812 2c01 	ldrb.w	r2, [r2, #-1]
    681e:	2a23      	cmp	r2, #35	; 0x23
    6820:	d03d      	beq.n	689e <ada__tags__internal_tag+0x112>
    6822:	429c      	cmp	r4, r3
    6824:	469c      	mov	ip, r3
    6826:	daf5      	bge.n	6814 <ada__tags__internal_tag+0x88>
    6828:	e03c      	b.n	68a4 <ada__tags__internal_tag+0x118>
    682a:	42a5      	cmp	r5, r4
    682c:	dd0c      	ble.n	6848 <ada__tags__internal_tag+0xbc>
    682e:	ebc5 0508 	rsb	r5, r5, r8
    6832:	2300      	movs	r3, #0
    6834:	4650      	mov	r0, sl
    6836:	f80a 3005 	strb.w	r3, [sl, r5]
    683a:	f7ff fcf7 	bl	622c <ada__tags__external_tag_htable__getXn>
    683e:	b398      	cbz	r0, 68a8 <ada__tags__internal_tag+0x11c>
    6840:	3728      	adds	r7, #40	; 0x28
    6842:	46bd      	mov	sp, r7
    6844:	e8bd 87f0 	ldmia.w	sp!, {r4, r5, r6, r7, r8, r9, sl, pc}
    6848:	ebc5 0808 	rsb	r8, r5, r8
    684c:	4642      	mov	r2, r8
    684e:	4650      	mov	r0, sl
    6850:	4631      	mov	r1, r6
    6852:	f7fb fb47 	bl	1ee4 <memcpy>
    6856:	2300      	movs	r3, #0
    6858:	4650      	mov	r0, sl
    685a:	f80a 3008 	strb.w	r3, [sl, r8]
    685e:	f7ff fce5 	bl	622c <ada__tags__external_tag_htable__getXn>
    6862:	2800      	cmp	r0, #0
    6864:	d1ec      	bne.n	6840 <ada__tags__internal_tag+0xb4>
    6866:	1b65      	subs	r5, r4, r5
    6868:	f105 0816 	add.w	r8, r5, #22
    686c:	f8df e0f0 	ldr.w	lr, [pc, #240]	; 6960 <ada__tags__internal_tag+0x1d4>
    6870:	1c6c      	adds	r4, r5, #1
    6872:	ea28 75e8 	bic.w	r5, r8, r8, asr #31
    6876:	3507      	adds	r5, #7
    6878:	e8be 000f 	ldmia.w	lr!, {r0, r1, r2, r3}
    687c:	f89e c004 	ldrb.w	ip, [lr, #4]
    6880:	f025 0507 	bic.w	r5, r5, #7
    6884:	ebad 0d05 	sub.w	sp, sp, r5
    6888:	46e9      	mov	r9, sp
    688a:	9000      	str	r0, [sp, #0]
    688c:	f8de 0000 	ldr.w	r0, [lr]
    6890:	9101      	str	r1, [sp, #4]
    6892:	9202      	str	r2, [sp, #8]
    6894:	9303      	str	r3, [sp, #12]
    6896:	9004      	str	r0, [sp, #16]
    6898:	f88d c014 	strb.w	ip, [sp, #20]
    689c:	e014      	b.n	68c8 <ada__tags__internal_tag+0x13c>
    689e:	7c33      	ldrb	r3, [r6, #16]
    68a0:	2b31      	cmp	r3, #49	; 0x31
    68a2:	d024      	beq.n	68ee <ada__tags__internal_tag+0x162>
    68a4:	42ac      	cmp	r4, r5
    68a6:	dade      	bge.n	6866 <ada__tags__internal_tag+0xda>
    68a8:	f8df e0b4 	ldr.w	lr, [pc, #180]	; 6960 <ada__tags__internal_tag+0x1d4>
    68ac:	f107 0510 	add.w	r5, r7, #16
    68b0:	f04f 0815 	mov.w	r8, #21
    68b4:	2400      	movs	r4, #0
    68b6:	46a9      	mov	r9, r5
    68b8:	e8be 000f 	ldmia.w	lr!, {r0, r1, r2, r3}
    68bc:	c50f      	stmia	r5!, {r0, r1, r2, r3}
    68be:	e89e 0003 	ldmia.w	lr, {r0, r1}
    68c2:	f845 0b04 	str.w	r0, [r5], #4
    68c6:	7029      	strb	r1, [r5, #0]
    68c8:	4631      	mov	r1, r6
    68ca:	4622      	mov	r2, r4
    68cc:	f109 0015 	add.w	r0, r9, #21
    68d0:	f7fb fb08 	bl	1ee4 <memcpy>
    68d4:	2101      	movs	r1, #1
    68d6:	f240 1078 	movw	r0, #376	; 0x178
    68da:	464a      	mov	r2, r9
    68dc:	f6c0 0000 	movt	r0, #2048	; 0x800
    68e0:	f107 0308 	add.w	r3, r7, #8
    68e4:	f8c7 800c 	str.w	r8, [r7, #12]
    68e8:	60b9      	str	r1, [r7, #8]
    68ea:	f7fe fc41 	bl	5170 <__gnat_raise_exception>
    68ee:	f10e 0301 	add.w	r3, lr, #1
    68f2:	1b5b      	subs	r3, r3, r5
    68f4:	5cf3      	ldrb	r3, [r6, r3]
    68f6:	2b36      	cmp	r3, #54	; 0x36
    68f8:	d1d4      	bne.n	68a4 <ada__tags__internal_tag+0x118>
    68fa:	f10e 0302 	add.w	r3, lr, #2
    68fe:	1b5b      	subs	r3, r3, r5
    6900:	5cf3      	ldrb	r3, [r6, r3]
    6902:	2b23      	cmp	r3, #35	; 0x23
    6904:	d1ce      	bne.n	68a4 <ada__tags__internal_tag+0x118>
    6906:	f10c 30ff 	add.w	r0, ip, #4294967295
    690a:	f105 0313 	add.w	r3, r5, #19
    690e:	4298      	cmp	r0, r3
    6910:	db10      	blt.n	6934 <ada__tags__internal_tag+0x1a8>
    6912:	f105 0212 	add.w	r2, r5, #18
    6916:	ebc5 0806 	rsb	r8, r5, r6
    691a:	3201      	adds	r2, #1
    691c:	f818 3002 	ldrb.w	r3, [r8, r2]
    6920:	f023 0120 	bic.w	r1, r3, #32
    6924:	3941      	subs	r1, #65	; 0x41
    6926:	3b30      	subs	r3, #48	; 0x30
    6928:	2905      	cmp	r1, #5
    692a:	bf88      	it	hi
    692c:	2b09      	cmphi	r3, #9
    692e:	d8b9      	bhi.n	68a4 <ada__tags__internal_tag+0x118>
    6930:	4290      	cmp	r0, r2
    6932:	d1f2      	bne.n	691a <ada__tags__internal_tag+0x18e>
    6934:	f106 0010 	add.w	r0, r6, #16
    6938:	4639      	mov	r1, r7
    693a:	f8c7 e000 	str.w	lr, [r7]
    693e:	f8c7 c004 	str.w	ip, [r7, #4]
    6942:	f001 fed5 	bl	86f0 <system__val_uns__value_unsigned>
    6946:	2800      	cmp	r0, #0
    6948:	f47f af7a 	bne.w	6840 <ada__tags__internal_tag+0xb4>
    694c:	f8d9 4004 	ldr.w	r4, [r9, #4]
    6950:	f8d9 5000 	ldr.w	r5, [r9]
    6954:	e7a6      	b.n	68a4 <ada__tags__internal_tag+0x118>
    6956:	4673      	mov	r3, lr
    6958:	e751      	b.n	67fe <ada__tags__internal_tag+0x72>
    695a:	bf00      	nop
    695c:	0000ced4 	.word	0x0000ced4
    6960:	0000cee4 	.word	0x0000cee4

00006964 <ada__tags__is_descendant_at_same_level>:
    6964:	b410      	push	{r4}
    6966:	f850 2c04 	ldr.w	r2, [r0, #-4]
    696a:	f851 4c04 	ldr.w	r4, [r1, #-4]
    696e:	6813      	ldr	r3, [r2, #0]
    6970:	6820      	ldr	r0, [r4, #0]
    6972:	1a1b      	subs	r3, r3, r0
    6974:	d404      	bmi.n	6980 <ada__tags__is_descendant_at_same_level+0x1c>
    6976:	330a      	adds	r3, #10
    6978:	f852 3023 	ldr.w	r3, [r2, r3, lsl #2]
    697c:	4299      	cmp	r1, r3
    697e:	d003      	beq.n	6988 <ada__tags__is_descendant_at_same_level+0x24>
    6980:	2000      	movs	r0, #0
    6982:	f85d 4b04 	ldr.w	r4, [sp], #4
    6986:	4770      	bx	lr
    6988:	6853      	ldr	r3, [r2, #4]
    698a:	6860      	ldr	r0, [r4, #4]
    698c:	1a18      	subs	r0, r3, r0
    698e:	fab0 f080 	clz	r0, r0
    6992:	0940      	lsrs	r0, r0, #5
    6994:	f85d 4b04 	ldr.w	r4, [sp], #4
    6998:	4770      	bx	lr
    699a:	bf00      	nop

0000699c <ada__tags__descendant_tag>:
    699c:	b538      	push	{r3, r4, r5, lr}
    699e:	4614      	mov	r4, r2
    69a0:	f7ff fef4 	bl	678c <ada__tags__internal_tag>
    69a4:	4621      	mov	r1, r4
    69a6:	4605      	mov	r5, r0
    69a8:	f7ff ffdc 	bl	6964 <ada__tags__is_descendant_at_same_level>
    69ac:	b108      	cbz	r0, 69b2 <ada__tags__descendant_tag+0x16>
    69ae:	4628      	mov	r0, r5
    69b0:	bd38      	pop	{r3, r4, r5, pc}
    69b2:	4a04      	ldr	r2, [pc, #16]	; (69c4 <ada__tags__descendant_tag+0x28>)
    69b4:	f240 1078 	movw	r0, #376	; 0x178
    69b8:	f6c0 0000 	movt	r0, #2048	; 0x800
    69bc:	f1a2 0340 	sub.w	r3, r2, #64	; 0x40
    69c0:	f7fe fbd6 	bl	5170 <__gnat_raise_exception>
    69c4:	0000cefc 	.word	0x0000cefc

000069c8 <ada__tags__length>:
    69c8:	7803      	ldrb	r3, [r0, #0]
    69ca:	b143      	cbz	r3, 69de <ada__tags__length+0x16>
    69cc:	1c42      	adds	r2, r0, #1
    69ce:	2301      	movs	r3, #1
    69d0:	3301      	adds	r3, #1
    69d2:	f812 1b01 	ldrb.w	r1, [r2], #1
    69d6:	2900      	cmp	r1, #0
    69d8:	d1fa      	bne.n	69d0 <ada__tags__length+0x8>
    69da:	1e58      	subs	r0, r3, #1
    69dc:	4770      	bx	lr
    69de:	4618      	mov	r0, r3
    69e0:	e7fc      	b.n	69dc <ada__tags__length+0x14>
    69e2:	bf00      	nop

000069e4 <ada__tags__offset_to_top>:
    69e4:	6803      	ldr	r3, [r0, #0]
    69e6:	f06f 4200 	mvn.w	r2, #2147483648	; 0x80000000
    69ea:	f853 3c08 	ldr.w	r3, [r3, #-8]
    69ee:	4293      	cmp	r3, r2
    69f0:	bf08      	it	eq
    69f2:	6843      	ldreq	r3, [r0, #4]
    69f4:	4618      	mov	r0, r3
    69f6:	4770      	bx	lr

000069f8 <ada__tags__needs_finalization>:
    69f8:	f850 3c04 	ldr.w	r3, [r0, #-4]
    69fc:	7e98      	ldrb	r0, [r3, #26]
    69fe:	4770      	bx	lr

00006a00 <ada__tags__parent_size>:
    6a00:	b508      	push	{r3, lr}
    6a02:	f851 3c04 	ldr.w	r3, [r1, #-4]
    6a06:	6adb      	ldr	r3, [r3, #44]	; 0x2c
    6a08:	f853 3c04 	ldr.w	r3, [r3, #-4]
    6a0c:	69db      	ldr	r3, [r3, #28]
    6a0e:	4798      	blx	r3
    6a10:	bd08      	pop	{r3, pc}
    6a12:	bf00      	nop

00006a14 <ada__tags__parent_tag>:
    6a14:	b508      	push	{r3, lr}
    6a16:	b128      	cbz	r0, 6a24 <ada__tags__parent_tag+0x10>
    6a18:	f850 3c04 	ldr.w	r3, [r0, #-4]
    6a1c:	6818      	ldr	r0, [r3, #0]
    6a1e:	b100      	cbz	r0, 6a22 <ada__tags__parent_tag+0xe>
    6a20:	6ad8      	ldr	r0, [r3, #44]	; 0x2c
    6a22:	bd08      	pop	{r3, pc}
    6a24:	4a04      	ldr	r2, [pc, #16]	; (6a38 <ada__tags__parent_tag+0x24>)
    6a26:	f240 1078 	movw	r0, #376	; 0x178
    6a2a:	f6c0 0000 	movt	r0, #2048	; 0x800
    6a2e:	f1a2 0350 	sub.w	r3, r2, #80	; 0x50
    6a32:	f7fe fb9d 	bl	5170 <__gnat_raise_exception>
    6a36:	bf00      	nop
    6a38:	0000cf0c 	.word	0x0000cf0c

00006a3c <ada__tags__register_interface_offset>:
    6a3c:	b5f8      	push	{r3, r4, r5, r6, r7, lr}
    6a3e:	6800      	ldr	r0, [r0, #0]
    6a40:	f850 0c04 	ldr.w	r0, [r0, #-4]
    6a44:	6a07      	ldr	r7, [r0, #32]
    6a46:	b1ff      	cbz	r7, 6a88 <ada__tags__register_interface_offset+0x4c>
    6a48:	4696      	mov	lr, r2
    6a4a:	2000      	movs	r0, #0
    6a4c:	683e      	ldr	r6, [r7, #0]
    6a4e:	e001      	b.n	6a54 <ada__tags__register_interface_offset+0x18>
    6a50:	4286      	cmp	r6, r0
    6a52:	d019      	beq.n	6a88 <ada__tags__register_interface_offset+0x4c>
    6a54:	3001      	adds	r0, #1
    6a56:	eb00 0480 	add.w	r4, r0, r0, lsl #2
    6a5a:	eb07 0484 	add.w	r4, r7, r4, lsl #2
    6a5e:	f1a4 0514 	sub.w	r5, r4, #20
    6a62:	686a      	ldr	r2, [r5, #4]
    6a64:	428a      	cmp	r2, r1
    6a66:	d1f3      	bne.n	6a50 <ada__tags__register_interface_offset+0x14>
    6a68:	2b00      	cmp	r3, #0
    6a6a:	bf14      	ite	ne
    6a6c:	4672      	movne	r2, lr
    6a6e:	f04e 0201 	orreq.w	r2, lr, #1
    6a72:	b922      	cbnz	r2, 6a7e <ada__tags__register_interface_offset+0x42>
    6a74:	9b06      	ldr	r3, [sp, #24]
    6a76:	722a      	strb	r2, [r5, #8]
    6a78:	f844 3c04 	str.w	r3, [r4, #-4]
    6a7c:	bdf8      	pop	{r3, r4, r5, r6, r7, pc}
    6a7e:	2201      	movs	r2, #1
    6a80:	722a      	strb	r2, [r5, #8]
    6a82:	f844 3c08 	str.w	r3, [r4, #-8]
    6a86:	bdf8      	pop	{r3, r4, r5, r6, r7, pc}
    6a88:	4802      	ldr	r0, [pc, #8]	; (6a94 <ada__tags__register_interface_offset+0x58>)
    6a8a:	f240 3183 	movw	r1, #899	; 0x383
    6a8e:	f7fe fda5 	bl	55dc <__gnat_rcheck_PE_Explicit_Raise>
    6a92:	bf00      	nop
    6a94:	0000cf1c 	.word	0x0000cf1c

00006a98 <ada__tags__register_tag>:
    6a98:	f7ff bc3c 	b.w	6314 <ada__tags__external_tag_htable__setXn>

00006a9c <ada__tags__secondary_tag>:
    6a9c:	b538      	push	{r3, r4, r5, lr}
    6a9e:	f810 3c10 	ldrb.w	r3, [r0, #-16]
    6aa2:	3814      	subs	r0, #20
    6aa4:	2b01      	cmp	r3, #1
    6aa6:	d11b      	bne.n	6ae0 <ada__tags__secondary_tag+0x44>
    6aa8:	6903      	ldr	r3, [r0, #16]
    6aaa:	6a1c      	ldr	r4, [r3, #32]
    6aac:	b17c      	cbz	r4, 6ace <ada__tags__secondary_tag+0x32>
    6aae:	6825      	ldr	r5, [r4, #0]
    6ab0:	2300      	movs	r3, #0
    6ab2:	e001      	b.n	6ab8 <ada__tags__secondary_tag+0x1c>
    6ab4:	429d      	cmp	r5, r3
    6ab6:	d00a      	beq.n	6ace <ada__tags__secondary_tag+0x32>
    6ab8:	3301      	adds	r3, #1
    6aba:	eb03 0283 	add.w	r2, r3, r3, lsl #2
    6abe:	eb04 0282 	add.w	r2, r4, r2, lsl #2
    6ac2:	f852 0c10 	ldr.w	r0, [r2, #-16]
    6ac6:	4288      	cmp	r0, r1
    6ac8:	d1f4      	bne.n	6ab4 <ada__tags__secondary_tag+0x18>
    6aca:	6810      	ldr	r0, [r2, #0]
    6acc:	bd38      	pop	{r3, r4, r5, pc}
    6ace:	4a07      	ldr	r2, [pc, #28]	; (6aec <ada__tags__secondary_tag+0x50>)
    6ad0:	f240 101c 	movw	r0, #284	; 0x11c
    6ad4:	f6c0 0000 	movt	r0, #2048	; 0x800
    6ad8:	f102 0334 	add.w	r3, r2, #52	; 0x34
    6adc:	f7fe fb48 	bl	5170 <__gnat_raise_exception>
    6ae0:	4803      	ldr	r0, [pc, #12]	; (6af0 <ada__tags__secondary_tag+0x54>)
    6ae2:	f240 3199 	movw	r1, #921	; 0x399
    6ae6:	f7fe fd79 	bl	55dc <__gnat_rcheck_PE_Explicit_Raise>
    6aea:	bf00      	nop
    6aec:	0000cf28 	.word	0x0000cf28
    6af0:	0000cf1c 	.word	0x0000cf1c

00006af4 <ada__tags__set_entry_index>:
    6af4:	f850 3c04 	ldr.w	r3, [r0, #-4]
    6af8:	6a5b      	ldr	r3, [r3, #36]	; 0x24
    6afa:	eb03 01c1 	add.w	r1, r3, r1, lsl #3
    6afe:	f841 2c04 	str.w	r2, [r1, #-4]
    6b02:	4770      	bx	lr

00006b04 <ada__tags__set_dynamic_offset_to_top>:
    6b04:	b530      	push	{r4, r5, lr}
    6b06:	b083      	sub	sp, #12
    6b08:	b122      	cbz	r2, 6b14 <ada__tags__set_dynamic_offset_to_top+0x10>
    6b0a:	f06f 4500 	mvn.w	r5, #2147483648	; 0x80000000
    6b0e:	5814      	ldr	r4, [r2, r0]
    6b10:	f844 5c08 	str.w	r5, [r4, #-8]
    6b14:	9300      	str	r3, [sp, #0]
    6b16:	4613      	mov	r3, r2
    6b18:	2200      	movs	r2, #0
    6b1a:	f7ff ff8f 	bl	6a3c <ada__tags__register_interface_offset>
    6b1e:	b003      	add	sp, #12
    6b20:	bd30      	pop	{r4, r5, pc}
    6b22:	bf00      	nop

00006b24 <ada__tags__set_prim_op_kind>:
    6b24:	f850 3c04 	ldr.w	r3, [r0, #-4]
    6b28:	6a5b      	ldr	r3, [r3, #36]	; 0x24
    6b2a:	f803 2031 	strb.w	r2, [r3, r1, lsl #3]
    6b2e:	4770      	bx	lr

00006b30 <ada__tags__type_is_abstract>:
    6b30:	b508      	push	{r3, lr}
    6b32:	b118      	cbz	r0, 6b3c <ada__tags__type_is_abstract+0xc>
    6b34:	f850 3c04 	ldr.w	r3, [r0, #-4]
    6b38:	7e58      	ldrb	r0, [r3, #25]
    6b3a:	bd08      	pop	{r3, pc}
    6b3c:	4a04      	ldr	r2, [pc, #16]	; (6b50 <ada__tags__type_is_abstract+0x20>)
    6b3e:	f240 1078 	movw	r0, #376	; 0x178
    6b42:	f6c0 0000 	movt	r0, #2048	; 0x800
    6b46:	f102 0310 	add.w	r3, r2, #16
    6b4a:	f7fe fb11 	bl	5170 <__gnat_raise_exception>
    6b4e:	bf00      	nop
    6b50:	0000cf64 	.word	0x0000cf64

00006b54 <ada__tags__unregister_tag>:
    6b54:	f850 3c04 	ldr.w	r3, [r0, #-4]
    6b58:	6918      	ldr	r0, [r3, #16]
    6b5a:	f7ff bb95 	b.w	6288 <ada__tags__external_tag_htable__removeXn>
    6b5e:	bf00      	nop

00006b60 <ada__tags__wide_expanded_name>:
    6b60:	e92d 4ff0 	stmdb	sp!, {r4, r5, r6, r7, r8, r9, sl, fp, lr}
    6b64:	b089      	sub	sp, #36	; 0x24
    6b66:	af02      	add	r7, sp, #8
    6b68:	4606      	mov	r6, r0
    6b6a:	4638      	mov	r0, r7
    6b6c:	f7ff fd22 	bl	65b4 <ada__tags__expanded_name>
    6b70:	687b      	ldr	r3, [r7, #4]
    6b72:	f04f 0801 	mov.w	r8, #1
    6b76:	f240 0244 	movw	r2, #68	; 0x44
    6b7a:	f6c0 0200 	movt	r2, #2048	; 0x800
    6b7e:	7810      	ldrb	r0, [r2, #0]
    6b80:	f8d3 e000 	ldr.w	lr, [r3]
    6b84:	685d      	ldr	r5, [r3, #4]
    6b86:	f8c7 e008 	str.w	lr, [r7, #8]
    6b8a:	45ae      	cmp	lr, r5
    6b8c:	bfd2      	itee	le
    6b8e:	ebce 0105 	rsble	r1, lr, r5
    6b92:	2300      	movgt	r3, #0
    6b94:	4619      	movgt	r1, r3
    6b96:	60fd      	str	r5, [r7, #12]
    6b98:	f8c7 8010 	str.w	r8, [r7, #16]
    6b9c:	683c      	ldr	r4, [r7, #0]
    6b9e:	bfdc      	itt	le
    6ba0:	3101      	addle	r1, #1
    6ba2:	ea21 73e1 	bicle.w	r3, r1, r1, asr #31
    6ba6:	6179      	str	r1, [r7, #20]
    6ba8:	bfd8      	it	le
    6baa:	005b      	lslle	r3, r3, #1
    6bac:	3308      	adds	r3, #8
    6bae:	f023 0307 	bic.w	r3, r3, #7
    6bb2:	ebad 0d03 	sub.w	sp, sp, r3
    6bb6:	f000 fe9d 	bl	78f4 <system__wch_con__get_wc_encoding_method>
    6bba:	f10d 0908 	add.w	r9, sp, #8
    6bbe:	464a      	mov	r2, r9
    6bc0:	f107 0108 	add.w	r1, r7, #8
    6bc4:	f107 0310 	add.w	r3, r7, #16
    6bc8:	9000      	str	r0, [sp, #0]
    6bca:	4620      	mov	r0, r4
    6bcc:	f002 f90c 	bl	8de8 <system__wch_stw__string_to_wide_string>
    6bd0:	ea20 75e0 	bic.w	r5, r0, r0, asr #31
    6bd4:	4683      	mov	fp, r0
    6bd6:	fa05 f508 	lsl.w	r5, r5, r8
    6bda:	f105 000b 	add.w	r0, r5, #11
    6bde:	f020 0003 	bic.w	r0, r0, #3
    6be2:	f7fb fcdd 	bl	25a0 <system__secondary_stack__ss_allocate>
    6be6:	4649      	mov	r1, r9
    6be8:	462a      	mov	r2, r5
    6bea:	4604      	mov	r4, r0
    6bec:	f100 0a08 	add.w	sl, r0, #8
    6bf0:	f8c0 8000 	str.w	r8, [r0]
    6bf4:	4650      	mov	r0, sl
    6bf6:	f8c4 b004 	str.w	fp, [r4, #4]
    6bfa:	f7fb f973 	bl	1ee4 <memcpy>
    6bfe:	f8c6 a000 	str.w	sl, [r6]
    6c02:	6074      	str	r4, [r6, #4]
    6c04:	4630      	mov	r0, r6
    6c06:	371c      	adds	r7, #28
    6c08:	46bd      	mov	sp, r7
    6c0a:	e8bd 8ff0 	ldmia.w	sp!, {r4, r5, r6, r7, r8, r9, sl, fp, pc}
    6c0e:	bf00      	nop

00006c10 <ada__tags__wide_wide_expanded_name>:
    6c10:	e92d 4ff0 	stmdb	sp!, {r4, r5, r6, r7, r8, r9, sl, fp, lr}
    6c14:	b089      	sub	sp, #36	; 0x24
    6c16:	af02      	add	r7, sp, #8
    6c18:	4606      	mov	r6, r0
    6c1a:	4638      	mov	r0, r7
    6c1c:	f7ff fcca 	bl	65b4 <ada__tags__expanded_name>
    6c20:	687b      	ldr	r3, [r7, #4]
    6c22:	f04f 0801 	mov.w	r8, #1
    6c26:	f240 0244 	movw	r2, #68	; 0x44
    6c2a:	f6c0 0200 	movt	r2, #2048	; 0x800
    6c2e:	7810      	ldrb	r0, [r2, #0]
    6c30:	f8d3 e000 	ldr.w	lr, [r3]
    6c34:	685d      	ldr	r5, [r3, #4]
    6c36:	f8c7 e008 	str.w	lr, [r7, #8]
    6c3a:	45ae      	cmp	lr, r5
    6c3c:	bfd2      	itee	le
    6c3e:	ebce 0105 	rsble	r1, lr, r5
    6c42:	2300      	movgt	r3, #0
    6c44:	4619      	movgt	r1, r3
    6c46:	60fd      	str	r5, [r7, #12]
    6c48:	f8c7 8010 	str.w	r8, [r7, #16]
    6c4c:	683c      	ldr	r4, [r7, #0]
    6c4e:	bfdc      	itt	le
    6c50:	3101      	addle	r1, #1
    6c52:	ea21 73e1 	bicle.w	r3, r1, r1, asr #31
    6c56:	6179      	str	r1, [r7, #20]
    6c58:	bfd8      	it	le
    6c5a:	009b      	lslle	r3, r3, #2
    6c5c:	330a      	adds	r3, #10
    6c5e:	f023 0307 	bic.w	r3, r3, #7
    6c62:	ebad 0d03 	sub.w	sp, sp, r3
    6c66:	f000 fe45 	bl	78f4 <system__wch_con__get_wc_encoding_method>
    6c6a:	f10d 0908 	add.w	r9, sp, #8
    6c6e:	464a      	mov	r2, r9
    6c70:	f107 0108 	add.w	r1, r7, #8
    6c74:	f107 0310 	add.w	r3, r7, #16
    6c78:	9000      	str	r0, [sp, #0]
    6c7a:	4620      	mov	r0, r4
    6c7c:	f002 f8ec 	bl	8e58 <system__wch_stw__string_to_wide_wide_string>
    6c80:	ea20 75e0 	bic.w	r5, r0, r0, asr #31
    6c84:	4683      	mov	fp, r0
    6c86:	00ad      	lsls	r5, r5, #2
    6c88:	f105 0008 	add.w	r0, r5, #8
    6c8c:	f7fb fc88 	bl	25a0 <system__secondary_stack__ss_allocate>
    6c90:	4649      	mov	r1, r9
    6c92:	462a      	mov	r2, r5
    6c94:	4604      	mov	r4, r0
    6c96:	f100 0a08 	add.w	sl, r0, #8
    6c9a:	f8c0 8000 	str.w	r8, [r0]
    6c9e:	4650      	mov	r0, sl
    6ca0:	f8c4 b004 	str.w	fp, [r4, #4]
    6ca4:	f7fb f91e 	bl	1ee4 <memcpy>
    6ca8:	f8c6 a000 	str.w	sl, [r6]
    6cac:	6074      	str	r4, [r6, #4]
    6cae:	4630      	mov	r0, r6
    6cb0:	371c      	adds	r7, #28
    6cb2:	46bd      	mov	sp, r7
    6cb4:	e8bd 8ff0 	ldmia.w	sp!, {r4, r5, r6, r7, r8, r9, sl, fp, pc}

00006cb8 <ada__tags___elabb>:
    6cb8:	f642 4300 	movw	r3, #11264	; 0x2c00
    6cbc:	f6c0 0300 	movt	r3, #2048	; 0x800
    6cc0:	2100      	movs	r1, #0
    6cc2:	f503 7280 	add.w	r2, r3, #256	; 0x100
    6cc6:	f843 1b04 	str.w	r1, [r3], #4
    6cca:	4293      	cmp	r3, r2
    6ccc:	d1fb      	bne.n	6cc6 <ada__tags___elabb+0xe>
    6cce:	4770      	bx	lr

00006cd0 <ada__real_time__Omultiply>:
    6cd0:	e92d 47f0 	stmdb	sp!, {r4, r5, r6, r7, r8, r9, sl, lr}
    6cd4:	b082      	sub	sp, #8
    6cd6:	2801      	cmp	r0, #1
    6cd8:	f171 0300 	sbcs.w	r3, r1, #0
    6cdc:	ea4f 73d2 	mov.w	r3, r2, lsr #31
    6ce0:	f003 0301 	and.w	r3, r3, #1
    6ce4:	bfb8      	it	lt
    6ce6:	2300      	movlt	r3, #0
    6ce8:	4604      	mov	r4, r0
    6cea:	460d      	mov	r5, r1
    6cec:	4692      	mov	sl, r2
    6cee:	2b00      	cmp	r3, #0
    6cf0:	d136      	bne.n	6d60 <ada__real_time__Omultiply+0x90>
    6cf2:	2a00      	cmp	r2, #0
    6cf4:	bfd4      	ite	le
    6cf6:	2300      	movle	r3, #0
    6cf8:	2301      	movgt	r3, #1
    6cfa:	ea13 73d1 	ands.w	r3, r3, r1, lsr #31
    6cfe:	bf07      	ittee	eq
    6d00:	f04f 32ff 	moveq.w	r2, #4294967295
    6d04:	f06f 4300 	mvneq.w	r3, #2147483648	; 0x80000000
    6d08:	2200      	movne	r2, #0
    6d0a:	f04f 4300 	movne.w	r3, #2147483648	; 0x80000000
    6d0e:	f1b1 4f00 	cmp.w	r1, #2147483648	; 0x80000000
    6d12:	bf08      	it	eq
    6d14:	2800      	cmpeq	r0, #0
    6d16:	e9cd 2300 	strd	r2, r3, [sp]
    6d1a:	bf04      	itt	eq
    6d1c:	4680      	moveq	r8, r0
    6d1e:	4689      	moveq	r9, r1
    6d20:	d123      	bne.n	6d6a <ada__real_time__Omultiply+0x9a>
    6d22:	4656      	mov	r6, sl
    6d24:	17f7      	asrs	r7, r6, #31
    6d26:	17f8      	asrs	r0, r7, #31
    6d28:	ea80 020a 	eor.w	r2, r0, sl
    6d2c:	1a12      	subs	r2, r2, r0
    6d2e:	ea80 0307 	eor.w	r3, r0, r7
    6d32:	eb63 0300 	sbc.w	r3, r3, r0
    6d36:	ea52 0103 	orrs.w	r1, r2, r3
    6d3a:	d007      	beq.n	6d4c <ada__real_time__Omultiply+0x7c>
    6d3c:	e9dd 0100 	ldrd	r0, r1, [sp]
    6d40:	f002 fc18 	bl	9574 <__aeabi_uldivmod>
    6d44:	4549      	cmp	r1, r9
    6d46:	bf08      	it	eq
    6d48:	4540      	cmpeq	r0, r8
    6d4a:	d318      	bcc.n	6d7e <ada__real_time__Omultiply+0xae>
    6d4c:	fb04 f307 	mul.w	r3, r4, r7
    6d50:	fba4 010a 	umull	r0, r1, r4, sl
    6d54:	fb0a 3a05 	mla	sl, sl, r5, r3
    6d58:	4451      	add	r1, sl
    6d5a:	b002      	add	sp, #8
    6d5c:	e8bd 87f0 	ldmia.w	sp!, {r4, r5, r6, r7, r8, r9, sl, pc}
    6d60:	2200      	movs	r2, #0
    6d62:	f04f 4300 	mov.w	r3, #2147483648	; 0x80000000
    6d66:	e9cd 2300 	strd	r2, r3, [sp]
    6d6a:	17ea      	asrs	r2, r5, #31
    6d6c:	ea82 0804 	eor.w	r8, r2, r4
    6d70:	ea82 0905 	eor.w	r9, r2, r5
    6d74:	ebb8 0802 	subs.w	r8, r8, r2
    6d78:	eb69 0902 	sbc.w	r9, r9, r2
    6d7c:	e7d1      	b.n	6d22 <ada__real_time__Omultiply+0x52>
    6d7e:	f24d 00dc 	movw	r0, #53468	; 0xd0dc
    6d82:	218c      	movs	r1, #140	; 0x8c
    6d84:	f2c0 0000 	movt	r0, #0
    6d88:	f7fe fb98 	bl	54bc <__gnat_rcheck_CE_Explicit_Raise>

00006d8c <ada__real_time__Omultiply__2>:
    6d8c:	b410      	push	{r4}
    6d8e:	4604      	mov	r4, r0
    6d90:	4619      	mov	r1, r3
    6d92:	4610      	mov	r0, r2
    6d94:	4622      	mov	r2, r4
    6d96:	f85d 4b04 	ldr.w	r4, [sp], #4
    6d9a:	f7ff bf99 	b.w	6cd0 <ada__real_time__Omultiply>
    6d9e:	bf00      	nop

00006da0 <ada__real_time__Oadd>:
    6da0:	b5f8      	push	{r3, r4, r5, r6, r7, lr}
    6da2:	2a00      	cmp	r2, #0
    6da4:	f173 0400 	sbcs.w	r4, r3, #0
    6da8:	db05      	blt.n	6db6 <ada__real_time__Oadd+0x16>
    6daa:	43cd      	mvns	r5, r1
    6dac:	43c4      	mvns	r4, r0
    6dae:	429d      	cmp	r5, r3
    6db0:	bf08      	it	eq
    6db2:	4294      	cmpeq	r4, r2
    6db4:	d21f      	bcs.n	6df6 <ada__real_time__Oadd+0x56>
    6db6:	f1b3 4f00 	cmp.w	r3, #2147483648	; 0x80000000
    6dba:	bf06      	itte	eq
    6dbc:	2a00      	cmpeq	r2, #0
    6dbe:	2401      	moveq	r4, #1
    6dc0:	2400      	movne	r4, #0
    6dc2:	ea14 74d1 	ands.w	r4, r4, r1, lsr #31
    6dc6:	d119      	bne.n	6dfc <ada__real_time__Oadd+0x5c>
    6dc8:	f112 34ff 	adds.w	r4, r2, #4294967295
    6dcc:	f163 4500 	sbc.w	r5, r3, #2147483648	; 0x80000000
    6dd0:	f06f 4700 	mvn.w	r7, #2147483648	; 0x80000000
    6dd4:	f06f 0601 	mvn.w	r6, #1
    6dd8:	42af      	cmp	r7, r5
    6dda:	bf08      	it	eq
    6ddc:	42a6      	cmpeq	r6, r4
    6dde:	d311      	bcc.n	6e04 <ada__real_time__Oadd+0x64>
    6de0:	4252      	negs	r2, r2
    6de2:	eb63 0343 	sbc.w	r3, r3, r3, lsl #1
    6de6:	4299      	cmp	r1, r3
    6de8:	bf08      	it	eq
    6dea:	4290      	cmpeq	r0, r2
    6dec:	d30a      	bcc.n	6e04 <ada__real_time__Oadd+0x64>
    6dee:	1a80      	subs	r0, r0, r2
    6df0:	eb61 0103 	sbc.w	r1, r1, r3
    6df4:	bdf8      	pop	{r3, r4, r5, r6, r7, pc}
    6df6:	1880      	adds	r0, r0, r2
    6df8:	4159      	adcs	r1, r3
    6dfa:	bdf8      	pop	{r3, r4, r5, r6, r7, pc}
    6dfc:	3000      	adds	r0, #0
    6dfe:	f141 4100 	adc.w	r1, r1, #2147483648	; 0x80000000
    6e02:	bdf8      	pop	{r3, r4, r5, r6, r7, pc}
    6e04:	f24d 00dc 	movw	r0, #53468	; 0xd0dc
    6e08:	21b4      	movs	r1, #180	; 0xb4
    6e0a:	f2c0 0000 	movt	r0, #0
    6e0e:	f7fe fb55 	bl	54bc <__gnat_rcheck_CE_Explicit_Raise>
    6e12:	bf00      	nop

00006e14 <ada__real_time__Oadd__2>:
    6e14:	b430      	push	{r4, r5}
    6e16:	4604      	mov	r4, r0
    6e18:	460d      	mov	r5, r1
    6e1a:	4610      	mov	r0, r2
    6e1c:	4619      	mov	r1, r3
    6e1e:	4622      	mov	r2, r4
    6e20:	462b      	mov	r3, r5
    6e22:	bc30      	pop	{r4, r5}
    6e24:	f7ff bfbc 	b.w	6da0 <ada__real_time__Oadd>

00006e28 <ada__real_time__Oadd__3>:
    6e28:	b538      	push	{r3, r4, r5, lr}
    6e2a:	4604      	mov	r4, r0
    6e2c:	1810      	adds	r0, r2, r0
    6e2e:	460d      	mov	r5, r1
    6e30:	eb43 0101 	adc.w	r1, r3, r1
    6e34:	42a0      	cmp	r0, r4
    6e36:	eb71 0405 	sbcs.w	r4, r1, r5
    6e3a:	bfb4      	ite	lt
    6e3c:	2201      	movlt	r2, #1
    6e3e:	2200      	movge	r2, #0
    6e40:	ebb2 7fd3 	cmp.w	r2, r3, lsr #31
    6e44:	d100      	bne.n	6e48 <ada__real_time__Oadd__3+0x20>
    6e46:	bd38      	pop	{r3, r4, r5, pc}
    6e48:	f24d 00dc 	movw	r0, #53468	; 0xd0dc
    6e4c:	21bb      	movs	r1, #187	; 0xbb
    6e4e:	f2c0 0000 	movt	r0, #0
    6e52:	f7fe fb63 	bl	551c <__gnat_rcheck_CE_Overflow_Check>
    6e56:	bf00      	nop

00006e58 <ada__real_time__Osubtract>:
    6e58:	b5f8      	push	{r3, r4, r5, r6, r7, lr}
    6e5a:	4299      	cmp	r1, r3
    6e5c:	bf08      	it	eq
    6e5e:	4290      	cmpeq	r0, r2
    6e60:	bf2c      	ite	cs
    6e62:	2401      	movcs	r4, #1
    6e64:	2400      	movcc	r4, #0
    6e66:	2b00      	cmp	r3, #0
    6e68:	bfb4      	ite	lt
    6e6a:	2400      	movlt	r4, #0
    6e6c:	f004 0401 	andge.w	r4, r4, #1
    6e70:	bb3c      	cbnz	r4, 6ec2 <ada__real_time__Osubtract+0x6a>
    6e72:	f1b3 4f00 	cmp.w	r3, #2147483648	; 0x80000000
    6e76:	bf06      	itte	eq
    6e78:	2a00      	cmpeq	r2, #0
    6e7a:	2401      	moveq	r4, #1
    6e7c:	2400      	movne	r4, #0
    6e7e:	2900      	cmp	r1, #0
    6e80:	bfb4      	ite	lt
    6e82:	2400      	movlt	r4, #0
    6e84:	f004 0401 	andge.w	r4, r4, #1
    6e88:	b9bc      	cbnz	r4, 6eba <ada__real_time__Osubtract+0x62>
    6e8a:	f112 34ff 	adds.w	r4, r2, #4294967295
    6e8e:	f163 4500 	sbc.w	r5, r3, #2147483648	; 0x80000000
    6e92:	f06f 4700 	mvn.w	r7, #2147483648	; 0x80000000
    6e96:	f06f 0601 	mvn.w	r6, #1
    6e9a:	42af      	cmp	r7, r5
    6e9c:	bf08      	it	eq
    6e9e:	42a6      	cmpeq	r6, r4
    6ea0:	d313      	bcc.n	6eca <ada__real_time__Osubtract+0x72>
    6ea2:	4252      	negs	r2, r2
    6ea4:	eb63 0343 	sbc.w	r3, r3, r3, lsl #1
    6ea8:	43cd      	mvns	r5, r1
    6eaa:	43c4      	mvns	r4, r0
    6eac:	429d      	cmp	r5, r3
    6eae:	bf08      	it	eq
    6eb0:	4294      	cmpeq	r4, r2
    6eb2:	d30a      	bcc.n	6eca <ada__real_time__Osubtract+0x72>
    6eb4:	1880      	adds	r0, r0, r2
    6eb6:	4159      	adcs	r1, r3
    6eb8:	bdf8      	pop	{r3, r4, r5, r6, r7, pc}
    6eba:	3000      	adds	r0, #0
    6ebc:	f141 4100 	adc.w	r1, r1, #2147483648	; 0x80000000
    6ec0:	bdf8      	pop	{r3, r4, r5, r6, r7, pc}
    6ec2:	1a80      	subs	r0, r0, r2
    6ec4:	eb61 0103 	sbc.w	r1, r1, r3
    6ec8:	bdf8      	pop	{r3, r4, r5, r6, r7, pc}
    6eca:	f24d 00dc 	movw	r0, #53468	; 0xd0dc
    6ece:	21db      	movs	r1, #219	; 0xdb
    6ed0:	f2c0 0000 	movt	r0, #0
    6ed4:	f7fe faf2 	bl	54bc <__gnat_rcheck_CE_Explicit_Raise>

00006ed8 <ada__real_time__Osubtract__2>:
    6ed8:	b508      	push	{r3, lr}
    6eda:	4299      	cmp	r1, r3
    6edc:	bf08      	it	eq
    6ede:	4290      	cmpeq	r0, r2
    6ee0:	d30a      	bcc.n	6ef8 <ada__real_time__Osubtract__2+0x20>
    6ee2:	1a82      	subs	r2, r0, r2
    6ee4:	eb61 0303 	sbc.w	r3, r1, r3
    6ee8:	2a00      	cmp	r2, #0
    6eea:	f173 0100 	sbcs.w	r1, r3, #0
    6eee:	bfa4      	itt	ge
    6ef0:	4610      	movge	r0, r2
    6ef2:	4619      	movge	r1, r3
    6ef4:	db0c      	blt.n	6f10 <ada__real_time__Osubtract__2+0x38>
    6ef6:	bd08      	pop	{r3, pc}
    6ef8:	1a12      	subs	r2, r2, r0
    6efa:	eb63 0301 	sbc.w	r3, r3, r1
    6efe:	f1b3 4f00 	cmp.w	r3, #2147483648	; 0x80000000
    6f02:	bf08      	it	eq
    6f04:	2a01      	cmpeq	r2, #1
    6f06:	d203      	bcs.n	6f10 <ada__real_time__Osubtract__2+0x38>
    6f08:	4250      	negs	r0, r2
    6f0a:	eb63 0143 	sbc.w	r1, r3, r3, lsl #1
    6f0e:	bd08      	pop	{r3, pc}
    6f10:	f24d 00dc 	movw	r0, #53468	; 0xd0dc
    6f14:	21f1      	movs	r1, #241	; 0xf1
    6f16:	f2c0 0000 	movt	r0, #0
    6f1a:	f7fe facf 	bl	54bc <__gnat_rcheck_CE_Explicit_Raise>
    6f1e:	bf00      	nop

00006f20 <ada__real_time__Osubtract__3>:
    6f20:	b538      	push	{r3, r4, r5, lr}
    6f22:	4604      	mov	r4, r0
    6f24:	1a80      	subs	r0, r0, r2
    6f26:	460d      	mov	r5, r1
    6f28:	eb61 0103 	sbc.w	r1, r1, r3
    6f2c:	4284      	cmp	r4, r0
    6f2e:	eb75 0401 	sbcs.w	r4, r5, r1
    6f32:	bfb4      	ite	lt
    6f34:	2201      	movlt	r2, #1
    6f36:	2200      	movge	r2, #0
    6f38:	ebb2 7fd3 	cmp.w	r2, r3, lsr #31
    6f3c:	d100      	bne.n	6f40 <ada__real_time__Osubtract__3+0x20>
    6f3e:	bd38      	pop	{r3, r4, r5, pc}
    6f40:	f24d 00dc 	movw	r0, #53468	; 0xd0dc
    6f44:	21f8      	movs	r1, #248	; 0xf8
    6f46:	f2c0 0000 	movt	r0, #0
    6f4a:	f7fe fae7 	bl	551c <__gnat_rcheck_CE_Overflow_Check>
    6f4e:	bf00      	nop

00006f50 <ada__real_time__Osubtract__4>:
    6f50:	f1b1 4f00 	cmp.w	r1, #2147483648	; 0x80000000
    6f54:	bf08      	it	eq
    6f56:	2800      	cmpeq	r0, #0
    6f58:	d003      	beq.n	6f62 <ada__real_time__Osubtract__4+0x12>
    6f5a:	4240      	negs	r0, r0
    6f5c:	eb61 0141 	sbc.w	r1, r1, r1, lsl #1
    6f60:	4770      	bx	lr
    6f62:	b508      	push	{r3, lr}
    6f64:	f24d 00dc 	movw	r0, #53468	; 0xd0dc
    6f68:	21fe      	movs	r1, #254	; 0xfe
    6f6a:	f2c0 0000 	movt	r0, #0
    6f6e:	f7fe fad5 	bl	551c <__gnat_rcheck_CE_Overflow_Check>
    6f72:	bf00      	nop

00006f74 <ada__real_time__Odivide>:
    6f74:	b5f8      	push	{r3, r4, r5, r6, r7, lr}
    6f76:	4614      	mov	r4, r2
    6f78:	461d      	mov	r5, r3
    6f7a:	ea54 0e05 	orrs.w	lr, r4, r5
    6f7e:	d022      	beq.n	6fc6 <ada__real_time__Odivide+0x52>
    6f80:	f1b1 4f00 	cmp.w	r1, #2147483648	; 0x80000000
    6f84:	bf08      	it	eq
    6f86:	2800      	cmpeq	r0, #0
    6f88:	ea04 0403 	and.w	r4, r4, r3
    6f8c:	bf0c      	ite	eq
    6f8e:	2501      	moveq	r5, #1
    6f90:	2500      	movne	r5, #0
    6f92:	f1b4 3fff 	cmp.w	r4, #4294967295
    6f96:	bf14      	ite	ne
    6f98:	2400      	movne	r4, #0
    6f9a:	f005 0401 	andeq.w	r4, r5, #1
    6f9e:	b954      	cbnz	r4, 6fb6 <ada__real_time__Odivide+0x42>
    6fa0:	f002 facc 	bl	953c <__aeabi_ldivmod>
    6fa4:	f110 4200 	adds.w	r2, r0, #2147483648	; 0x80000000
    6fa8:	f141 0300 	adc.w	r3, r1, #0
    6fac:	2b01      	cmp	r3, #1
    6fae:	bf08      	it	eq
    6fb0:	2a00      	cmpeq	r2, #0
    6fb2:	d200      	bcs.n	6fb6 <ada__real_time__Odivide+0x42>
    6fb4:	bdf8      	pop	{r3, r4, r5, r6, r7, pc}
    6fb6:	f24d 00dc 	movw	r0, #53468	; 0xd0dc
    6fba:	f240 1109 	movw	r1, #265	; 0x109
    6fbe:	f2c0 0000 	movt	r0, #0
    6fc2:	f7fe faab 	bl	551c <__gnat_rcheck_CE_Overflow_Check>
    6fc6:	f24d 00dc 	movw	r0, #53468	; 0xd0dc
    6fca:	f240 1109 	movw	r1, #265	; 0x109
    6fce:	f2c0 0000 	movt	r0, #0
    6fd2:	f7fe fa6b 	bl	54ac <__gnat_rcheck_CE_Divide_By_Zero>
    6fd6:	bf00      	nop

00006fd8 <ada__real_time__Odivide__2>:
    6fd8:	b538      	push	{r3, r4, r5, lr}
    6fda:	b182      	cbz	r2, 6ffe <ada__real_time__Odivide__2+0x26>
    6fdc:	f1b1 4f00 	cmp.w	r1, #2147483648	; 0x80000000
    6fe0:	bf06      	itte	eq
    6fe2:	2800      	cmpeq	r0, #0
    6fe4:	2301      	moveq	r3, #1
    6fe6:	2300      	movne	r3, #0
    6fe8:	f1b2 3fff 	cmp.w	r2, #4294967295
    6fec:	bf14      	ite	ne
    6fee:	2300      	movne	r3, #0
    6ff0:	f003 0301 	andeq.w	r3, r3, #1
    6ff4:	b95b      	cbnz	r3, 700e <ada__real_time__Odivide__2+0x36>
    6ff6:	17d3      	asrs	r3, r2, #31
    6ff8:	f002 faa0 	bl	953c <__aeabi_ldivmod>
    6ffc:	bd38      	pop	{r3, r4, r5, pc}
    6ffe:	f24d 00dc 	movw	r0, #53468	; 0xd0dc
    7002:	f44f 7188 	mov.w	r1, #272	; 0x110
    7006:	f2c0 0000 	movt	r0, #0
    700a:	f7fe fa4f 	bl	54ac <__gnat_rcheck_CE_Divide_By_Zero>
    700e:	f24d 00dc 	movw	r0, #53468	; 0xd0dc
    7012:	f44f 7188 	mov.w	r1, #272	; 0x110
    7016:	f2c0 0000 	movt	r0, #0
    701a:	f7fe fa7f 	bl	551c <__gnat_rcheck_CE_Overflow_Check>
    701e:	bf00      	nop

00007020 <ada__real_time__clock>:
    7020:	e92d 43f8 	stmdb	sp!, {r3, r4, r5, r6, r7, r8, r9, lr}
    7024:	f240 16d8 	movw	r6, #472	; 0x1d8
    7028:	2400      	movs	r4, #0
    702a:	f6c0 0600 	movt	r6, #2048	; 0x800
    702e:	1d37      	adds	r7, r6, #4
    7030:	f64f 4030 	movw	r0, #64560	; 0xfc30
    7034:	3401      	adds	r4, #1
    7036:	f6cf 70ff 	movt	r0, #65535	; 0xffff
    703a:	6835      	ldr	r5, [r6, #0]
    703c:	f8d7 9000 	ldr.w	r9, [r7]
    7040:	f7fb fe60 	bl	2d04 <system__bb__board_support__read>
    7044:	6832      	ldr	r2, [r6, #0]
    7046:	ebc8 0305 	rsb	r3, r8, r5
    704a:	4295      	cmp	r5, r2
    704c:	d012      	beq.n	7074 <ada__real_time__clock+0x54>
    704e:	2c01      	cmp	r4, #1
    7050:	d00e      	beq.n	7070 <ada__real_time__clock+0x50>
    7052:	2b01      	cmp	r3, #1
    7054:	bf8c      	ite	hi
    7056:	2300      	movhi	r3, #0
    7058:	2301      	movls	r3, #1
    705a:	2c03      	cmp	r4, #3
    705c:	bf08      	it	eq
    705e:	2300      	moveq	r3, #0
    7060:	2b00      	cmp	r3, #0
    7062:	d1e5      	bne.n	7030 <ada__real_time__clock+0x10>
    7064:	462f      	mov	r7, r5
    7066:	461e      	mov	r6, r3
    7068:	4630      	mov	r0, r6
    706a:	4639      	mov	r1, r7
    706c:	e8bd 83f8 	ldmia.w	sp!, {r3, r4, r5, r6, r7, r8, r9, pc}
    7070:	46a8      	mov	r8, r5
    7072:	e7dd      	b.n	7030 <ada__real_time__clock+0x10>
    7074:	2600      	movs	r6, #0
    7076:	4581      	cmp	r9, r0
    7078:	bf94      	ite	ls
    707a:	462f      	movls	r7, r5
    707c:	1c6f      	addhi	r7, r5, #1
    707e:	1836      	adds	r6, r6, r0
    7080:	f147 0700 	adc.w	r7, r7, #0
    7084:	e7f0      	b.n	7068 <ada__real_time__clock+0x48>
    7086:	bf00      	nop

00007088 <ada__real_time__microseconds>:
    7088:	b508      	push	{r3, lr}
    708a:	f644 3140 	movw	r1, #19264	; 0x4b40
    708e:	f244 2240 	movw	r2, #16960	; 0x4240
    7092:	f2c0 014c 	movt	r1, #76	; 0x4c
    7096:	f2c0 020f 	movt	r2, #15
    709a:	2300      	movs	r3, #0
    709c:	fb80 0101 	smull	r0, r1, r0, r1
    70a0:	f002 fa4c 	bl	953c <__aeabi_ldivmod>
    70a4:	bd08      	pop	{r3, pc}
    70a6:	bf00      	nop

000070a8 <ada__real_time__milliseconds>:
    70a8:	b508      	push	{r3, lr}
    70aa:	f644 3140 	movw	r1, #19264	; 0x4b40
    70ae:	f44f 727a 	mov.w	r2, #1000	; 0x3e8
    70b2:	f2c0 014c 	movt	r1, #76	; 0x4c
    70b6:	2300      	movs	r3, #0
    70b8:	fb80 0101 	smull	r0, r1, r0, r1
    70bc:	f002 fa3e 	bl	953c <__aeabi_ldivmod>
    70c0:	bd08      	pop	{r3, pc}
    70c2:	bf00      	nop

000070c4 <ada__real_time__minutes>:
    70c4:	e92d 03f0 	stmdb	sp!, {r4, r5, r6, r7, r8, r9}
    70c8:	233c      	movs	r3, #60	; 0x3c
    70ca:	fb80 6703 	smull	r6, r7, r0, r3
    70ce:	00fb      	lsls	r3, r7, #3
    70d0:	ea4f 08c6 	mov.w	r8, r6, lsl #3
    70d4:	ea43 7956 	orr.w	r9, r3, r6, lsr #29
    70d8:	ea4f 1448 	mov.w	r4, r8, lsl #5
    70dc:	ea4f 1549 	mov.w	r5, r9, lsl #5
    70e0:	ebb4 0408 	subs.w	r4, r4, r8
    70e4:	ea45 65d8 	orr.w	r5, r5, r8, lsr #27
    70e8:	eb65 0509 	sbc.w	r5, r5, r9
    70ec:	01a0      	lsls	r0, r4, #6
    70ee:	01a9      	lsls	r1, r5, #6
    70f0:	1b00      	subs	r0, r0, r4
    70f2:	ea41 6194 	orr.w	r1, r1, r4, lsr #26
    70f6:	eb61 0105 	sbc.w	r1, r1, r5
    70fa:	1980      	adds	r0, r0, r6
    70fc:	4179      	adcs	r1, r7
    70fe:	0082      	lsls	r2, r0, #2
    7100:	008b      	lsls	r3, r1, #2
    7102:	ea43 7390 	orr.w	r3, r3, r0, lsr #30
    7106:	1880      	adds	r0, r0, r2
    7108:	4159      	adcs	r1, r3
    710a:	0182      	lsls	r2, r0, #6
    710c:	018b      	lsls	r3, r1, #6
    710e:	ea43 6390 	orr.w	r3, r3, r0, lsr #26
    7112:	4619      	mov	r1, r3
    7114:	4610      	mov	r0, r2
    7116:	e8bd 03f0 	ldmia.w	sp!, {r4, r5, r6, r7, r8, r9}
    711a:	4770      	bx	lr
    711c:	0000      	movs	r0, r0
	...

00007120 <ada__real_time__nanoseconds>:
    7120:	b508      	push	{r3, lr}
    7122:	f644 3140 	movw	r1, #19264	; 0x4b40
    7126:	f2c0 014c 	movt	r1, #76	; 0x4c
    712a:	a305      	add	r3, pc, #20	; (adr r3, 7140 <ada__real_time__nanoseconds+0x20>)
    712c:	e9d3 2300 	ldrd	r2, r3, [r3]
    7130:	fb80 0101 	smull	r0, r1, r0, r1
    7134:	f002 fa02 	bl	953c <__aeabi_ldivmod>
    7138:	bd08      	pop	{r3, pc}
    713a:	bf00      	nop
    713c:	f3af 8000 	nop.w
    7140:	3b9aca00 	.word	0x3b9aca00
    7144:	00000000 	.word	0x00000000

00007148 <ada__real_time__seconds>:
    7148:	f644 3340 	movw	r3, #19264	; 0x4b40
    714c:	f2c0 034c 	movt	r3, #76	; 0x4c
    7150:	fb80 0103 	smull	r0, r1, r0, r3
    7154:	4770      	bx	lr
    7156:	bf00      	nop

00007158 <ada__real_time__split>:
    7158:	e92d 47f0 	stmdb	sp!, {r4, r5, r6, r7, r8, r9, sl, lr}
    715c:	b082      	sub	sp, #8
    715e:	e9cd 2300 	strd	r2, r3, [sp]
    7162:	4682      	mov	sl, r0
    7164:	a31e      	add	r3, pc, #120	; (adr r3, 71e0 <ada__real_time__split+0x88>)
    7166:	e9d3 2300 	ldrd	r2, r3, [r3]
    716a:	e9dd 0100 	ldrd	r0, r1, [sp]
    716e:	f002 fa01 	bl	9574 <__aeabi_uldivmod>
    7172:	460f      	mov	r7, r1
    7174:	4606      	mov	r6, r0
    7176:	00fb      	lsls	r3, r7, #3
    7178:	00f0      	lsls	r0, r6, #3
    717a:	ea43 7156 	orr.w	r1, r3, r6, lsr #29
    717e:	ea4f 1840 	mov.w	r8, r0, lsl #5
    7182:	ea4f 1941 	mov.w	r9, r1, lsl #5
    7186:	ebb8 0800 	subs.w	r8, r8, r0
    718a:	ea49 69d0 	orr.w	r9, r9, r0, lsr #27
    718e:	eb69 0901 	sbc.w	r9, r9, r1
    7192:	ea4f 1288 	mov.w	r2, r8, lsl #6
    7196:	ea4f 1389 	mov.w	r3, r9, lsl #6
    719a:	ebb2 0208 	subs.w	r2, r2, r8
    719e:	ea43 6398 	orr.w	r3, r3, r8, lsr #26
    71a2:	eb63 0309 	sbc.w	r3, r3, r9
    71a6:	1992      	adds	r2, r2, r6
    71a8:	417b      	adcs	r3, r7
    71aa:	0094      	lsls	r4, r2, #2
    71ac:	009d      	lsls	r5, r3, #2
    71ae:	ea45 7592 	orr.w	r5, r5, r2, lsr #30
    71b2:	1912      	adds	r2, r2, r4
    71b4:	416b      	adcs	r3, r5
    71b6:	0195      	lsls	r5, r2, #6
    71b8:	019c      	lsls	r4, r3, #6
    71ba:	ea44 6492 	orr.w	r4, r4, r2, lsr #26
    71be:	e9dd 0100 	ldrd	r0, r1, [sp]
    71c2:	462a      	mov	r2, r5
    71c4:	4623      	mov	r3, r4
    71c6:	f7ff fe87 	bl	6ed8 <ada__real_time__Osubtract__2>
    71ca:	e9ca 6700 	strd	r6, r7, [sl]
    71ce:	e9ca 0102 	strd	r0, r1, [sl, #8]
    71d2:	4650      	mov	r0, sl
    71d4:	b002      	add	sp, #8
    71d6:	e8bd 87f0 	ldmia.w	sp!, {r4, r5, r6, r7, r8, r9, sl, pc}
    71da:	bf00      	nop
    71dc:	f3af 8000 	nop.w
    71e0:	004c4b40 	.word	0x004c4b40
    71e4:	00000000 	.word	0x00000000

000071e8 <ada__real_time__time_of>:
    71e8:	e92d 4ff0 	stmdb	sp!, {r4, r5, r6, r7, r8, r9, sl, fp, lr}
    71ec:	b087      	sub	sp, #28
    71ee:	2a00      	cmp	r2, #0
    71f0:	460d      	mov	r5, r1
    71f2:	f173 0100 	sbcs.w	r1, r3, #0
    71f6:	4616      	mov	r6, r2
    71f8:	461f      	mov	r7, r3
    71fa:	4604      	mov	r4, r0
    71fc:	db2f      	blt.n	725e <ada__real_time__time_of+0x76>
    71fe:	a176      	add	r1, pc, #472	; (adr r1, 73d8 <ada__real_time__time_of+0x1f0>)
    7200:	e9d1 0100 	ldrd	r0, r1, [r1]
    7204:	42a9      	cmp	r1, r5
    7206:	bf08      	it	eq
    7208:	42a0      	cmpeq	r0, r4
    720a:	f0c0 80cd 	bcc.w	73a8 <ada__real_time__time_of+0x1c0>
    720e:	00ee      	lsls	r6, r5, #3
    7210:	00e0      	lsls	r0, r4, #3
    7212:	ea46 7154 	orr.w	r1, r6, r4, lsr #29
    7216:	0146      	lsls	r6, r0, #5
    7218:	014f      	lsls	r7, r1, #5
    721a:	ea47 67d0 	orr.w	r7, r7, r0, lsr #27
    721e:	1a30      	subs	r0, r6, r0
    7220:	eb67 0101 	sbc.w	r1, r7, r1
    7224:	ea4f 1880 	mov.w	r8, r0, lsl #6
    7228:	ea4f 1981 	mov.w	r9, r1, lsl #6
    722c:	ea49 6990 	orr.w	r9, r9, r0, lsr #26
    7230:	ebb8 0000 	subs.w	r0, r8, r0
    7234:	eb69 0101 	sbc.w	r1, r9, r1
    7238:	1900      	adds	r0, r0, r4
    723a:	4169      	adcs	r1, r5
    723c:	0086      	lsls	r6, r0, #2
    723e:	008f      	lsls	r7, r1, #2
    7240:	ea47 7790 	orr.w	r7, r7, r0, lsr #30
    7244:	1980      	adds	r0, r0, r6
    7246:	4179      	adcs	r1, r7
    7248:	0185      	lsls	r5, r0, #6
    724a:	018c      	lsls	r4, r1, #6
    724c:	ea44 6490 	orr.w	r4, r4, r0, lsr #26
    7250:	4621      	mov	r1, r4
    7252:	4628      	mov	r0, r5
    7254:	b007      	add	sp, #28
    7256:	e8bd 4ff0 	ldmia.w	sp!, {r4, r5, r6, r7, r8, r9, sl, fp, lr}
    725a:	f7ff bda1 	b.w	6da0 <ada__real_time__Oadd>
    725e:	4610      	mov	r0, r2
    7260:	4619      	mov	r1, r3
    7262:	a35f      	add	r3, pc, #380	; (adr r3, 73e0 <ada__real_time__time_of+0x1f8>)
    7264:	e9d3 2300 	ldrd	r2, r3, [r3]
    7268:	f04f 0900 	mov.w	r9, #0
    726c:	f002 f966 	bl	953c <__aeabi_ldivmod>
    7270:	4630      	mov	r0, r6
    7272:	4639      	mov	r1, r7
    7274:	4313      	orrs	r3, r2
    7276:	a35a      	add	r3, pc, #360	; (adr r3, 73e0 <ada__real_time__time_of+0x1f8>)
    7278:	e9d3 2300 	ldrd	r2, r3, [r3]
    727c:	bf14      	ite	ne
    727e:	f04f 0801 	movne.w	r8, #1
    7282:	f04f 0800 	moveq.w	r8, #0
    7286:	f002 f959 	bl	953c <__aeabi_ldivmod>
    728a:	ebb8 0800 	subs.w	r8, r8, r0
    728e:	eb69 0901 	sbc.w	r9, r9, r1
    7292:	e9cd 8904 	strd	r8, r9, [sp, #16]
    7296:	f118 38ff 	adds.w	r8, r8, #4294967295
    729a:	f149 39ff 	adc.w	r9, r9, #4294967295
    729e:	ea4f 00c8 	mov.w	r0, r8, lsl #3
    72a2:	ea4f 0ec9 	mov.w	lr, r9, lsl #3
    72a6:	ea4e 7158 	orr.w	r1, lr, r8, lsr #29
    72aa:	014b      	lsls	r3, r1, #5
    72ac:	ea43 63d0 	orr.w	r3, r3, r0, lsr #27
    72b0:	9301      	str	r3, [sp, #4]
    72b2:	0143      	lsls	r3, r0, #5
    72b4:	9300      	str	r3, [sp, #0]
    72b6:	e9dd 2300 	ldrd	r2, r3, [sp]
    72ba:	1a12      	subs	r2, r2, r0
    72bc:	eb63 0301 	sbc.w	r3, r3, r1
    72c0:	4619      	mov	r1, r3
    72c2:	4610      	mov	r0, r2
    72c4:	019b      	lsls	r3, r3, #6
    72c6:	ea43 6392 	orr.w	r3, r3, r2, lsr #26
    72ca:	9303      	str	r3, [sp, #12]
    72cc:	0193      	lsls	r3, r2, #6
    72ce:	9302      	str	r3, [sp, #8]
    72d0:	e9dd 2302 	ldrd	r2, r3, [sp, #8]
    72d4:	1a12      	subs	r2, r2, r0
    72d6:	eb63 0301 	sbc.w	r3, r3, r1
    72da:	eb12 0008 	adds.w	r0, r2, r8
    72de:	eb43 0109 	adc.w	r1, r3, r9
    72e2:	ea4f 0a80 	mov.w	sl, r0, lsl #2
    72e6:	ea4f 0b81 	mov.w	fp, r1, lsl #2
    72ea:	eb1a 0a00 	adds.w	sl, sl, r0
    72ee:	ea4b 7b90 	orr.w	fp, fp, r0, lsr #30
    72f2:	eb4b 0b01 	adc.w	fp, fp, r1
    72f6:	ea4f 128a 	mov.w	r2, sl, lsl #6
    72fa:	ea4f 138b 	mov.w	r3, fp, lsl #6
    72fe:	ea43 639a 	orr.w	r3, r3, sl, lsr #26
    7302:	1992      	adds	r2, r2, r6
    7304:	469b      	mov	fp, r3
    7306:	417b      	adcs	r3, r7
    7308:	42b2      	cmp	r2, r6
    730a:	eb73 0107 	sbcs.w	r1, r3, r7
    730e:	bfb4      	ite	lt
    7310:	2101      	movlt	r1, #1
    7312:	2100      	movge	r1, #0
    7314:	ebb1 7fdb 	cmp.w	r1, fp, lsr #31
    7318:	d156      	bne.n	73c8 <ada__real_time__time_of+0x1e0>
    731a:	a131      	add	r1, pc, #196	; (adr r1, 73e0 <ada__real_time__time_of+0x1f8>)
    731c:	e9d1 0100 	ldrd	r0, r1, [r1]
    7320:	f7ff fd3e 	bl	6da0 <ada__real_time__Oadd>
    7324:	e9dd 6704 	ldrd	r6, r7, [sp, #16]
    7328:	463b      	mov	r3, r7
    732a:	42b4      	cmp	r4, r6
    732c:	eb75 0303 	sbcs.w	r3, r5, r3
    7330:	db42      	blt.n	73b8 <ada__real_time__time_of+0x1d0>
    7332:	a329      	add	r3, pc, #164	; (adr r3, 73d8 <ada__real_time__time_of+0x1f0>)
    7334:	e9d3 2300 	ldrd	r2, r3, [r3]
    7338:	1ba6      	subs	r6, r4, r6
    733a:	eb65 0707 	sbc.w	r7, r5, r7
    733e:	42b2      	cmp	r2, r6
    7340:	41bb      	sbcs	r3, r7
    7342:	4634      	mov	r4, r6
    7344:	463d      	mov	r5, r7
    7346:	db37      	blt.n	73b8 <ada__real_time__time_of+0x1d0>
    7348:	00fb      	lsls	r3, r7, #3
    734a:	ea4f 08c6 	mov.w	r8, r6, lsl #3
    734e:	ea43 7956 	orr.w	r9, r3, r6, lsr #29
    7352:	ea4f 1248 	mov.w	r2, r8, lsl #5
    7356:	ea4f 1349 	mov.w	r3, r9, lsl #5
    735a:	ea43 63d8 	orr.w	r3, r3, r8, lsr #27
    735e:	ebb2 0808 	subs.w	r8, r2, r8
    7362:	eb63 0909 	sbc.w	r9, r3, r9
    7366:	ea4f 1688 	mov.w	r6, r8, lsl #6
    736a:	ea4f 1789 	mov.w	r7, r9, lsl #6
    736e:	ea47 6798 	orr.w	r7, r7, r8, lsr #26
    7372:	ebb6 0808 	subs.w	r8, r6, r8
    7376:	eb67 0909 	sbc.w	r9, r7, r9
    737a:	eb14 0408 	adds.w	r4, r4, r8
    737e:	eb45 0509 	adc.w	r5, r5, r9
    7382:	00a2      	lsls	r2, r4, #2
    7384:	00ab      	lsls	r3, r5, #2
    7386:	eb14 0802 	adds.w	r8, r4, r2
    738a:	ea43 7394 	orr.w	r3, r3, r4, lsr #30
    738e:	eb45 0903 	adc.w	r9, r5, r3
    7392:	ea4f 1288 	mov.w	r2, r8, lsl #6
    7396:	ea4f 1389 	mov.w	r3, r9, lsl #6
    739a:	ea43 6398 	orr.w	r3, r3, r8, lsr #26
    739e:	1880      	adds	r0, r0, r2
    73a0:	4159      	adcs	r1, r3
    73a2:	b007      	add	sp, #28
    73a4:	e8bd 8ff0 	ldmia.w	sp!, {r4, r5, r6, r7, r8, r9, sl, fp, pc}
    73a8:	f24d 00dc 	movw	r0, #53468	; 0xd0dc
    73ac:	f44f 71d1 	mov.w	r1, #418	; 0x1a2
    73b0:	f2c0 0000 	movt	r0, #0
    73b4:	f7fe f882 	bl	54bc <__gnat_rcheck_CE_Explicit_Raise>
    73b8:	f24d 00dc 	movw	r0, #53468	; 0xd0dc
    73bc:	f240 1199 	movw	r1, #409	; 0x199
    73c0:	f2c0 0000 	movt	r0, #0
    73c4:	f7fe f87a 	bl	54bc <__gnat_rcheck_CE_Explicit_Raise>
    73c8:	f24d 00dc 	movw	r0, #53468	; 0xd0dc
    73cc:	21bb      	movs	r1, #187	; 0xbb
    73ce:	f2c0 0000 	movt	r0, #0
    73d2:	f7fe f8a3 	bl	551c <__gnat_rcheck_CE_Overflow_Check>
    73d6:	bf00      	nop
    73d8:	fe535795 	.word	0xfe535795
    73dc:	0000035a 	.word	0x0000035a
    73e0:	004c4b40 	.word	0x004c4b40
    73e4:	00000000 	.word	0x00000000

000073e8 <ada__real_time__mul_div>:
    73e8:	e92d 4df0 	stmdb	sp!, {r4, r5, r6, r7, r8, sl, fp, lr}
    73ec:	b082      	sub	sp, #8
    73ee:	fba0 6702 	umull	r6, r7, r0, r2
    73f2:	4696      	mov	lr, r2
    73f4:	f04f 0b00 	mov.w	fp, #0
    73f8:	461a      	mov	r2, r3
    73fa:	4698      	mov	r8, r3
    73fc:	fb0e 730b 	mla	r3, lr, fp, r7
    7400:	2500      	movs	r5, #0
    7402:	461c      	mov	r4, r3
    7404:	46b2      	mov	sl, r6
    7406:	462f      	mov	r7, r5
    7408:	4626      	mov	r6, r4
    740a:	f04f 0b00 	mov.w	fp, #0
    740e:	462b      	mov	r3, r5
    7410:	fbee 6701 	umlal	r6, r7, lr, r1
    7414:	4630      	mov	r0, r6
    7416:	4639      	mov	r1, r7
    7418:	e9cd ab00 	strd	sl, fp, [sp]
    741c:	f002 f8aa 	bl	9574 <__aeabi_uldivmod>
    7420:	2900      	cmp	r1, #0
    7422:	bf08      	it	eq
    7424:	f1b0 4f00 	cmpeq.w	r0, #2147483648	; 0x80000000
    7428:	d227      	bcs.n	747a <ada__real_time__mul_div+0x92>
    742a:	fba0 2308 	umull	r2, r3, r0, r8
    742e:	eb08 71d8 	add.w	r1, r8, r8, lsr #31
    7432:	ebc2 0b06 	rsb	fp, r2, r6
    7436:	e9dd 6700 	ldrd	r6, r7, [sp]
    743a:	104b      	asrs	r3, r1, #1
    743c:	4642      	mov	r2, r8
    743e:	18f6      	adds	r6, r6, r3
    7440:	eb47 77e3 	adc.w	r7, r7, r3, asr #31
    7444:	462b      	mov	r3, r5
    7446:	e9cd 6700 	strd	r6, r7, [sp]
    744a:	4607      	mov	r7, r0
    744c:	e9dd 0100 	ldrd	r0, r1, [sp]
    7450:	1940      	adds	r0, r0, r5
    7452:	eb41 010b 	adc.w	r1, r1, fp
    7456:	f002 f88d 	bl	9574 <__aeabi_uldivmod>
    745a:	f04f 32ff 	mov.w	r2, #4294967295
    745e:	1b52      	subs	r2, r2, r5
    7460:	f06f 4300 	mvn.w	r3, #2147483648	; 0x80000000
    7464:	eb63 0307 	sbc.w	r3, r3, r7
    7468:	428b      	cmp	r3, r1
    746a:	bf08      	it	eq
    746c:	4282      	cmpeq	r2, r0
    746e:	d30c      	bcc.n	748a <ada__real_time__mul_div+0xa2>
    7470:	1940      	adds	r0, r0, r5
    7472:	4179      	adcs	r1, r7
    7474:	b002      	add	sp, #8
    7476:	e8bd 8df0 	ldmia.w	sp!, {r4, r5, r6, r7, r8, sl, fp, pc}
    747a:	f24d 00dc 	movw	r0, #53468	; 0xd0dc
    747e:	f240 11df 	movw	r1, #479	; 0x1df
    7482:	f2c0 0000 	movt	r0, #0
    7486:	f7fe f819 	bl	54bc <__gnat_rcheck_CE_Explicit_Raise>
    748a:	f24d 00dc 	movw	r0, #53468	; 0xd0dc
    748e:	f240 11ef 	movw	r1, #495	; 0x1ef
    7492:	f2c0 0000 	movt	r0, #0
    7496:	f7fe f811 	bl	54bc <__gnat_rcheck_CE_Explicit_Raise>
    749a:	bf00      	nop

0000749c <ada__real_time__to_duration>:
    749c:	b5f8      	push	{r3, r4, r5, r6, r7, lr}
    749e:	f1b1 4f00 	cmp.w	r1, #2147483648	; 0x80000000
    74a2:	bf08      	it	eq
    74a4:	2800      	cmpeq	r0, #0
    74a6:	460f      	mov	r7, r1
    74a8:	d01a      	beq.n	74e0 <ada__real_time__to_duration+0x44>
    74aa:	17cc      	asrs	r4, r1, #31
    74ac:	4060      	eors	r0, r4
    74ae:	1b00      	subs	r0, r0, r4
    74b0:	ea84 0101 	eor.w	r1, r4, r1
    74b4:	f44f 424a 	mov.w	r2, #51712	; 0xca00
    74b8:	f644 3340 	movw	r3, #19264	; 0x4b40
    74bc:	f6c3 329a 	movt	r2, #15258	; 0x3b9a
    74c0:	f2c0 034c 	movt	r3, #76	; 0x4c
    74c4:	eb61 0104 	sbc.w	r1, r1, r4
    74c8:	f7ff ff8e 	bl	73e8 <ada__real_time__mul_div>
    74cc:	0ffa      	lsrs	r2, r7, #31
    74ce:	2300      	movs	r3, #0
    74d0:	4254      	negs	r4, r2
    74d2:	eb63 0543 	sbc.w	r5, r3, r3, lsl #1
    74d6:	4060      	eors	r0, r4
    74d8:	4069      	eors	r1, r5
    74da:	1880      	adds	r0, r0, r2
    74dc:	4159      	adcs	r1, r3
    74de:	bdf8      	pop	{r3, r4, r5, r6, r7, pc}
    74e0:	f24d 00dc 	movw	r0, #53468	; 0xd0dc
    74e4:	f240 11df 	movw	r1, #479	; 0x1df
    74e8:	f2c0 0000 	movt	r0, #0
    74ec:	f7fd ffe6 	bl	54bc <__gnat_rcheck_CE_Explicit_Raise>

000074f0 <ada__real_time__to_time_span>:
    74f0:	b5f8      	push	{r3, r4, r5, r6, r7, lr}
    74f2:	17cc      	asrs	r4, r1, #31
    74f4:	4060      	eors	r0, r4
    74f6:	460f      	mov	r7, r1
    74f8:	1b00      	subs	r0, r0, r4
    74fa:	ea84 0101 	eor.w	r1, r4, r1
    74fe:	f644 3240 	movw	r2, #19264	; 0x4b40
    7502:	f44f 434a 	mov.w	r3, #51712	; 0xca00
    7506:	f2c0 024c 	movt	r2, #76	; 0x4c
    750a:	f6c3 339a 	movt	r3, #15258	; 0x3b9a
    750e:	eb61 0104 	sbc.w	r1, r1, r4
    7512:	f7ff ff69 	bl	73e8 <ada__real_time__mul_div>
    7516:	0ffa      	lsrs	r2, r7, #31
    7518:	2300      	movs	r3, #0
    751a:	4254      	negs	r4, r2
    751c:	eb63 0543 	sbc.w	r5, r3, r3, lsl #1
    7520:	4060      	eors	r0, r4
    7522:	4069      	eors	r1, r5
    7524:	1880      	adds	r0, r0, r2
    7526:	4159      	adcs	r1, r3
    7528:	bdf8      	pop	{r3, r4, r5, r6, r7, pc}
    752a:	bf00      	nop

0000752c <ada__real_time___elabb>:
    752c:	f000 b838 	b.w	75a0 <system__tasking__initialize>

00007530 <ada__real_time___elabs>:
    7530:	f642 5308 	movw	r3, #11528	; 0x2d08
    7534:	20c8      	movs	r0, #200	; 0xc8
    7536:	2100      	movs	r1, #0
    7538:	f6c0 0300 	movt	r3, #2048	; 0x800
    753c:	e9c3 0100 	strd	r0, r1, [r3]
    7540:	4770      	bx	lr
    7542:	bf00      	nop

00007544 <system__tasking__E5sIP>:
    7544:	2300      	movs	r3, #0
    7546:	6043      	str	r3, [r0, #4]
    7548:	4770      	bx	lr
    754a:	bf00      	nop

0000754c <system__tasking__activation_chainIP>:
    754c:	2300      	movs	r3, #0
    754e:	6003      	str	r3, [r0, #0]
    7550:	4770      	bx	lr
    7552:	bf00      	nop

00007554 <system__tasking__Tenvironment_taskBIP>:
    7554:	4770      	bx	lr
    7556:	bf00      	nop

00007558 <__gnat_get_secondary_stack>:
    7558:	f240 0374 	movw	r3, #116	; 0x74
    755c:	f6c0 0300 	movt	r3, #2048	; 0x800
    7560:	681b      	ldr	r3, [r3, #0]
    7562:	f8d3 30a0 	ldr.w	r3, [r3, #160]	; 0xa0
    7566:	f8d3 0110 	ldr.w	r0, [r3, #272]	; 0x110
    756a:	4770      	bx	lr

0000756c <system__tasking__initialize_atcb>:
    756c:	b5f8      	push	{r3, r4, r5, r6, r7, lr}
    756e:	f89d 7018 	ldrb.w	r7, [sp, #24]
    7572:	2500      	movs	r5, #0
    7574:	9c09      	ldr	r4, [sp, #36]	; 0x24
    7576:	9e07      	ldr	r6, [sp, #28]
    7578:	7225      	strb	r5, [r4, #8]
    757a:	7263      	strb	r3, [r4, #9]
    757c:	60e2      	str	r2, [r4, #12]
    757e:	6125      	str	r5, [r4, #16]
    7580:	f8c4 0104 	str.w	r0, [r4, #260]	; 0x104
    7584:	f8c4 1100 	str.w	r1, [r4, #256]	; 0x100
    7588:	f884 72c4 	strb.w	r7, [r4, #708]	; 0x2c4
    758c:	f8c4 6108 	str.w	r6, [r4, #264]	; 0x108
    7590:	9808      	ldr	r0, [sp, #32]
    7592:	f000 ff53 	bl	843c <system__parameters__adjust_storage_size>
    7596:	2301      	movs	r3, #1
    7598:	f8c4 010c 	str.w	r0, [r4, #268]	; 0x10c
    759c:	4618      	mov	r0, r3
    759e:	bdf8      	pop	{r3, r4, r5, r6, r7, pc}

000075a0 <system__tasking__initialize>:
    75a0:	f240 13b0 	movw	r3, #432	; 0x1b0
    75a4:	f6c0 0300 	movt	r3, #2048	; 0x800
    75a8:	781a      	ldrb	r2, [r3, #0]
    75aa:	2a00      	cmp	r2, #0
    75ac:	f040 80c4 	bne.w	7738 <system__tasking__initialize+0x198>
    75b0:	e92d 43f0 	stmdb	sp!, {r4, r5, r6, r7, r8, r9, lr}
    75b4:	b085      	sub	sp, #20
    75b6:	f240 12bc 	movw	r2, #444	; 0x1bc
    75ba:	2101      	movs	r1, #1
    75bc:	f6c0 0200 	movt	r2, #2048	; 0x800
    75c0:	7019      	strb	r1, [r3, #0]
    75c2:	6813      	ldr	r3, [r2, #0]
    75c4:	3301      	adds	r3, #1
    75c6:	f000 80a6 	beq.w	7716 <system__tasking__initialize+0x176>
    75ca:	6813      	ldr	r3, [r2, #0]
    75cc:	2b00      	cmp	r3, #0
    75ce:	db03      	blt.n	75d8 <system__tasking__initialize+0x38>
    75d0:	6813      	ldr	r3, [r2, #0]
    75d2:	428b      	cmp	r3, r1
    75d4:	f340 809f 	ble.w	7716 <system__tasking__initialize+0x176>
    75d8:	2501      	movs	r5, #1
    75da:	4628      	mov	r0, r5
    75dc:	462e      	mov	r6, r5
    75de:	462b      	mov	r3, r5
    75e0:	f240 11ac 	movw	r1, #428	; 0x1ac
    75e4:	ea4f 0845 	mov.w	r8, r5, lsl #1
    75e8:	f6c0 0100 	movt	r1, #2048	; 0x800
    75ec:	eb08 0405 	add.w	r4, r8, r5
    75f0:	6010      	str	r0, [r2, #0]
    75f2:	f642 5710 	movw	r7, #11536	; 0x2d10
    75f6:	ebc5 04c4 	rsb	r4, r5, r4, lsl #3
    75fa:	680a      	ldr	r2, [r1, #0]
    75fc:	f6c0 0700 	movt	r7, #2048	; 0x800
    7600:	eb07 1444 	add.w	r4, r7, r4, lsl #5
    7604:	3201      	adds	r2, #1
    7606:	f5a4 7438 	sub.w	r4, r4, #736	; 0x2e0
    760a:	f04f 0900 	mov.w	r9, #0
    760e:	bf0c      	ite	eq
    7610:	2278      	moveq	r2, #120	; 0x78
    7612:	680a      	ldrne	r2, [r1, #0]
    7614:	2102      	movs	r1, #2
    7616:	9403      	str	r4, [sp, #12]
    7618:	4648      	mov	r0, r9
    761a:	9100      	str	r1, [sp, #0]
    761c:	4649      	mov	r1, r9
    761e:	f8cd 9004 	str.w	r9, [sp, #4]
    7622:	f8cd 9008 	str.w	r9, [sp, #8]
    7626:	f7ff ffa1 	bl	756c <system__tasking__initialize_atcb>
    762a:	f104 0318 	add.w	r3, r4, #24
    762e:	f8c4 30f8 	str.w	r3, [r4, #248]	; 0xf8
    7632:	f8c4 92c0 	str.w	r9, [r4, #704]	; 0x2c0
    7636:	f8d4 00f8 	ldr.w	r0, [r4, #248]	; 0xf8
    763a:	68e1      	ldr	r1, [r4, #12]
    763c:	f7fb fcf2 	bl	3024 <system__bb__threads__initialize>
    7640:	f240 1250 	movw	r2, #336	; 0x150
    7644:	f6c0 0200 	movt	r2, #2048	; 0x800
    7648:	f240 0374 	movw	r3, #116	; 0x74
    764c:	f6c0 0300 	movt	r3, #2048	; 0x800
    7650:	6811      	ldr	r1, [r2, #0]
    7652:	6818      	ldr	r0, [r3, #0]
    7654:	f8c0 40a0 	str.w	r4, [r0, #160]	; 0xa0
    7658:	f8c4 90fc 	str.w	r9, [r4, #252]	; 0xfc
    765c:	2900      	cmp	r1, #0
    765e:	d071      	beq.n	7744 <system__tasking__initialize+0x1a4>
    7660:	f8c1 42c0 	str.w	r4, [r1, #704]	; 0x2c0
    7664:	6014      	str	r4, [r2, #0]
    7666:	68e0      	ldr	r0, [r4, #12]
    7668:	b672      	cpsid	i
    766a:	f8d3 e000 	ldr.w	lr, [r3]
    766e:	f89e 30a4 	ldrb.w	r3, [lr, #164]	; 0xa4
    7672:	2b00      	cmp	r3, #0
    7674:	f8ce 00ac 	str.w	r0, [lr, #172]	; 0xac
    7678:	bf08      	it	eq
    767a:	2301      	moveq	r3, #1
    767c:	f8de 20b8 	ldr.w	r2, [lr, #184]	; 0xb8
    7680:	b1ea      	cbz	r2, 76be <system__tasking__initialize+0x11e>
    7682:	f8d2 10ac 	ldr.w	r1, [r2, #172]	; 0xac
    7686:	4288      	cmp	r0, r1
    7688:	da19      	bge.n	76be <system__tasking__initialize+0x11e>
    768a:	b25b      	sxtb	r3, r3
    768c:	f103 4380 	add.w	r3, r3, #1073741824	; 0x40000000
    7690:	f240 0168 	movw	r1, #104	; 0x68
    7694:	3b01      	subs	r3, #1
    7696:	f6c0 0100 	movt	r1, #2048	; 0x800
    769a:	f841 2023 	str.w	r2, [r1, r3, lsl #2]
    769e:	f851 2023 	ldr.w	r2, [r1, r3, lsl #2]
    76a2:	e004      	b.n	76ae <system__tasking__initialize+0x10e>
    76a4:	f8d3 10ac 	ldr.w	r1, [r3, #172]	; 0xac
    76a8:	4288      	cmp	r0, r1
    76aa:	da04      	bge.n	76b6 <system__tasking__initialize+0x116>
    76ac:	461a      	mov	r2, r3
    76ae:	f8d2 30b8 	ldr.w	r3, [r2, #184]	; 0xb8
    76b2:	2b00      	cmp	r3, #0
    76b4:	d1f6      	bne.n	76a4 <system__tasking__initialize+0x104>
    76b6:	f8ce 30b8 	str.w	r3, [lr, #184]	; 0xb8
    76ba:	f8c2 e0b8 	str.w	lr, [r2, #184]	; 0xb8
    76be:	44a8      	add	r8, r5
    76c0:	f7fb f9e0 	bl	2a84 <system__bb__protection__leave_kernel>
    76c4:	f240 12f4 	movw	r2, #500	; 0x1f4
    76c8:	f642 73f0 	movw	r3, #12272	; 0x2ff0
    76cc:	ebc5 05c8 	rsb	r5, r5, r8, lsl #3
    76d0:	f6c0 0300 	movt	r3, #2048	; 0x800
    76d4:	f6c0 0200 	movt	r2, #2048	; 0x800
    76d8:	016d      	lsls	r5, r5, #5
    76da:	f5a5 7836 	sub.w	r8, r5, #728	; 0x2d8
    76de:	443d      	add	r5, r7
    76e0:	f04f 0c01 	mov.w	ip, #1
    76e4:	f5a5 7ee8 	sub.w	lr, r5, #464	; 0x1d0
    76e8:	6014      	str	r4, [r2, #0]
    76ea:	4618      	mov	r0, r3
    76ec:	f807 c008 	strb.w	ip, [r7, r8]
    76f0:	f44f 5120 	mov.w	r1, #10240	; 0x2800
    76f4:	f8ce 3000 	str.w	r3, [lr]
    76f8:	f845 4c10 	str.w	r4, [r5, #-16]
    76fc:	f7fa ff68 	bl	25d0 <system__secondary_stack__ss_init>
    7700:	f240 13b4 	movw	r3, #436	; 0x1b4
    7704:	2200      	movs	r2, #0
    7706:	f6c0 0300 	movt	r3, #2048	; 0x800
    770a:	601a      	str	r2, [r3, #0]
    770c:	605a      	str	r2, [r3, #4]
    770e:	b9fe      	cbnz	r6, 7750 <system__tasking__initialize+0x1b0>
    7710:	b005      	add	sp, #20
    7712:	e8bd 83f0 	ldmia.w	sp!, {r4, r5, r6, r7, r8, r9, pc}
    7716:	6811      	ldr	r1, [r2, #0]
    7718:	f240 13bc 	movw	r3, #444	; 0x1bc
    771c:	f6c0 0300 	movt	r3, #2048	; 0x800
    7720:	3101      	adds	r1, #1
    7722:	d00a      	beq.n	773a <system__tasking__initialize+0x19a>
    7724:	6819      	ldr	r1, [r3, #0]
    7726:	f011 0fff 	tst.w	r1, #255	; 0xff
    772a:	d006      	beq.n	773a <system__tasking__initialize+0x19a>
    772c:	681d      	ldr	r5, [r3, #0]
    772e:	2600      	movs	r6, #0
    7730:	b2eb      	uxtb	r3, r5
    7732:	4618      	mov	r0, r3
    7734:	b26d      	sxtb	r5, r5
    7736:	e753      	b.n	75e0 <system__tasking__initialize+0x40>
    7738:	4770      	bx	lr
    773a:	2501      	movs	r5, #1
    773c:	2600      	movs	r6, #0
    773e:	4628      	mov	r0, r5
    7740:	462b      	mov	r3, r5
    7742:	e74d      	b.n	75e0 <system__tasking__initialize+0x40>
    7744:	f240 114c 	movw	r1, #332	; 0x14c
    7748:	f6c0 0100 	movt	r1, #2048	; 0x800
    774c:	600c      	str	r4, [r1, #0]
    774e:	e789      	b.n	7664 <system__tasking__initialize+0xc4>
    7750:	f24d 1254 	movw	r2, #53588	; 0xd154
    7754:	f240 0098 	movw	r0, #152	; 0x98
    7758:	f2c0 0200 	movt	r2, #0
    775c:	f6c0 0000 	movt	r0, #2048	; 0x800
    7760:	f102 0330 	add.w	r3, r2, #48	; 0x30
    7764:	f7fd fd04 	bl	5170 <__gnat_raise_exception>

00007768 <__gnat_initialize_slave>:
    7768:	e92d 43f0 	stmdb	sp!, {r4, r5, r6, r7, r8, r9, lr}
    776c:	b085      	sub	sp, #20
    776e:	b245      	sxtb	r5, r0
    7770:	f642 5610 	movw	r6, #11536	; 0x2d10
    7774:	f04f 0900 	mov.w	r9, #0
    7778:	006f      	lsls	r7, r5, #1
    777a:	197c      	adds	r4, r7, r5
    777c:	f6c0 0600 	movt	r6, #2048	; 0x800
    7780:	2202      	movs	r2, #2
    7782:	ebc5 04c4 	rsb	r4, r5, r4, lsl #3
    7786:	4603      	mov	r3, r0
    7788:	4649      	mov	r1, r9
    778a:	eb06 1444 	add.w	r4, r6, r4, lsl #5
    778e:	f5a4 7438 	sub.w	r4, r4, #736	; 0x2e0
    7792:	9200      	str	r2, [sp, #0]
    7794:	4648      	mov	r0, r9
    7796:	464a      	mov	r2, r9
    7798:	f240 0874 	movw	r8, #116	; 0x74
    779c:	f8cd 9004 	str.w	r9, [sp, #4]
    77a0:	f6c0 0800 	movt	r8, #2048	; 0x800
    77a4:	f8cd 9008 	str.w	r9, [sp, #8]
    77a8:	9403      	str	r4, [sp, #12]
    77aa:	f7ff fedf 	bl	756c <system__tasking__initialize_atcb>
    77ae:	f104 0318 	add.w	r3, r4, #24
    77b2:	f8c4 30f8 	str.w	r3, [r4, #248]	; 0xf8
    77b6:	f8c4 92c0 	str.w	r9, [r4, #704]	; 0x2c0
    77ba:	f8d4 00f8 	ldr.w	r0, [r4, #248]	; 0xf8
    77be:	f7fb fc93 	bl	30e8 <system__bb__threads__initialize_slave_environment>
    77c2:	f240 1350 	movw	r3, #336	; 0x150
    77c6:	f6c0 0300 	movt	r3, #2048	; 0x800
    77ca:	f8d8 2000 	ldr.w	r2, [r8]
    77ce:	f8c2 40a0 	str.w	r4, [r2, #160]	; 0xa0
    77d2:	681a      	ldr	r2, [r3, #0]
    77d4:	f8c4 90fc 	str.w	r9, [r4, #252]	; 0xfc
    77d8:	2a00      	cmp	r2, #0
    77da:	d06e      	beq.n	78ba <__gnat_initialize_slave+0x152>
    77dc:	f8c2 42c0 	str.w	r4, [r2, #704]	; 0x2c0
    77e0:	601c      	str	r4, [r3, #0]
    77e2:	68e0      	ldr	r0, [r4, #12]
    77e4:	b672      	cpsid	i
    77e6:	f8d8 e000 	ldr.w	lr, [r8]
    77ea:	f89e 30a4 	ldrb.w	r3, [lr, #164]	; 0xa4
    77ee:	2b00      	cmp	r3, #0
    77f0:	f8ce 00ac 	str.w	r0, [lr, #172]	; 0xac
    77f4:	bf08      	it	eq
    77f6:	2301      	moveq	r3, #1
    77f8:	f8de 20b8 	ldr.w	r2, [lr, #184]	; 0xb8
    77fc:	b1ea      	cbz	r2, 783a <__gnat_initialize_slave+0xd2>
    77fe:	f8d2 10ac 	ldr.w	r1, [r2, #172]	; 0xac
    7802:	4288      	cmp	r0, r1
    7804:	da19      	bge.n	783a <__gnat_initialize_slave+0xd2>
    7806:	b25b      	sxtb	r3, r3
    7808:	f103 4380 	add.w	r3, r3, #1073741824	; 0x40000000
    780c:	f240 0168 	movw	r1, #104	; 0x68
    7810:	3b01      	subs	r3, #1
    7812:	f6c0 0100 	movt	r1, #2048	; 0x800
    7816:	f841 2023 	str.w	r2, [r1, r3, lsl #2]
    781a:	f851 2023 	ldr.w	r2, [r1, r3, lsl #2]
    781e:	e004      	b.n	782a <__gnat_initialize_slave+0xc2>
    7820:	f8d3 10ac 	ldr.w	r1, [r3, #172]	; 0xac
    7824:	4288      	cmp	r0, r1
    7826:	da04      	bge.n	7832 <__gnat_initialize_slave+0xca>
    7828:	461a      	mov	r2, r3
    782a:	f8d2 30b8 	ldr.w	r3, [r2, #184]	; 0xb8
    782e:	2b00      	cmp	r3, #0
    7830:	d1f6      	bne.n	7820 <__gnat_initialize_slave+0xb8>
    7832:	f8ce 30b8 	str.w	r3, [lr, #184]	; 0xb8
    7836:	f8c2 e0b8 	str.w	lr, [r2, #184]	; 0xb8
    783a:	f7fb f923 	bl	2a84 <system__bb__protection__leave_kernel>
    783e:	b672      	cpsid	i
    7840:	f8d8 0000 	ldr.w	r0, [r8]
    7844:	2200      	movs	r2, #0
    7846:	f890 30a4 	ldrb.w	r3, [r0, #164]	; 0xa4
    784a:	4293      	cmp	r3, r2
    784c:	f8c0 20ac 	str.w	r2, [r0, #172]	; 0xac
    7850:	bf08      	it	eq
    7852:	2301      	moveq	r3, #1
    7854:	f8d0 20b8 	ldr.w	r2, [r0, #184]	; 0xb8
    7858:	b1ea      	cbz	r2, 7896 <__gnat_initialize_slave+0x12e>
    785a:	f8d2 10ac 	ldr.w	r1, [r2, #172]	; 0xac
    785e:	2900      	cmp	r1, #0
    7860:	dd19      	ble.n	7896 <__gnat_initialize_slave+0x12e>
    7862:	b25b      	sxtb	r3, r3
    7864:	f103 4380 	add.w	r3, r3, #1073741824	; 0x40000000
    7868:	f240 0168 	movw	r1, #104	; 0x68
    786c:	3b01      	subs	r3, #1
    786e:	f6c0 0100 	movt	r1, #2048	; 0x800
    7872:	f841 2023 	str.w	r2, [r1, r3, lsl #2]
    7876:	f851 2023 	ldr.w	r2, [r1, r3, lsl #2]
    787a:	e004      	b.n	7886 <__gnat_initialize_slave+0x11e>
    787c:	f8d3 10ac 	ldr.w	r1, [r3, #172]	; 0xac
    7880:	2900      	cmp	r1, #0
    7882:	dd04      	ble.n	788e <__gnat_initialize_slave+0x126>
    7884:	461a      	mov	r2, r3
    7886:	f8d2 30b8 	ldr.w	r3, [r2, #184]	; 0xb8
    788a:	2b00      	cmp	r3, #0
    788c:	d1f6      	bne.n	787c <__gnat_initialize_slave+0x114>
    788e:	f8c0 30b8 	str.w	r3, [r0, #184]	; 0xb8
    7892:	f8c2 00b8 	str.w	r0, [r2, #184]	; 0xb8
    7896:	f7fb f8f5 	bl	2a84 <system__bb__protection__leave_kernel>
    789a:	442f      	add	r7, r5
    789c:	2300      	movs	r3, #0
    789e:	ebc5 05c7 	rsb	r5, r5, r7, lsl #3
    78a2:	016d      	lsls	r5, r5, #5
    78a4:	1972      	adds	r2, r6, r5
    78a6:	f5a5 7536 	sub.w	r5, r5, #728	; 0x2d8
    78aa:	f842 4c10 	str.w	r4, [r2, #-16]
    78ae:	5573      	strb	r3, [r6, r5]
    78b0:	b005      	add	sp, #20
    78b2:	e8bd 43f0 	ldmia.w	sp!, {r4, r5, r6, r7, r8, r9, lr}
    78b6:	f7fb bc5d 	b.w	3174 <system__bb__threads__sleep>
    78ba:	f240 124c 	movw	r2, #332	; 0x14c
    78be:	f6c0 0200 	movt	r2, #2048	; 0x800
    78c2:	6014      	str	r4, [r2, #0]
    78c4:	e78c      	b.n	77e0 <__gnat_initialize_slave+0x78>
    78c6:	bf00      	nop

000078c8 <system__tasking__self>:
    78c8:	f240 0374 	movw	r3, #116	; 0x74
    78cc:	f6c0 0300 	movt	r3, #2048	; 0x800
    78d0:	681b      	ldr	r3, [r3, #0]
    78d2:	f8d3 00a0 	ldr.w	r0, [r3, #160]	; 0xa0
    78d6:	4770      	bx	lr

000078d8 <system__tasking__set_sec_stack>:
    78d8:	f240 0374 	movw	r3, #116	; 0x74
    78dc:	f6c0 0300 	movt	r3, #2048	; 0x800
    78e0:	681b      	ldr	r3, [r3, #0]
    78e2:	f8d3 30a0 	ldr.w	r3, [r3, #160]	; 0xa0
    78e6:	f8c3 0110 	str.w	r0, [r3, #272]	; 0x110
    78ea:	4770      	bx	lr

000078ec <system__tasking__storage_size>:
    78ec:	f8d0 010c 	ldr.w	r0, [r0, #268]	; 0x10c
    78f0:	4770      	bx	lr
    78f2:	bf00      	nop

000078f4 <system__wch_con__get_wc_encoding_method>:
    78f4:	b508      	push	{r3, lr}
    78f6:	f24d 3240 	movw	r2, #54080	; 0xd340
    78fa:	2300      	movs	r3, #0
    78fc:	f2c0 0200 	movt	r2, #0
    7900:	3301      	adds	r3, #1
    7902:	7811      	ldrb	r1, [r2, #0]
    7904:	4281      	cmp	r1, r0
    7906:	b2db      	uxtb	r3, r3
    7908:	d00a      	beq.n	7920 <system__wch_con__get_wc_encoding_method+0x2c>
    790a:	2b06      	cmp	r3, #6
    790c:	f102 0201 	add.w	r2, r2, #1
    7910:	d1f6      	bne.n	7900 <system__wch_con__get_wc_encoding_method+0xc>
    7912:	f24d 20ec 	movw	r0, #53996	; 0xd2ec
    7916:	2130      	movs	r1, #48	; 0x30
    7918:	f2c0 0000 	movt	r0, #0
    791c:	f7fd fdce 	bl	54bc <__gnat_rcheck_CE_Explicit_Raise>
    7920:	b2d8      	uxtb	r0, r3
    7922:	bd08      	pop	{r3, pc}

00007924 <system__wch_con__get_wc_encoding_method__2>:
    7924:	b510      	push	{r4, lr}
    7926:	e891 000c 	ldmia.w	r1, {r2, r3}
    792a:	1a9b      	subs	r3, r3, r2
    792c:	2b02      	cmp	r3, #2
    792e:	d015      	beq.n	795c <system__wch_con__get_wc_encoding_method__2+0x38>
    7930:	2b04      	cmp	r3, #4
    7932:	d00c      	beq.n	794e <system__wch_con__get_wc_encoding_method__2+0x2a>
    7934:	2b08      	cmp	r3, #8
    7936:	d01f      	beq.n	7978 <system__wch_con__get_wc_encoding_method__2+0x54>
    7938:	2b03      	cmp	r3, #3
    793a:	d026      	beq.n	798a <system__wch_con__get_wc_encoding_method__2+0x66>
    793c:	2b07      	cmp	r3, #7
    793e:	d12b      	bne.n	7998 <system__wch_con__get_wc_encoding_method__2+0x74>
    7940:	4919      	ldr	r1, [pc, #100]	; (79a8 <system__wch_con__get_wc_encoding_method__2+0x84>)
    7942:	2208      	movs	r2, #8
    7944:	f7fb fd44 	bl	33d0 <memcmp>
    7948:	bb30      	cbnz	r0, 7998 <system__wch_con__get_wc_encoding_method__2+0x74>
    794a:	2006      	movs	r0, #6
    794c:	bd10      	pop	{r4, pc}
    794e:	4917      	ldr	r1, [pc, #92]	; (79ac <system__wch_con__get_wc_encoding_method__2+0x88>)
    7950:	2205      	movs	r2, #5
    7952:	f7fb fd3d 	bl	33d0 <memcmp>
    7956:	b9f8      	cbnz	r0, 7998 <system__wch_con__get_wc_encoding_method__2+0x74>
    7958:	2002      	movs	r0, #2
    795a:	bd10      	pop	{r4, pc}
    795c:	4914      	ldr	r1, [pc, #80]	; (79b0 <system__wch_con__get_wc_encoding_method__2+0x8c>)
    795e:	2203      	movs	r2, #3
    7960:	4604      	mov	r4, r0
    7962:	f7fb fd35 	bl	33d0 <memcmp>
    7966:	b170      	cbz	r0, 7986 <system__wch_con__get_wc_encoding_method__2+0x62>
    7968:	4620      	mov	r0, r4
    796a:	2203      	movs	r2, #3
    796c:	4911      	ldr	r1, [pc, #68]	; (79b4 <system__wch_con__get_wc_encoding_method__2+0x90>)
    796e:	f7fb fd2f 	bl	33d0 <memcmp>
    7972:	b988      	cbnz	r0, 7998 <system__wch_con__get_wc_encoding_method__2+0x74>
    7974:	2004      	movs	r0, #4
    7976:	bd10      	pop	{r4, pc}
    7978:	490f      	ldr	r1, [pc, #60]	; (79b8 <system__wch_con__get_wc_encoding_method__2+0x94>)
    797a:	2209      	movs	r2, #9
    797c:	f7fb fd28 	bl	33d0 <memcmp>
    7980:	b950      	cbnz	r0, 7998 <system__wch_con__get_wc_encoding_method__2+0x74>
    7982:	2003      	movs	r0, #3
    7984:	bd10      	pop	{r4, pc}
    7986:	2001      	movs	r0, #1
    7988:	bd10      	pop	{r4, pc}
    798a:	490c      	ldr	r1, [pc, #48]	; (79bc <system__wch_con__get_wc_encoding_method__2+0x98>)
    798c:	2204      	movs	r2, #4
    798e:	f7fb fd1f 	bl	33d0 <memcmp>
    7992:	b908      	cbnz	r0, 7998 <system__wch_con__get_wc_encoding_method__2+0x74>
    7994:	2005      	movs	r0, #5
    7996:	e7d9      	b.n	794c <system__wch_con__get_wc_encoding_method__2+0x28>
    7998:	f24d 20ec 	movw	r0, #53996	; 0xd2ec
    799c:	2142      	movs	r1, #66	; 0x42
    799e:	f2c0 0000 	movt	r0, #0
    79a2:	f7fd fd8b 	bl	54bc <__gnat_rcheck_CE_Explicit_Raise>
    79a6:	bf00      	nop
    79a8:	0000d31c 	.word	0x0000d31c
    79ac:	0000d300 	.word	0x0000d300
    79b0:	0000d2fc 	.word	0x0000d2fc
    79b4:	0000d314 	.word	0x0000d314
    79b8:	0000d308 	.word	0x0000d308
    79bc:	0000d318 	.word	0x0000d318

000079c0 <system__wch_con__is_start_of_encoding>:
    79c0:	1e8b      	subs	r3, r1, #2
    79c2:	2b03      	cmp	r3, #3
    79c4:	d807      	bhi.n	79d6 <system__wch_con__is_start_of_encoding+0x16>
    79c6:	2880      	cmp	r0, #128	; 0x80
    79c8:	f04f 0300 	mov.w	r3, #0
    79cc:	f173 0300 	sbcs.w	r3, r3, #0
    79d0:	bfa8      	it	ge
    79d2:	2001      	movge	r0, #1
    79d4:	da05      	bge.n	79e2 <system__wch_con__is_start_of_encoding+0x22>
    79d6:	2901      	cmp	r1, #1
    79d8:	bf08      	it	eq
    79da:	281b      	cmpeq	r0, #27
    79dc:	bf0c      	ite	eq
    79de:	2001      	moveq	r0, #1
    79e0:	2000      	movne	r0, #0
    79e2:	4770      	bx	lr

000079e4 <system__bb__time__composite_execution_timeIP>:
    79e4:	4770      	bx	lr
    79e6:	bf00      	nop

000079e8 <system__bb__time__composite_timeIP>:
    79e8:	2201      	movs	r2, #1
    79ea:	2300      	movs	r3, #0
    79ec:	6002      	str	r2, [r0, #0]
    79ee:	6043      	str	r3, [r0, #4]
    79f0:	4770      	bx	lr
    79f2:	bf00      	nop

000079f4 <system__bb__time__clock>:
    79f4:	e92d 41f0 	stmdb	sp!, {r4, r5, r6, r7, r8, lr}
    79f8:	f240 14d8 	movw	r4, #472	; 0x1d8
    79fc:	2500      	movs	r5, #0
    79fe:	f6c0 0400 	movt	r4, #2048	; 0x800
    7a02:	6826      	ldr	r6, [r4, #0]
    7a04:	3501      	adds	r5, #1
    7a06:	6867      	ldr	r7, [r4, #4]
    7a08:	f7fb fa14 	bl	2e34 <system__bb__board_support__read_clock>
    7a0c:	6822      	ldr	r2, [r4, #0]
    7a0e:	ebc8 0306 	rsb	r3, r8, r6
    7a12:	4296      	cmp	r6, r2
    7a14:	d012      	beq.n	7a3c <system__bb__time__clock+0x48>
    7a16:	2d01      	cmp	r5, #1
    7a18:	d00e      	beq.n	7a38 <system__bb__time__clock+0x44>
    7a1a:	2b01      	cmp	r3, #1
    7a1c:	bf8c      	ite	hi
    7a1e:	2300      	movhi	r3, #0
    7a20:	2301      	movls	r3, #1
    7a22:	2d03      	cmp	r5, #3
    7a24:	bf08      	it	eq
    7a26:	2300      	moveq	r3, #0
    7a28:	2b00      	cmp	r3, #0
    7a2a:	d1ea      	bne.n	7a02 <system__bb__time__clock+0xe>
    7a2c:	4635      	mov	r5, r6
    7a2e:	461c      	mov	r4, r3
    7a30:	4620      	mov	r0, r4
    7a32:	4629      	mov	r1, r5
    7a34:	e8bd 81f0 	ldmia.w	sp!, {r4, r5, r6, r7, r8, pc}
    7a38:	46b0      	mov	r8, r6
    7a3a:	e7e2      	b.n	7a02 <system__bb__time__clock+0xe>
    7a3c:	2400      	movs	r4, #0
    7a3e:	4287      	cmp	r7, r0
    7a40:	bf94      	ite	ls
    7a42:	4635      	movls	r5, r6
    7a44:	1c75      	addhi	r5, r6, #1
    7a46:	1824      	adds	r4, r4, r0
    7a48:	f145 0500 	adc.w	r5, r5, #0
    7a4c:	e7f0      	b.n	7a30 <system__bb__time__clock+0x3c>
    7a4e:	bf00      	nop

00007a50 <system__bb__time__epoch>:
    7a50:	2000      	movs	r0, #0
    7a52:	2101      	movs	r1, #1
    7a54:	4770      	bx	lr
    7a56:	bf00      	nop

00007a58 <system__bb__time__get_next_timeout>:
    7a58:	b430      	push	{r4, r5}
    7a5a:	b240      	sxtb	r0, r0
    7a5c:	f100 4080 	add.w	r0, r0, #1073741824	; 0x40000000
    7a60:	f240 0370 	movw	r3, #112	; 0x70
    7a64:	3801      	subs	r0, #1
    7a66:	f6c0 0300 	movt	r3, #2048	; 0x800
    7a6a:	f853 3020 	ldr.w	r3, [r3, r0, lsl #2]
    7a6e:	b1a3      	cbz	r3, 7a9a <system__bb__time__get_next_timeout+0x42>
    7a70:	e9d3 4530 	ldrd	r4, r5, [r3, #192]	; 0xc0
    7a74:	f240 1340 	movw	r3, #320	; 0x140
    7a78:	f6c0 0300 	movt	r3, #2048	; 0x800
    7a7c:	f853 3020 	ldr.w	r3, [r3, r0, lsl #2]
    7a80:	b1bb      	cbz	r3, 7ab2 <system__bb__time__get_next_timeout+0x5a>
    7a82:	689a      	ldr	r2, [r3, #8]
    7a84:	68db      	ldr	r3, [r3, #12]
    7a86:	429d      	cmp	r5, r3
    7a88:	bf08      	it	eq
    7a8a:	4294      	cmpeq	r4, r2
    7a8c:	4610      	mov	r0, r2
    7a8e:	4619      	mov	r1, r3
    7a90:	bf3c      	itt	cc
    7a92:	4620      	movcc	r0, r4
    7a94:	4629      	movcc	r1, r5
    7a96:	bc30      	pop	{r4, r5}
    7a98:	4770      	bx	lr
    7a9a:	f240 1340 	movw	r3, #320	; 0x140
    7a9e:	f04f 34ff 	mov.w	r4, #4294967295
    7aa2:	f6c0 0300 	movt	r3, #2048	; 0x800
    7aa6:	f04f 35ff 	mov.w	r5, #4294967295
    7aaa:	f853 3020 	ldr.w	r3, [r3, r0, lsl #2]
    7aae:	2b00      	cmp	r3, #0
    7ab0:	d1e7      	bne.n	7a82 <system__bb__time__get_next_timeout+0x2a>
    7ab2:	f04f 32ff 	mov.w	r2, #4294967295
    7ab6:	4613      	mov	r3, r2
    7ab8:	e7e5      	b.n	7a86 <system__bb__time__get_next_timeout+0x2e>
    7aba:	bf00      	nop

00007abc <system__bb__time__initialize_timers>:
    7abc:	e92d 43f8 	stmdb	sp!, {r3, r4, r5, r6, r7, r8, r9, lr}
    7ac0:	f64f 6210 	movw	r2, #65040	; 0xfe10
    7ac4:	f240 17e0 	movw	r7, #480	; 0x1e0
    7ac8:	f6cf 72ff 	movt	r2, #65535	; 0xffff
    7acc:	f64f 70f9 	movw	r0, #65529	; 0xfff9
    7ad0:	f6cd 70ff 	movt	r0, #57343	; 0xdfff
    7ad4:	2100      	movs	r1, #0
    7ad6:	f6c0 0700 	movt	r7, #2048	; 0x800
    7ada:	f642 2378 	movw	r3, #10872	; 0x2a78
    7ade:	f647 555d 	movw	r5, #32093	; 0x7d5d
    7ae2:	f6c0 0300 	movt	r3, #2048	; 0x800
    7ae6:	e9c7 0100 	strd	r0, r1, [r7]
    7aea:	f2c0 0500 	movt	r5, #0
    7aee:	6812      	ldr	r2, [r2, #0]
    7af0:	f643 6011 	movw	r0, #15889	; 0x3e11
    7af4:	2105      	movs	r1, #5
    7af6:	f2c0 0000 	movt	r0, #0
    7afa:	f012 0f20 	tst.w	r2, #32
    7afe:	bf14      	ite	ne
    7b00:	22f2      	movne	r2, #242	; 0xf2
    7b02:	22f1      	moveq	r2, #241	; 0xf1
    7b04:	615d      	str	r5, [r3, #20]
    7b06:	f7fb f9df 	bl	2ec8 <system__bb__board_support__install_interrupt_handler>
    7b0a:	f7fb f993 	bl	2e34 <system__bb__board_support__read_clock>
    7b0e:	f240 14d8 	movw	r4, #472	; 0x1d8
    7b12:	f6c0 0400 	movt	r4, #2048	; 0x800
    7b16:	2500      	movs	r5, #0
    7b18:	6060      	str	r0, [r4, #4]
    7b1a:	6826      	ldr	r6, [r4, #0]
    7b1c:	3501      	adds	r5, #1
    7b1e:	f8d4 9004 	ldr.w	r9, [r4, #4]
    7b22:	f7fb f987 	bl	2e34 <system__bb__board_support__read_clock>
    7b26:	6822      	ldr	r2, [r4, #0]
    7b28:	ebc8 0306 	rsb	r3, r8, r6
    7b2c:	4296      	cmp	r6, r2
    7b2e:	d01d      	beq.n	7b6c <system__bb__time__initialize_timers+0xb0>
    7b30:	2d01      	cmp	r5, #1
    7b32:	d019      	beq.n	7b68 <system__bb__time__initialize_timers+0xac>
    7b34:	2b01      	cmp	r3, #1
    7b36:	bf8c      	ite	hi
    7b38:	2300      	movhi	r3, #0
    7b3a:	2301      	movls	r3, #1
    7b3c:	2d03      	cmp	r5, #3
    7b3e:	bf08      	it	eq
    7b40:	2300      	moveq	r3, #0
    7b42:	2b00      	cmp	r3, #0
    7b44:	d1e9      	bne.n	7b1a <system__bb__time__initialize_timers+0x5e>
    7b46:	4635      	mov	r5, r6
    7b48:	461c      	mov	r4, r3
    7b4a:	e9d7 2300 	ldrd	r2, r3, [r7]
    7b4e:	f240 11c8 	movw	r1, #456	; 0x1c8
    7b52:	4610      	mov	r0, r2
    7b54:	f6c0 0100 	movt	r1, #2048	; 0x800
    7b58:	1912      	adds	r2, r2, r4
    7b5a:	416b      	adcs	r3, r5
    7b5c:	e9c1 2300 	strd	r2, r3, [r1]
    7b60:	e8bd 43f8 	ldmia.w	sp!, {r3, r4, r5, r6, r7, r8, r9, lr}
    7b64:	f7fb b946 	b.w	2df4 <system__bb__board_support__set_alarm>
    7b68:	46b0      	mov	r8, r6
    7b6a:	e7d6      	b.n	7b1a <system__bb__time__initialize_timers+0x5e>
    7b6c:	2200      	movs	r2, #0
    7b6e:	4581      	cmp	r9, r0
    7b70:	bf94      	ite	ls
    7b72:	4633      	movls	r3, r6
    7b74:	1c73      	addhi	r3, r6, #1
    7b76:	1814      	adds	r4, r2, r0
    7b78:	f143 0500 	adc.w	r5, r3, #0
    7b7c:	e7e5      	b.n	7b4a <system__bb__time__initialize_timers+0x8e>
    7b7e:	bf00      	nop

00007b80 <system__bb__time__update_alarm>:
    7b80:	e92d 47f0 	stmdb	sp!, {r4, r5, r6, r7, r8, r9, sl, lr}
    7b84:	f240 14d8 	movw	r4, #472	; 0x1d8
    7b88:	4680      	mov	r8, r0
    7b8a:	4689      	mov	r9, r1
    7b8c:	f6c0 0400 	movt	r4, #2048	; 0x800
    7b90:	2500      	movs	r5, #0
    7b92:	6826      	ldr	r6, [r4, #0]
    7b94:	3501      	adds	r5, #1
    7b96:	f8d4 a004 	ldr.w	sl, [r4, #4]
    7b9a:	f7fb f94b 	bl	2e34 <system__bb__board_support__read_clock>
    7b9e:	6822      	ldr	r2, [r4, #0]
    7ba0:	1bf3      	subs	r3, r6, r7
    7ba2:	4296      	cmp	r6, r2
    7ba4:	d034      	beq.n	7c10 <system__bb__time__update_alarm+0x90>
    7ba6:	2d01      	cmp	r5, #1
    7ba8:	d030      	beq.n	7c0c <system__bb__time__update_alarm+0x8c>
    7baa:	2b01      	cmp	r3, #1
    7bac:	bf8c      	ite	hi
    7bae:	2300      	movhi	r3, #0
    7bb0:	2301      	movls	r3, #1
    7bb2:	2d03      	cmp	r5, #3
    7bb4:	bf08      	it	eq
    7bb6:	2300      	moveq	r3, #0
    7bb8:	2b00      	cmp	r3, #0
    7bba:	d1ea      	bne.n	7b92 <system__bb__time__update_alarm+0x12>
    7bbc:	4635      	mov	r5, r6
    7bbe:	461c      	mov	r4, r3
    7bc0:	454d      	cmp	r5, r9
    7bc2:	bf08      	it	eq
    7bc4:	4544      	cmpeq	r4, r8
    7bc6:	bf24      	itt	cs
    7bc8:	2001      	movcs	r0, #1
    7bca:	2100      	movcs	r1, #0
    7bcc:	d203      	bcs.n	7bd6 <system__bb__time__update_alarm+0x56>
    7bce:	ebb8 0004 	subs.w	r0, r8, r4
    7bd2:	eb69 0105 	sbc.w	r1, r9, r5
    7bd6:	f240 15c8 	movw	r5, #456	; 0x1c8
    7bda:	f240 14e0 	movw	r4, #480	; 0x1e0
    7bde:	f6c0 0500 	movt	r5, #2048	; 0x800
    7be2:	f6c0 0400 	movt	r4, #2048	; 0x800
    7be6:	e9d5 2300 	ldrd	r2, r3, [r5]
    7bea:	e9d4 6700 	ldrd	r6, r7, [r4]
    7bee:	4599      	cmp	r9, r3
    7bf0:	bf08      	it	eq
    7bf2:	4590      	cmpeq	r8, r2
    7bf4:	d208      	bcs.n	7c08 <system__bb__time__update_alarm+0x88>
    7bf6:	428f      	cmp	r7, r1
    7bf8:	bf08      	it	eq
    7bfa:	4286      	cmpeq	r6, r0
    7bfc:	bf38      	it	cc
    7bfe:	4630      	movcc	r0, r6
    7c00:	f7fb f8f8 	bl	2df4 <system__bb__board_support__set_alarm>
    7c04:	e9c5 8900 	strd	r8, r9, [r5]
    7c08:	e8bd 87f0 	ldmia.w	sp!, {r4, r5, r6, r7, r8, r9, sl, pc}
    7c0c:	4637      	mov	r7, r6
    7c0e:	e7c0      	b.n	7b92 <system__bb__time__update_alarm+0x12>
    7c10:	2400      	movs	r4, #0
    7c12:	4550      	cmp	r0, sl
    7c14:	bf2c      	ite	cs
    7c16:	4635      	movcs	r5, r6
    7c18:	1c75      	addcc	r5, r6, #1
    7c1a:	1824      	adds	r4, r4, r0
    7c1c:	f145 0500 	adc.w	r5, r5, #0
    7c20:	e7ce      	b.n	7bc0 <system__bb__time__update_alarm+0x40>
    7c22:	bf00      	nop

00007c24 <system__bb__time__delay_until>:
    7c24:	e92d 4ff8 	stmdb	sp!, {r3, r4, r5, r6, r7, r8, r9, sl, fp, lr}
    7c28:	4680      	mov	r8, r0
    7c2a:	4689      	mov	r9, r1
    7c2c:	b672      	cpsid	i
    7c2e:	f240 14d8 	movw	r4, #472	; 0x1d8
    7c32:	2500      	movs	r5, #0
    7c34:	f6c0 0400 	movt	r4, #2048	; 0x800
    7c38:	6826      	ldr	r6, [r4, #0]
    7c3a:	3501      	adds	r5, #1
    7c3c:	f8d4 a004 	ldr.w	sl, [r4, #4]
    7c40:	f7fb f8f8 	bl	2e34 <system__bb__board_support__read_clock>
    7c44:	6822      	ldr	r2, [r4, #0]
    7c46:	1bf3      	subs	r3, r6, r7
    7c48:	4296      	cmp	r6, r2
    7c4a:	d059      	beq.n	7d00 <system__bb__time__delay_until+0xdc>
    7c4c:	2d01      	cmp	r5, #1
    7c4e:	d04c      	beq.n	7cea <system__bb__time__delay_until+0xc6>
    7c50:	2b01      	cmp	r3, #1
    7c52:	bf8c      	ite	hi
    7c54:	2300      	movhi	r3, #0
    7c56:	2301      	movls	r3, #1
    7c58:	2d03      	cmp	r5, #3
    7c5a:	bf08      	it	eq
    7c5c:	2300      	moveq	r3, #0
    7c5e:	2b00      	cmp	r3, #0
    7c60:	d1ea      	bne.n	7c38 <system__bb__time__delay_until+0x14>
    7c62:	46b3      	mov	fp, r6
    7c64:	469a      	mov	sl, r3
    7c66:	f240 0374 	movw	r3, #116	; 0x74
    7c6a:	45cb      	cmp	fp, r9
    7c6c:	f6c0 0300 	movt	r3, #2048	; 0x800
    7c70:	bf08      	it	eq
    7c72:	45c2      	cmpeq	sl, r8
    7c74:	681c      	ldr	r4, [r3, #0]
    7c76:	d23c      	bcs.n	7cf2 <system__bb__time__delay_until+0xce>
    7c78:	2202      	movs	r2, #2
    7c7a:	f894 30a4 	ldrb.w	r3, [r4, #164]	; 0xa4
    7c7e:	f884 20cc 	strb.w	r2, [r4, #204]	; 0xcc
    7c82:	b3a3      	cbz	r3, 7cee <system__bb__time__delay_until+0xca>
    7c84:	b25b      	sxtb	r3, r3
    7c86:	f103 4380 	add.w	r3, r3, #1073741824	; 0x40000000
    7c8a:	f240 0568 	movw	r5, #104	; 0x68
    7c8e:	2700      	movs	r7, #0
    7c90:	3b01      	subs	r3, #1
    7c92:	f6c0 0500 	movt	r5, #2048	; 0x800
    7c96:	4640      	mov	r0, r8
    7c98:	f8d4 60b8 	ldr.w	r6, [r4, #184]	; 0xb8
    7c9c:	4649      	mov	r1, r9
    7c9e:	4622      	mov	r2, r4
    7ca0:	f8c4 70b8 	str.w	r7, [r4, #184]	; 0xb8
    7ca4:	f845 6023 	str.w	r6, [r5, r3, lsl #2]
    7ca8:	f7fa fa1a 	bl	20e0 <system__bb__threads__queues__insert_alarm>
    7cac:	b1c8      	cbz	r0, 7ce2 <system__bb__time__delay_until+0xbe>
    7cae:	f240 0370 	movw	r3, #112	; 0x70
    7cb2:	f6c0 0300 	movt	r3, #2048	; 0x800
    7cb6:	681b      	ldr	r3, [r3, #0]
    7cb8:	b363      	cbz	r3, 7d14 <system__bb__time__delay_until+0xf0>
    7cba:	e9d3 4530 	ldrd	r4, r5, [r3, #192]	; 0xc0
    7cbe:	f240 1340 	movw	r3, #320	; 0x140
    7cc2:	f6c0 0300 	movt	r3, #2048	; 0x800
    7cc6:	681b      	ldr	r3, [r3, #0]
    7cc8:	b34b      	cbz	r3, 7d1e <system__bb__time__delay_until+0xfa>
    7cca:	689a      	ldr	r2, [r3, #8]
    7ccc:	68db      	ldr	r3, [r3, #12]
    7cce:	429d      	cmp	r5, r3
    7cd0:	bf08      	it	eq
    7cd2:	4294      	cmpeq	r4, r2
    7cd4:	4610      	mov	r0, r2
    7cd6:	4619      	mov	r1, r3
    7cd8:	bf3c      	itt	cc
    7cda:	4620      	movcc	r0, r4
    7cdc:	4629      	movcc	r1, r5
    7cde:	f7ff ff4f 	bl	7b80 <system__bb__time__update_alarm>
    7ce2:	e8bd 4ff8 	ldmia.w	sp!, {r3, r4, r5, r6, r7, r8, r9, sl, fp, lr}
    7ce6:	f7fa becd 	b.w	2a84 <system__bb__protection__leave_kernel>
    7cea:	4637      	mov	r7, r6
    7cec:	e7a4      	b.n	7c38 <system__bb__time__delay_until+0x14>
    7cee:	2301      	movs	r3, #1
    7cf0:	e7c9      	b.n	7c86 <system__bb__time__delay_until+0x62>
    7cf2:	4620      	mov	r0, r4
    7cf4:	f7fa fab6 	bl	2264 <system__bb__threads__queues__yield>
    7cf8:	e8bd 4ff8 	ldmia.w	sp!, {r3, r4, r5, r6, r7, r8, r9, sl, fp, lr}
    7cfc:	f7fa bec2 	b.w	2a84 <system__bb__protection__leave_kernel>
    7d00:	2200      	movs	r2, #0
    7d02:	4582      	cmp	sl, r0
    7d04:	bf94      	ite	ls
    7d06:	4633      	movls	r3, r6
    7d08:	1c73      	addhi	r3, r6, #1
    7d0a:	eb12 0a00 	adds.w	sl, r2, r0
    7d0e:	f143 0b00 	adc.w	fp, r3, #0
    7d12:	e7a8      	b.n	7c66 <system__bb__time__delay_until+0x42>
    7d14:	f04f 34ff 	mov.w	r4, #4294967295
    7d18:	f04f 35ff 	mov.w	r5, #4294967295
    7d1c:	e7cf      	b.n	7cbe <system__bb__time__delay_until+0x9a>
    7d1e:	f04f 32ff 	mov.w	r2, #4294967295
    7d22:	4613      	mov	r3, r2
    7d24:	e7d3      	b.n	7cce <system__bb__time__delay_until+0xaa>
    7d26:	bf00      	nop

00007d28 <system__bb__time__update_clock>:
    7d28:	b570      	push	{r4, r5, r6, lr}
    7d2a:	f240 14d8 	movw	r4, #472	; 0x1d8
    7d2e:	f6c0 0400 	movt	r4, #2048	; 0x800
    7d32:	6825      	ldr	r5, [r4, #0]
    7d34:	6866      	ldr	r6, [r4, #4]
    7d36:	f7fb f87d 	bl	2e34 <system__bb__board_support__read_clock>
    7d3a:	2200      	movs	r2, #0
    7d3c:	4286      	cmp	r6, r0
    7d3e:	bf85      	ittet	hi
    7d40:	3501      	addhi	r5, #1
    7d42:	2300      	movhi	r3, #0
    7d44:	6060      	strls	r0, [r4, #4]
    7d46:	6023      	strhi	r3, [r4, #0]
    7d48:	bf84      	itt	hi
    7d4a:	6060      	strhi	r0, [r4, #4]
    7d4c:	6025      	strhi	r5, [r4, #0]
    7d4e:	1812      	adds	r2, r2, r0
    7d50:	f145 0300 	adc.w	r3, r5, #0
    7d54:	4610      	mov	r0, r2
    7d56:	4619      	mov	r1, r3
    7d58:	bd70      	pop	{r4, r5, r6, pc}
    7d5a:	bf00      	nop

00007d5c <system__bb__time__alarm_handler>:
    7d5c:	e92d 43f8 	stmdb	sp!, {r3, r4, r5, r6, r7, r8, r9, lr}
    7d60:	f64f 4388 	movw	r3, #64648	; 0xfc88
    7d64:	2208      	movs	r2, #8
    7d66:	f6cf 73ff 	movt	r3, #65535	; 0xffff
    7d6a:	601a      	str	r2, [r3, #0]
    7d6c:	b672      	cpsid	i
    7d6e:	f240 13c8 	movw	r3, #456	; 0x1c8
    7d72:	f04f 37ff 	mov.w	r7, #4294967295
    7d76:	f6c0 0300 	movt	r3, #2048	; 0x800
    7d7a:	463e      	mov	r6, r7
    7d7c:	601f      	str	r7, [r3, #0]
    7d7e:	605f      	str	r7, [r3, #4]
    7d80:	f7ff ffd2 	bl	7d28 <system__bb__time__update_clock>
    7d84:	f240 13e0 	movw	r3, #480	; 0x1e0
    7d88:	f6c0 0300 	movt	r3, #2048	; 0x800
    7d8c:	e9d3 4500 	ldrd	r4, r5, [r3]
    7d90:	4680      	mov	r8, r0
    7d92:	1824      	adds	r4, r4, r0
    7d94:	4689      	mov	r9, r1
    7d96:	414d      	adcs	r5, r1
    7d98:	f7fb fb8e 	bl	34b8 <system__bb__timing_events__execute_expired_timing_events>
    7d9c:	4640      	mov	r0, r8
    7d9e:	4649      	mov	r1, r9
    7da0:	f7fa f9da 	bl	2158 <system__bb__threads__queues__wakeup_expired_alarms>
    7da4:	f240 0370 	movw	r3, #112	; 0x70
    7da8:	f6c0 0300 	movt	r3, #2048	; 0x800
    7dac:	681b      	ldr	r3, [r3, #0]
    7dae:	b11b      	cbz	r3, 7db8 <system__bb__time__alarm_handler+0x5c>
    7db0:	f8d3 70c0 	ldr.w	r7, [r3, #192]	; 0xc0
    7db4:	f8d3 60c4 	ldr.w	r6, [r3, #196]	; 0xc4
    7db8:	f240 1340 	movw	r3, #320	; 0x140
    7dbc:	f6c0 0300 	movt	r3, #2048	; 0x800
    7dc0:	681b      	ldr	r3, [r3, #0]
    7dc2:	b1b3      	cbz	r3, 7df2 <system__bb__time__alarm_handler+0x96>
    7dc4:	e9d3 2302 	ldrd	r2, r3, [r3, #8]
    7dc8:	42b5      	cmp	r5, r6
    7dca:	bf08      	it	eq
    7dcc:	42bc      	cmpeq	r4, r7
    7dce:	4631      	mov	r1, r6
    7dd0:	bf38      	it	cc
    7dd2:	4629      	movcc	r1, r5
    7dd4:	4638      	mov	r0, r7
    7dd6:	bf38      	it	cc
    7dd8:	4620      	movcc	r0, r4
    7dda:	428b      	cmp	r3, r1
    7ddc:	bf08      	it	eq
    7dde:	4282      	cmpeq	r2, r0
    7de0:	bf3c      	itt	cc
    7de2:	4619      	movcc	r1, r3
    7de4:	4610      	movcc	r0, r2
    7de6:	f7ff fecb 	bl	7b80 <system__bb__time__update_alarm>
    7dea:	e8bd 43f8 	ldmia.w	sp!, {r3, r4, r5, r6, r7, r8, r9, lr}
    7dee:	f7fa be49 	b.w	2a84 <system__bb__protection__leave_kernel>
    7df2:	f04f 32ff 	mov.w	r2, #4294967295
    7df6:	f04f 33ff 	mov.w	r3, #4294967295
    7dfa:	e7e5      	b.n	7dc8 <system__bb__time__alarm_handler+0x6c>

00007dfc <system__bb__time__Oconcat>:
    7dfc:	b430      	push	{r4, r5}
    7dfe:	2200      	movs	r2, #0
    7e00:	1854      	adds	r4, r2, r1
    7e02:	f140 0500 	adc.w	r5, r0, #0
    7e06:	4629      	mov	r1, r5
    7e08:	4620      	mov	r0, r4
    7e0a:	bc30      	pop	{r4, r5}
    7e0c:	4770      	bx	lr
    7e0e:	bf00      	nop

00007e10 <abort>:
    7e10:	f64e 530c 	movw	r3, #60684	; 0xed0c
    7e14:	2204      	movs	r2, #4
    7e16:	f2ce 0300 	movt	r3, #57344	; 0xe000
    7e1a:	f2c0 52fa 	movt	r2, #1530	; 0x5fa
    7e1e:	601a      	str	r2, [r3, #0]
    7e20:	e7fe      	b.n	7e20 <abort+0x10>
    7e22:	bf00      	nop

00007e24 <exit>:
    7e24:	f64e 530c 	movw	r3, #60684	; 0xed0c
    7e28:	2204      	movs	r2, #4
    7e2a:	f2ce 0300 	movt	r3, #57344	; 0xe000
    7e2e:	f2c0 52fa 	movt	r2, #1530	; 0x5fa
    7e32:	601a      	str	r2, [r3, #0]
    7e34:	e7fe      	b.n	7e34 <exit+0x10>
    7e36:	bf00      	nop

00007e38 <system__machine_reset__stop>:
    7e38:	f64e 530c 	movw	r3, #60684	; 0xed0c
    7e3c:	2204      	movs	r2, #4
    7e3e:	f2ce 0300 	movt	r3, #57344	; 0xe000
    7e42:	f2c0 52fa 	movt	r2, #1530	; 0x5fa
    7e46:	601a      	str	r2, [r3, #0]
    7e48:	e7fe      	b.n	7e48 <system__machine_reset__stop+0x10>
    7e4a:	bf00      	nop

00007e4c <accessor__hiloIP>:
    7e4c:	4770      	bx	lr
    7e4e:	bf00      	nop

00007e50 <accessor__rmw>:
    7e50:	b410      	push	{r4}
    7e52:	1a89      	subs	r1, r1, r2
    7e54:	1c4c      	adds	r4, r1, #1
    7e56:	2c1f      	cmp	r4, #31
    7e58:	bfd7      	itett	le
    7e5a:	2101      	movle	r1, #1
    7e5c:	f04f 31ff 	movgt.w	r1, #4294967295
    7e60:	40a1      	lslle	r1, r4
    7e62:	f101 31ff 	addle.w	r1, r1, #4294967295
    7e66:	400b      	ands	r3, r1
    7e68:	4091      	lsls	r1, r2
    7e6a:	4093      	lsls	r3, r2
    7e6c:	ea20 0001 	bic.w	r0, r0, r1
    7e70:	4318      	orrs	r0, r3
    7e72:	f85d 4b04 	ldr.w	r4, [sp], #4
    7e76:	4770      	bx	lr

00007e78 <accessor__rmw__2>:
    7e78:	b410      	push	{r4}
    7e7a:	c912      	ldmia	r1, {r1, r4}
    7e7c:	1b09      	subs	r1, r1, r4
    7e7e:	3101      	adds	r1, #1
    7e80:	291f      	cmp	r1, #31
    7e82:	bfd7      	itett	le
    7e84:	2301      	movle	r3, #1
    7e86:	f04f 33ff 	movgt.w	r3, #4294967295
    7e8a:	408b      	lslle	r3, r1
    7e8c:	f103 33ff 	addle.w	r3, r3, #4294967295
    7e90:	401a      	ands	r2, r3
    7e92:	40a3      	lsls	r3, r4
    7e94:	40a2      	lsls	r2, r4
    7e96:	ea20 0003 	bic.w	r0, r0, r3
    7e9a:	4310      	orrs	r0, r2
    7e9c:	f85d 4b04 	ldr.w	r4, [sp], #4
    7ea0:	4770      	bx	lr
    7ea2:	bf00      	nop

00007ea4 <system__text_io__get>:
    7ea4:	f24e 4334 	movw	r3, #58420	; 0xe434
    7ea8:	f6cf 73f7 	movt	r3, #65527	; 0xfff7
    7eac:	6818      	ldr	r0, [r3, #0]
    7eae:	b2c0      	uxtb	r0, r0
    7eb0:	4770      	bx	lr
    7eb2:	bf00      	nop

00007eb4 <system__text_io__initialize>:
    7eb4:	e92d 43f0 	stmdb	sp!, {r4, r5, r6, r7, r8, r9, lr}
    7eb8:	f24e 4304 	movw	r3, #58372	; 0xe404
    7ebc:	f44f 4864 	mov.w	r8, #58368	; 0xe400
    7ec0:	f6cf 73f7 	movt	r3, #65527	; 0xfff7
    7ec4:	f04f 0c22 	mov.w	ip, #34	; 0x22
    7ec8:	f24e 472c 	movw	r7, #58412	; 0xe42c
    7ecc:	f04f 0e1c 	mov.w	lr, #28
    7ed0:	f24e 4628 	movw	r6, #58408	; 0xe428
    7ed4:	f24e 453c 	movw	r5, #58428	; 0xe43c
    7ed8:	f24e 415c 	movw	r1, #58460	; 0xe45c
    7edc:	2001      	movs	r0, #1
    7ede:	2406      	movs	r4, #6
    7ee0:	f6cf 78f7 	movt	r8, #65527	; 0xfff7
    7ee4:	f2c0 3c00 	movt	ip, #768	; 0x300
    7ee8:	f6cf 77f7 	movt	r7, #65527	; 0xfff7
    7eec:	f6c0 5e00 	movt	lr, #3328	; 0xd00
    7ef0:	f6cf 76f7 	movt	r6, #65527	; 0xfff7
    7ef4:	f04f 0907 	mov.w	r9, #7
    7ef8:	f6cf 75f7 	movt	r5, #65527	; 0xfff7
    7efc:	f6cf 71f7 	movt	r1, #65527	; 0xfff7
    7f00:	f240 12ee 	movw	r2, #494	; 0x1ee
    7f04:	f8c8 0000 	str.w	r0, [r8]
    7f08:	f6c0 0200 	movt	r2, #2048	; 0x800
    7f0c:	f8c3 c000 	str.w	ip, [r3]
    7f10:	f8c7 e000 	str.w	lr, [r7]
    7f14:	f8c6 9000 	str.w	r9, [r6]
    7f18:	602c      	str	r4, [r5, #0]
    7f1a:	600c      	str	r4, [r1, #0]
    7f1c:	6819      	ldr	r1, [r3, #0]
    7f1e:	f041 0180 	orr.w	r1, r1, #128	; 0x80
    7f22:	6019      	str	r1, [r3, #0]
    7f24:	7010      	strb	r0, [r2, #0]
    7f26:	e8bd 83f0 	ldmia.w	sp!, {r4, r5, r6, r7, r8, r9, pc}
    7f2a:	bf00      	nop

00007f2c <system__text_io__is_tx_ready>:
    7f2c:	f24e 431c 	movw	r3, #58396	; 0xe41c
    7f30:	f6cf 73f7 	movt	r3, #65527	; 0xfff7
    7f34:	6818      	ldr	r0, [r3, #0]
    7f36:	f3c0 2000 	ubfx	r0, r0, #8, #1
    7f3a:	4770      	bx	lr

00007f3c <system__text_io__is_rx_ready>:
    7f3c:	f24e 431c 	movw	r3, #58396	; 0xe41c
    7f40:	f6cf 73f7 	movt	r3, #65527	; 0xfff7
    7f44:	6818      	ldr	r0, [r3, #0]
    7f46:	f3c0 2040 	ubfx	r0, r0, #9, #1
    7f4a:	4770      	bx	lr

00007f4c <system__text_io__put>:
    7f4c:	f24e 4338 	movw	r3, #58424	; 0xe438
    7f50:	f6cf 73f7 	movt	r3, #65527	; 0xfff7
    7f54:	6018      	str	r0, [r3, #0]
    7f56:	4770      	bx	lr

00007f58 <system__text_io__use_cr_lf_for_new_line>:
    7f58:	2001      	movs	r0, #1
    7f5a:	4770      	bx	lr

00007f5c <__gnat_get_executable_load_address>:
    7f5c:	2000      	movs	r0, #0
    7f5e:	4770      	bx	lr

00007f60 <system__traceback_entries__tracebacks_arrayIP>:
    7f60:	4770      	bx	lr
    7f62:	bf00      	nop

00007f64 <system__traceback_entries__pc_for>:
    7f64:	4770      	bx	lr
    7f66:	bf00      	nop

00007f68 <system__traceback_entries__tb_entry_for>:
    7f68:	4770      	bx	lr
    7f6a:	bf00      	nop

00007f6c <memmove>:
    7f6c:	b37a      	cbz	r2, 7fce <memmove+0x62>
    7f6e:	b470      	push	{r4, r5, r6}
    7f70:	4288      	cmp	r0, r1
    7f72:	d820      	bhi.n	7fb6 <memmove+0x4a>
    7f74:	ea40 0301 	orr.w	r3, r0, r1
    7f78:	079b      	lsls	r3, r3, #30
    7f7a:	d129      	bne.n	7fd0 <memmove+0x64>
    7f7c:	2a03      	cmp	r2, #3
    7f7e:	d927      	bls.n	7fd0 <memmove+0x64>
    7f80:	1f14      	subs	r4, r2, #4
    7f82:	f024 0403 	bic.w	r4, r4, #3
    7f86:	1d0b      	adds	r3, r1, #4
    7f88:	4423      	add	r3, r4
    7f8a:	4605      	mov	r5, r0
    7f8c:	f851 6b04 	ldr.w	r6, [r1], #4
    7f90:	f845 6b04 	str.w	r6, [r5], #4
    7f94:	4299      	cmp	r1, r3
    7f96:	d1f9      	bne.n	7f8c <memmove+0x20>
    7f98:	f012 0203 	ands.w	r2, r2, #3
    7f9c:	f100 0104 	add.w	r1, r0, #4
    7fa0:	4421      	add	r1, r4
    7fa2:	d006      	beq.n	7fb2 <memmove+0x46>
    7fa4:	441a      	add	r2, r3
    7fa6:	f813 4b01 	ldrb.w	r4, [r3], #1
    7faa:	4293      	cmp	r3, r2
    7fac:	f801 4b01 	strb.w	r4, [r1], #1
    7fb0:	d1f9      	bne.n	7fa6 <memmove+0x3a>
    7fb2:	bc70      	pop	{r4, r5, r6}
    7fb4:	4770      	bx	lr
    7fb6:	188b      	adds	r3, r1, r2
    7fb8:	4298      	cmp	r0, r3
    7fba:	d2db      	bcs.n	7f74 <memmove+0x8>
    7fbc:	4402      	add	r2, r0
    7fbe:	f813 4d01 	ldrb.w	r4, [r3, #-1]!
    7fc2:	428b      	cmp	r3, r1
    7fc4:	f802 4d01 	strb.w	r4, [r2, #-1]!
    7fc8:	d1f9      	bne.n	7fbe <memmove+0x52>
    7fca:	bc70      	pop	{r4, r5, r6}
    7fcc:	4770      	bx	lr
    7fce:	4770      	bx	lr
    7fd0:	460b      	mov	r3, r1
    7fd2:	4601      	mov	r1, r0
    7fd4:	e7e6      	b.n	7fa4 <memmove+0x38>
    7fd6:	bf00      	nop

00007fd8 <memset>:
    7fd8:	b132      	cbz	r2, 7fe8 <memset+0x10>
    7fda:	b2c9      	uxtb	r1, r1
    7fdc:	4402      	add	r2, r0
    7fde:	4603      	mov	r3, r0
    7fe0:	f803 1b01 	strb.w	r1, [r3], #1
    7fe4:	4293      	cmp	r3, r2
    7fe6:	d1fb      	bne.n	7fe0 <memset+0x8>
    7fe8:	4770      	bx	lr
    7fea:	bf00      	nop

00007fec <system__task_primitives__operations__self>:
    7fec:	f240 0374 	movw	r3, #116	; 0x74
    7ff0:	f6c0 0300 	movt	r3, #2048	; 0x800
    7ff4:	681b      	ldr	r3, [r3, #0]
    7ff6:	f8d3 00a0 	ldr.w	r0, [r3, #160]	; 0xa0
    7ffa:	4770      	bx	lr

00007ffc <system__task_primitives__operations__sleep>:
    7ffc:	f7fb b8ba 	b.w	3174 <system__bb__threads__sleep>

00008000 <system__task_primitives__operations__delay_until>:
    8000:	b510      	push	{r4, lr}
    8002:	f240 0374 	movw	r3, #116	; 0x74
    8006:	2207      	movs	r2, #7
    8008:	f6c0 0300 	movt	r3, #2048	; 0x800
    800c:	681b      	ldr	r3, [r3, #0]
    800e:	f8d3 40a0 	ldr.w	r4, [r3, #160]	; 0xa0
    8012:	7222      	strb	r2, [r4, #8]
    8014:	f7ff fe06 	bl	7c24 <system__bb__time__delay_until>
    8018:	2301      	movs	r3, #1
    801a:	7223      	strb	r3, [r4, #8]
    801c:	bd10      	pop	{r4, pc}
    801e:	bf00      	nop

00008020 <system__task_primitives__operations__monotonic_clock>:
    8020:	e92d 43f8 	stmdb	sp!, {r3, r4, r5, r6, r7, r8, r9, lr}
    8024:	f240 16d8 	movw	r6, #472	; 0x1d8
    8028:	2400      	movs	r4, #0
    802a:	f6c0 0600 	movt	r6, #2048	; 0x800
    802e:	1d37      	adds	r7, r6, #4
    8030:	6835      	ldr	r5, [r6, #0]
    8032:	3401      	adds	r4, #1
    8034:	f8d7 9000 	ldr.w	r9, [r7]
    8038:	f7fa fefc 	bl	2e34 <system__bb__board_support__read_clock>
    803c:	6832      	ldr	r2, [r6, #0]
    803e:	ebc8 0305 	rsb	r3, r8, r5
    8042:	4295      	cmp	r5, r2
    8044:	d012      	beq.n	806c <system__task_primitives__operations__monotonic_clock+0x4c>
    8046:	2c01      	cmp	r4, #1
    8048:	d00e      	beq.n	8068 <system__task_primitives__operations__monotonic_clock+0x48>
    804a:	2b01      	cmp	r3, #1
    804c:	bf8c      	ite	hi
    804e:	2300      	movhi	r3, #0
    8050:	2301      	movls	r3, #1
    8052:	2c03      	cmp	r4, #3
    8054:	bf08      	it	eq
    8056:	2300      	moveq	r3, #0
    8058:	2b00      	cmp	r3, #0
    805a:	d1e9      	bne.n	8030 <system__task_primitives__operations__monotonic_clock+0x10>
    805c:	462f      	mov	r7, r5
    805e:	461e      	mov	r6, r3
    8060:	4630      	mov	r0, r6
    8062:	4639      	mov	r1, r7
    8064:	e8bd 83f8 	ldmia.w	sp!, {r3, r4, r5, r6, r7, r8, r9, pc}
    8068:	46a8      	mov	r8, r5
    806a:	e7e1      	b.n	8030 <system__task_primitives__operations__monotonic_clock+0x10>
    806c:	2600      	movs	r6, #0
    806e:	4581      	cmp	r9, r0
    8070:	bf94      	ite	ls
    8072:	462f      	movls	r7, r5
    8074:	1c6f      	addhi	r7, r5, #1
    8076:	1836      	adds	r6, r6, r0
    8078:	f147 0700 	adc.w	r7, r7, #0
    807c:	e7f0      	b.n	8060 <system__task_primitives__operations__monotonic_clock+0x40>
    807e:	bf00      	nop

00008080 <system__task_primitives__operations__wakeup>:
    8080:	f8d0 00f8 	ldr.w	r0, [r0, #248]	; 0xf8
    8084:	f7fb b93c 	b.w	3300 <system__bb__threads__wakeup>

00008088 <system__task_primitives__operations__set_priority>:
    8088:	b410      	push	{r4}
    808a:	b672      	cpsid	i
    808c:	f240 0374 	movw	r3, #116	; 0x74
    8090:	f6c0 0300 	movt	r3, #2048	; 0x800
    8094:	681c      	ldr	r4, [r3, #0]
    8096:	f894 30a4 	ldrb.w	r3, [r4, #164]	; 0xa4
    809a:	2b00      	cmp	r3, #0
    809c:	f8c4 10ac 	str.w	r1, [r4, #172]	; 0xac
    80a0:	bf08      	it	eq
    80a2:	2301      	moveq	r3, #1
    80a4:	f8d4 20b8 	ldr.w	r2, [r4, #184]	; 0xb8
    80a8:	b1ea      	cbz	r2, 80e6 <system__task_primitives__operations__set_priority+0x5e>
    80aa:	f8d2 00ac 	ldr.w	r0, [r2, #172]	; 0xac
    80ae:	4281      	cmp	r1, r0
    80b0:	da19      	bge.n	80e6 <system__task_primitives__operations__set_priority+0x5e>
    80b2:	b25b      	sxtb	r3, r3
    80b4:	f103 4380 	add.w	r3, r3, #1073741824	; 0x40000000
    80b8:	f240 0068 	movw	r0, #104	; 0x68
    80bc:	3b01      	subs	r3, #1
    80be:	f6c0 0000 	movt	r0, #2048	; 0x800
    80c2:	f840 2023 	str.w	r2, [r0, r3, lsl #2]
    80c6:	f850 2023 	ldr.w	r2, [r0, r3, lsl #2]
    80ca:	e004      	b.n	80d6 <system__task_primitives__operations__set_priority+0x4e>
    80cc:	f8d3 00ac 	ldr.w	r0, [r3, #172]	; 0xac
    80d0:	4281      	cmp	r1, r0
    80d2:	da04      	bge.n	80de <system__task_primitives__operations__set_priority+0x56>
    80d4:	461a      	mov	r2, r3
    80d6:	f8d2 30b8 	ldr.w	r3, [r2, #184]	; 0xb8
    80da:	2b00      	cmp	r3, #0
    80dc:	d1f6      	bne.n	80cc <system__task_primitives__operations__set_priority+0x44>
    80de:	f8c4 30b8 	str.w	r3, [r4, #184]	; 0xb8
    80e2:	f8c2 40b8 	str.w	r4, [r2, #184]	; 0xb8
    80e6:	f85d 4b04 	ldr.w	r4, [sp], #4
    80ea:	f7fa bccb 	b.w	2a84 <system__bb__protection__leave_kernel>
    80ee:	bf00      	nop

000080f0 <system__task_primitives__operations__get_priority>:
    80f0:	f8d0 30f8 	ldr.w	r3, [r0, #248]	; 0xf8
    80f4:	f8d3 00ac 	ldr.w	r0, [r3, #172]	; 0xac
    80f8:	4770      	bx	lr
    80fa:	bf00      	nop

000080fc <system__task_primitives__operations__get_affinity>:
    80fc:	f8d0 30f8 	ldr.w	r3, [r0, #248]	; 0xf8
    8100:	f893 00a4 	ldrb.w	r0, [r3, #164]	; 0xa4
    8104:	4770      	bx	lr
    8106:	bf00      	nop

00008108 <system__task_primitives__operations__get_cpu>:
    8108:	f8d0 30f8 	ldr.w	r3, [r0, #248]	; 0xf8
    810c:	f893 00a4 	ldrb.w	r0, [r3, #164]	; 0xa4
    8110:	2800      	cmp	r0, #0
    8112:	bf08      	it	eq
    8114:	2001      	moveq	r0, #1
    8116:	4770      	bx	lr

00008118 <system__task_primitives__operations__get_thread_id>:
    8118:	f8d0 00f8 	ldr.w	r0, [r0, #248]	; 0xf8
    811c:	4770      	bx	lr
    811e:	bf00      	nop

00008120 <system__task_primitives__operations__enter_task>:
    8120:	b430      	push	{r4, r5}
    8122:	f240 1250 	movw	r2, #336	; 0x150
    8126:	f240 0374 	movw	r3, #116	; 0x74
    812a:	f6c0 0200 	movt	r2, #2048	; 0x800
    812e:	f6c0 0300 	movt	r3, #2048	; 0x800
    8132:	2400      	movs	r4, #0
    8134:	6811      	ldr	r1, [r2, #0]
    8136:	681d      	ldr	r5, [r3, #0]
    8138:	f8c5 00a0 	str.w	r0, [r5, #160]	; 0xa0
    813c:	f8c0 40fc 	str.w	r4, [r0, #252]	; 0xfc
    8140:	b381      	cbz	r1, 81a4 <system__task_primitives__operations__enter_task+0x84>
    8142:	f8c1 02c0 	str.w	r0, [r1, #704]	; 0x2c0
    8146:	6010      	str	r0, [r2, #0]
    8148:	68c0      	ldr	r0, [r0, #12]
    814a:	b672      	cpsid	i
    814c:	681c      	ldr	r4, [r3, #0]
    814e:	f894 30a4 	ldrb.w	r3, [r4, #164]	; 0xa4
    8152:	2b00      	cmp	r3, #0
    8154:	f8c4 00ac 	str.w	r0, [r4, #172]	; 0xac
    8158:	bf08      	it	eq
    815a:	2301      	moveq	r3, #1
    815c:	f8d4 20b8 	ldr.w	r2, [r4, #184]	; 0xb8
    8160:	b1ea      	cbz	r2, 819e <system__task_primitives__operations__enter_task+0x7e>
    8162:	f8d2 10ac 	ldr.w	r1, [r2, #172]	; 0xac
    8166:	4288      	cmp	r0, r1
    8168:	da19      	bge.n	819e <system__task_primitives__operations__enter_task+0x7e>
    816a:	b25b      	sxtb	r3, r3
    816c:	f103 4380 	add.w	r3, r3, #1073741824	; 0x40000000
    8170:	f240 0168 	movw	r1, #104	; 0x68
    8174:	3b01      	subs	r3, #1
    8176:	f6c0 0100 	movt	r1, #2048	; 0x800
    817a:	f841 2023 	str.w	r2, [r1, r3, lsl #2]
    817e:	f851 2023 	ldr.w	r2, [r1, r3, lsl #2]
    8182:	e004      	b.n	818e <system__task_primitives__operations__enter_task+0x6e>
    8184:	f8d3 10ac 	ldr.w	r1, [r3, #172]	; 0xac
    8188:	4288      	cmp	r0, r1
    818a:	da04      	bge.n	8196 <system__task_primitives__operations__enter_task+0x76>
    818c:	461a      	mov	r2, r3
    818e:	f8d2 30b8 	ldr.w	r3, [r2, #184]	; 0xb8
    8192:	2b00      	cmp	r3, #0
    8194:	d1f6      	bne.n	8184 <system__task_primitives__operations__enter_task+0x64>
    8196:	f8c4 30b8 	str.w	r3, [r4, #184]	; 0xb8
    819a:	f8c2 40b8 	str.w	r4, [r2, #184]	; 0xb8
    819e:	bc30      	pop	{r4, r5}
    81a0:	f7fa bc70 	b.w	2a84 <system__bb__protection__leave_kernel>
    81a4:	f240 114c 	movw	r1, #332	; 0x14c
    81a8:	f6c0 0100 	movt	r1, #2048	; 0x800
    81ac:	6008      	str	r0, [r1, #0]
    81ae:	e7ca      	b.n	8146 <system__task_primitives__operations__enter_task+0x26>

000081b0 <system__task_primitives__operations__initialize_tcb>:
    81b0:	2001      	movs	r0, #1
    81b2:	4770      	bx	lr

000081b4 <system__task_primitives__operations__create_task>:
    81b4:	b570      	push	{r4, r5, r6, lr}
    81b6:	b084      	sub	sp, #16
    81b8:	4604      	mov	r4, r0
    81ba:	3018      	adds	r0, #24
    81bc:	f89d 6020 	ldrb.w	r6, [sp, #32]
    81c0:	4622      	mov	r2, r4
    81c2:	f8c4 00f8 	str.w	r0, [r4, #248]	; 0xf8
    81c6:	f8d4 00f8 	ldr.w	r0, [r4, #248]	; 0xf8
    81ca:	f8d4 5108 	ldr.w	r5, [r4, #264]	; 0x108
    81ce:	f8d4 410c 	ldr.w	r4, [r4, #268]	; 0x10c
    81d2:	9402      	str	r4, [sp, #8]
    81d4:	9600      	str	r6, [sp, #0]
    81d6:	9501      	str	r5, [sp, #4]
    81d8:	f7fa fff6 	bl	31c8 <system__bb__threads__thread_create>
    81dc:	2001      	movs	r0, #1
    81de:	b004      	add	sp, #16
    81e0:	bd70      	pop	{r4, r5, r6, pc}
    81e2:	bf00      	nop

000081e4 <system__task_primitives__operations__initialize>:
    81e4:	b538      	push	{r3, r4, r5, lr}
    81e6:	4604      	mov	r4, r0
    81e8:	f100 0318 	add.w	r3, r0, #24
    81ec:	2500      	movs	r5, #0
    81ee:	f8c0 30f8 	str.w	r3, [r0, #248]	; 0xf8
    81f2:	f8c0 52c0 	str.w	r5, [r0, #704]	; 0x2c0
    81f6:	f8d0 00f8 	ldr.w	r0, [r0, #248]	; 0xf8
    81fa:	68e1      	ldr	r1, [r4, #12]
    81fc:	f7fa ff12 	bl	3024 <system__bb__threads__initialize>
    8200:	f240 1250 	movw	r2, #336	; 0x150
    8204:	f6c0 0200 	movt	r2, #2048	; 0x800
    8208:	f240 0374 	movw	r3, #116	; 0x74
    820c:	f6c0 0300 	movt	r3, #2048	; 0x800
    8210:	6811      	ldr	r1, [r2, #0]
    8212:	6818      	ldr	r0, [r3, #0]
    8214:	f8c0 40a0 	str.w	r4, [r0, #160]	; 0xa0
    8218:	f8c4 50fc 	str.w	r5, [r4, #252]	; 0xfc
    821c:	b3a9      	cbz	r1, 828a <system__task_primitives__operations__initialize+0xa6>
    821e:	f8c1 42c0 	str.w	r4, [r1, #704]	; 0x2c0
    8222:	6014      	str	r4, [r2, #0]
    8224:	68e0      	ldr	r0, [r4, #12]
    8226:	b672      	cpsid	i
    8228:	681d      	ldr	r5, [r3, #0]
    822a:	f895 30a4 	ldrb.w	r3, [r5, #164]	; 0xa4
    822e:	2b00      	cmp	r3, #0
    8230:	f8c5 00ac 	str.w	r0, [r5, #172]	; 0xac
    8234:	bf08      	it	eq
    8236:	2301      	moveq	r3, #1
    8238:	f8d5 20b8 	ldr.w	r2, [r5, #184]	; 0xb8
    823c:	b1ea      	cbz	r2, 827a <system__task_primitives__operations__initialize+0x96>
    823e:	f8d2 10ac 	ldr.w	r1, [r2, #172]	; 0xac
    8242:	4288      	cmp	r0, r1
    8244:	da19      	bge.n	827a <system__task_primitives__operations__initialize+0x96>
    8246:	b25b      	sxtb	r3, r3
    8248:	f103 4380 	add.w	r3, r3, #1073741824	; 0x40000000
    824c:	f240 0168 	movw	r1, #104	; 0x68
    8250:	3b01      	subs	r3, #1
    8252:	f6c0 0100 	movt	r1, #2048	; 0x800
    8256:	f841 2023 	str.w	r2, [r1, r3, lsl #2]
    825a:	f851 2023 	ldr.w	r2, [r1, r3, lsl #2]
    825e:	e004      	b.n	826a <system__task_primitives__operations__initialize+0x86>
    8260:	f8d3 10ac 	ldr.w	r1, [r3, #172]	; 0xac
    8264:	4288      	cmp	r0, r1
    8266:	da04      	bge.n	8272 <system__task_primitives__operations__initialize+0x8e>
    8268:	461a      	mov	r2, r3
    826a:	f8d2 30b8 	ldr.w	r3, [r2, #184]	; 0xb8
    826e:	2b00      	cmp	r3, #0
    8270:	d1f6      	bne.n	8260 <system__task_primitives__operations__initialize+0x7c>
    8272:	f8c5 30b8 	str.w	r3, [r5, #184]	; 0xb8
    8276:	f8c2 50b8 	str.w	r5, [r2, #184]	; 0xb8
    827a:	f7fa fc03 	bl	2a84 <system__bb__protection__leave_kernel>
    827e:	f240 13f4 	movw	r3, #500	; 0x1f4
    8282:	f6c0 0300 	movt	r3, #2048	; 0x800
    8286:	601c      	str	r4, [r3, #0]
    8288:	bd38      	pop	{r3, r4, r5, pc}
    828a:	f240 114c 	movw	r1, #332	; 0x14c
    828e:	f6c0 0100 	movt	r1, #2048	; 0x800
    8292:	600c      	str	r4, [r1, #0]
    8294:	e7c5      	b.n	8222 <system__task_primitives__operations__initialize+0x3e>
    8296:	bf00      	nop

00008298 <system__task_primitives__operations__initialize_slave>:
    8298:	b538      	push	{r3, r4, r5, lr}
    829a:	2500      	movs	r5, #0
    829c:	f100 0318 	add.w	r3, r0, #24
    82a0:	4604      	mov	r4, r0
    82a2:	f8c0 30f8 	str.w	r3, [r0, #248]	; 0xf8
    82a6:	f8c0 52c0 	str.w	r5, [r0, #704]	; 0x2c0
    82aa:	f8d0 00f8 	ldr.w	r0, [r0, #248]	; 0xf8
    82ae:	f7fa ff1b 	bl	30e8 <system__bb__threads__initialize_slave_environment>
    82b2:	f240 1250 	movw	r2, #336	; 0x150
    82b6:	f6c0 0200 	movt	r2, #2048	; 0x800
    82ba:	f240 0374 	movw	r3, #116	; 0x74
    82be:	f6c0 0300 	movt	r3, #2048	; 0x800
    82c2:	6811      	ldr	r1, [r2, #0]
    82c4:	6818      	ldr	r0, [r3, #0]
    82c6:	f8c0 40a0 	str.w	r4, [r0, #160]	; 0xa0
    82ca:	f8c4 50fc 	str.w	r5, [r4, #252]	; 0xfc
    82ce:	b389      	cbz	r1, 8334 <system__task_primitives__operations__initialize_slave+0x9c>
    82d0:	f8c1 42c0 	str.w	r4, [r1, #704]	; 0x2c0
    82d4:	6014      	str	r4, [r2, #0]
    82d6:	68e0      	ldr	r0, [r4, #12]
    82d8:	b672      	cpsid	i
    82da:	681c      	ldr	r4, [r3, #0]
    82dc:	f894 30a4 	ldrb.w	r3, [r4, #164]	; 0xa4
    82e0:	2b00      	cmp	r3, #0
    82e2:	f8c4 00ac 	str.w	r0, [r4, #172]	; 0xac
    82e6:	bf08      	it	eq
    82e8:	2301      	moveq	r3, #1
    82ea:	f8d4 20b8 	ldr.w	r2, [r4, #184]	; 0xb8
    82ee:	b1ea      	cbz	r2, 832c <system__task_primitives__operations__initialize_slave+0x94>
    82f0:	f8d2 10ac 	ldr.w	r1, [r2, #172]	; 0xac
    82f4:	4288      	cmp	r0, r1
    82f6:	da19      	bge.n	832c <system__task_primitives__operations__initialize_slave+0x94>
    82f8:	b25b      	sxtb	r3, r3
    82fa:	f103 4380 	add.w	r3, r3, #1073741824	; 0x40000000
    82fe:	f240 0168 	movw	r1, #104	; 0x68
    8302:	3b01      	subs	r3, #1
    8304:	f6c0 0100 	movt	r1, #2048	; 0x800
    8308:	f841 2023 	str.w	r2, [r1, r3, lsl #2]
    830c:	f851 2023 	ldr.w	r2, [r1, r3, lsl #2]
    8310:	e004      	b.n	831c <system__task_primitives__operations__initialize_slave+0x84>
    8312:	f8d3 10ac 	ldr.w	r1, [r3, #172]	; 0xac
    8316:	4288      	cmp	r0, r1
    8318:	da04      	bge.n	8324 <system__task_primitives__operations__initialize_slave+0x8c>
    831a:	461a      	mov	r2, r3
    831c:	f8d2 30b8 	ldr.w	r3, [r2, #184]	; 0xb8
    8320:	2b00      	cmp	r3, #0
    8322:	d1f6      	bne.n	8312 <system__task_primitives__operations__initialize_slave+0x7a>
    8324:	f8c4 30b8 	str.w	r3, [r4, #184]	; 0xb8
    8328:	f8c2 40b8 	str.w	r4, [r2, #184]	; 0xb8
    832c:	e8bd 4038 	ldmia.w	sp!, {r3, r4, r5, lr}
    8330:	f7fa bba8 	b.w	2a84 <system__bb__protection__leave_kernel>
    8334:	f240 114c 	movw	r1, #332	; 0x14c
    8338:	f6c0 0100 	movt	r1, #2048	; 0x800
    833c:	600c      	str	r4, [r1, #0]
    833e:	e7c9      	b.n	82d4 <system__task_primitives__operations__initialize_slave+0x3c>

00008340 <system__task_primitives__operations__is_task_context>:
    8340:	b508      	push	{r3, lr}
    8342:	f7fb fe71 	bl	4028 <system__bb__interrupts__current_interrupt>
    8346:	fab0 f080 	clz	r0, r0
    834a:	0940      	lsrs	r0, r0, #5
    834c:	bd08      	pop	{r3, pc}
    834e:	bf00      	nop

00008350 <__gnat_malloc>:
    8350:	b510      	push	{r4, lr}
    8352:	1c43      	adds	r3, r0, #1
    8354:	d016      	beq.n	8384 <__gnat_malloc+0x34>
    8356:	f240 037c 	movw	r3, #124	; 0x7c
    835a:	2800      	cmp	r0, #0
    835c:	f6c0 0300 	movt	r3, #2048	; 0x800
    8360:	bf14      	ite	ne
    8362:	4604      	movne	r4, r0
    8364:	2401      	moveq	r4, #1
    8366:	681b      	ldr	r3, [r3, #0]
    8368:	4798      	blx	r3
    836a:	4620      	mov	r0, r4
    836c:	f000 fe06 	bl	8f7c <malloc>
    8370:	f240 0380 	movw	r3, #128	; 0x80
    8374:	f6c0 0300 	movt	r3, #2048	; 0x800
    8378:	681b      	ldr	r3, [r3, #0]
    837a:	4604      	mov	r4, r0
    837c:	4798      	blx	r3
    837e:	b16c      	cbz	r4, 839c <__gnat_malloc+0x4c>
    8380:	4620      	mov	r0, r4
    8382:	bd10      	pop	{r4, pc}
    8384:	f24d 3260 	movw	r2, #54112	; 0xd360
    8388:	f240 00b0 	movw	r0, #176	; 0xb0
    838c:	f2c0 0200 	movt	r2, #0
    8390:	f6c0 0000 	movt	r0, #2048	; 0x800
    8394:	f102 0310 	add.w	r3, r2, #16
    8398:	f7fc feea 	bl	5170 <__gnat_raise_exception>
    839c:	4a04      	ldr	r2, [pc, #16]	; (83b0 <__gnat_malloc+0x60>)
    839e:	f240 00b0 	movw	r0, #176	; 0xb0
    83a2:	f6c0 0000 	movt	r0, #2048	; 0x800
    83a6:	f102 0310 	add.w	r3, r2, #16
    83aa:	f7fc fee1 	bl	5170 <__gnat_raise_exception>
    83ae:	bf00      	nop
    83b0:	0000d378 	.word	0x0000d378

000083b4 <__gnat_free>:
    83b4:	b510      	push	{r4, lr}
    83b6:	f240 037c 	movw	r3, #124	; 0x7c
    83ba:	4604      	mov	r4, r0
    83bc:	f6c0 0300 	movt	r3, #2048	; 0x800
    83c0:	681b      	ldr	r3, [r3, #0]
    83c2:	4798      	blx	r3
    83c4:	4620      	mov	r0, r4
    83c6:	f000 fe4b 	bl	9060 <free>
    83ca:	f240 0380 	movw	r3, #128	; 0x80
    83ce:	f6c0 0300 	movt	r3, #2048	; 0x800
    83d2:	e8bd 4010 	ldmia.w	sp!, {r4, lr}
    83d6:	681b      	ldr	r3, [r3, #0]
    83d8:	4718      	bx	r3
    83da:	bf00      	nop

000083dc <__gnat_realloc>:
    83dc:	b538      	push	{r3, r4, r5, lr}
    83de:	1c4b      	adds	r3, r1, #1
    83e0:	460c      	mov	r4, r1
    83e2:	d014      	beq.n	840e <__gnat_realloc+0x32>
    83e4:	f240 037c 	movw	r3, #124	; 0x7c
    83e8:	4605      	mov	r5, r0
    83ea:	f6c0 0300 	movt	r3, #2048	; 0x800
    83ee:	681b      	ldr	r3, [r3, #0]
    83f0:	4798      	blx	r3
    83f2:	4621      	mov	r1, r4
    83f4:	4628      	mov	r0, r5
    83f6:	f000 febb 	bl	9170 <realloc>
    83fa:	f240 0380 	movw	r3, #128	; 0x80
    83fe:	f6c0 0300 	movt	r3, #2048	; 0x800
    8402:	681b      	ldr	r3, [r3, #0]
    8404:	4604      	mov	r4, r0
    8406:	4798      	blx	r3
    8408:	b16c      	cbz	r4, 8426 <__gnat_realloc+0x4a>
    840a:	4620      	mov	r0, r4
    840c:	bd38      	pop	{r3, r4, r5, pc}
    840e:	f24d 3260 	movw	r2, #54112	; 0xd360
    8412:	f240 00b0 	movw	r0, #176	; 0xb0
    8416:	f2c0 0200 	movt	r2, #0
    841a:	f6c0 0000 	movt	r0, #2048	; 0x800
    841e:	f102 0310 	add.w	r3, r2, #16
    8422:	f7fc fea5 	bl	5170 <__gnat_raise_exception>
    8426:	4a04      	ldr	r2, [pc, #16]	; (8438 <__gnat_realloc+0x5c>)
    8428:	f240 00b0 	movw	r0, #176	; 0xb0
    842c:	f6c0 0000 	movt	r0, #2048	; 0x800
    8430:	f102 0310 	add.w	r3, r2, #16
    8434:	f7fc fe9c 	bl	5170 <__gnat_raise_exception>
    8438:	0000d378 	.word	0x0000d378

0000843c <system__parameters__adjust_storage_size>:
    843c:	f1b0 4f00 	cmp.w	r0, #2147483648	; 0x80000000
    8440:	bf08      	it	eq
    8442:	f44f 5080 	moveq.w	r0, #4096	; 0x1000
    8446:	4770      	bx	lr

00008448 <__gnat_debug_raise_exception>:
    8448:	b480      	push	{r7}
    844a:	b083      	sub	sp, #12
    844c:	af00      	add	r7, sp, #0
    844e:	6078      	str	r0, [r7, #4]
    8450:	bf00      	nop
    8452:	370c      	adds	r7, #12
    8454:	46bd      	mov	sp, r7
    8456:	f85d 7b04 	ldr.w	r7, [sp], #4
    845a:	4770      	bx	lr

0000845c <__gnat_unhandled_exception>:
    845c:	b480      	push	{r7}
    845e:	b083      	sub	sp, #12
    8460:	af00      	add	r7, sp, #0
    8462:	6078      	str	r0, [r7, #4]
    8464:	bf00      	nop
    8466:	370c      	adds	r7, #12
    8468:	46bd      	mov	sp, r7
    846a:	f85d 7b04 	ldr.w	r7, [sp], #4
    846e:	4770      	bx	lr

00008470 <__gnat_debug_raise_assert_failure>:
    8470:	b480      	push	{r7}
    8472:	af00      	add	r7, sp, #0
    8474:	bf00      	nop
    8476:	46bd      	mov	sp, r7
    8478:	f85d 7b04 	ldr.w	r7, [sp], #4
    847c:	4770      	bx	lr
    847e:	bf00      	nop

00008480 <local_raise>:
    8480:	b480      	push	{r7}
    8482:	b083      	sub	sp, #12
    8484:	af00      	add	r7, sp, #0
    8486:	6078      	str	r0, [r7, #4]
    8488:	bf00      	nop
    848a:	370c      	adds	r7, #12
    848c:	46bd      	mov	sp, r7
    848e:	f85d 7b04 	ldr.w	r7, [sp], #4
    8492:	4770      	bx	lr

00008494 <system__val_uns__scan_raw_unsigned>:
    8494:	e92d 4ff0 	stmdb	sp!, {r4, r5, r6, r7, r8, r9, sl, fp, lr}
    8498:	b089      	sub	sp, #36	; 0x24
    849a:	460c      	mov	r4, r1
    849c:	461f      	mov	r7, r3
    849e:	9107      	str	r1, [sp, #28]
    84a0:	f06f 4100 	mvn.w	r1, #2147483648	; 0x80000000
    84a4:	9205      	str	r2, [sp, #20]
    84a6:	6863      	ldr	r3, [r4, #4]
    84a8:	f8d4 9000 	ldr.w	r9, [r4]
    84ac:	428b      	cmp	r3, r1
    84ae:	f000 80ee 	beq.w	868e <system__val_uns__scan_raw_unsigned+0x1fa>
    84b2:	9b05      	ldr	r3, [sp, #20]
    84b4:	4606      	mov	r6, r0
    84b6:	681b      	ldr	r3, [r3, #0]
    84b8:	1c5a      	adds	r2, r3, #1
    84ba:	42ba      	cmp	r2, r7
    84bc:	ebc9 0303 	rsb	r3, r9, r3
    84c0:	5cc4      	ldrb	r4, [r0, r3]
    84c2:	f1a4 0430 	sub.w	r4, r4, #48	; 0x30
    84c6:	f300 80d9 	bgt.w	867c <system__val_uns__scan_raw_unsigned+0x1e8>
    84ca:	f649 1b99 	movw	fp, #39321	; 0x9999
    84ce:	f649 1a98 	movw	sl, #39320	; 0x9998
    84d2:	f6c1 1b99 	movt	fp, #6553	; 0x1999
    84d6:	f6c1 1a99 	movt	sl, #6553	; 0x1999
    84da:	f04f 0800 	mov.w	r8, #0
    84de:	f8cd b018 	str.w	fp, [sp, #24]
    84e2:	9d12      	ldr	r5, [sp, #72]	; 0x48
    84e4:	f8dd b01c 	ldr.w	fp, [sp, #28]
    84e8:	e00d      	b.n	8506 <system__val_uns__scan_raw_unsigned+0x72>
    84ea:	2b5f      	cmp	r3, #95	; 0x5f
    84ec:	d155      	bne.n	859a <system__val_uns__scan_raw_unsigned+0x106>
    84ee:	2300      	movs	r3, #0
    84f0:	4630      	mov	r0, r6
    84f2:	9700      	str	r7, [sp, #0]
    84f4:	4659      	mov	r1, fp
    84f6:	9301      	str	r3, [sp, #4]
    84f8:	9502      	str	r5, [sp, #8]
    84fa:	9b05      	ldr	r3, [sp, #20]
    84fc:	f000 f9fa 	bl	88f4 <system__val_util__scan_underscore>
    8500:	4602      	mov	r2, r0
    8502:	4297      	cmp	r7, r2
    8504:	db1c      	blt.n	8540 <system__val_uns__scan_raw_unsigned+0xac>
    8506:	ebc9 0302 	rsb	r3, r9, r2
    850a:	5cf3      	ldrb	r3, [r6, r3]
    850c:	f1a3 0130 	sub.w	r1, r3, #48	; 0x30
    8510:	2909      	cmp	r1, #9
    8512:	d8ea      	bhi.n	84ea <system__val_uns__scan_raw_unsigned+0x56>
    8514:	4554      	cmp	r4, sl
    8516:	bf9c      	itt	ls
    8518:	eb04 0484 	addls.w	r4, r4, r4, lsl #2
    851c:	eb01 0444 	addls.w	r4, r1, r4, lsl #1
    8520:	d90b      	bls.n	853a <system__val_uns__scan_raw_unsigned+0xa6>
    8522:	9906      	ldr	r1, [sp, #24]
    8524:	428c      	cmp	r4, r1
    8526:	bf18      	it	ne
    8528:	f04f 0801 	movne.w	r8, #1
    852c:	d105      	bne.n	853a <system__val_uns__scan_raw_unsigned+0xa6>
    852e:	f1a3 0436 	sub.w	r4, r3, #54	; 0x36
    8532:	4554      	cmp	r4, sl
    8534:	bf98      	it	ls
    8536:	f04f 0801 	movls.w	r8, #1
    853a:	3201      	adds	r2, #1
    853c:	4297      	cmp	r7, r2
    853e:	dae2      	bge.n	8506 <system__val_uns__scan_raw_unsigned+0x72>
    8540:	9b05      	ldr	r3, [sp, #20]
    8542:	601a      	str	r2, [r3, #0]
    8544:	f04f 0a0a 	mov.w	sl, #10
    8548:	2500      	movs	r5, #0
    854a:	4630      	mov	r0, r6
    854c:	9b12      	ldr	r3, [sp, #72]	; 0x48
    854e:	9301      	str	r3, [sp, #4]
    8550:	463b      	mov	r3, r7
    8552:	9a05      	ldr	r2, [sp, #20]
    8554:	9500      	str	r5, [sp, #0]
    8556:	9907      	ldr	r1, [sp, #28]
    8558:	f000 f9f0 	bl	893c <system__val_util__scan_exponent>
    855c:	42ac      	cmp	r4, r5
    855e:	bf18      	it	ne
    8560:	42a8      	cmpne	r0, r5
    8562:	d013      	beq.n	858c <system__val_uns__scan_raw_unsigned+0xf8>
    8564:	f04f 32ff 	mov.w	r2, #4294967295
    8568:	42a8      	cmp	r0, r5
    856a:	fbb2 f2fa 	udiv	r2, r2, sl
    856e:	dd0d      	ble.n	858c <system__val_uns__scan_raw_unsigned+0xf8>
    8570:	462b      	mov	r3, r5
    8572:	e003      	b.n	857c <system__val_uns__scan_raw_unsigned+0xe8>
    8574:	4283      	cmp	r3, r0
    8576:	fb0a f404 	mul.w	r4, sl, r4
    857a:	d007      	beq.n	858c <system__val_uns__scan_raw_unsigned+0xf8>
    857c:	4294      	cmp	r4, r2
    857e:	f103 0301 	add.w	r3, r3, #1
    8582:	d9f7      	bls.n	8574 <system__val_uns__scan_raw_unsigned+0xe0>
    8584:	4630      	mov	r0, r6
    8586:	9907      	ldr	r1, [sp, #28]
    8588:	f000 f8da 	bl	8740 <system__val_util__bad_value>
    858c:	f1b8 0f00 	cmp.w	r8, #0
    8590:	d1f8      	bne.n	8584 <system__val_uns__scan_raw_unsigned+0xf0>
    8592:	4620      	mov	r0, r4
    8594:	b009      	add	sp, #36	; 0x24
    8596:	e8bd 8ff0 	ldmia.w	sp!, {r4, r5, r6, r7, r8, r9, sl, fp, pc}
    859a:	42ba      	cmp	r2, r7
    859c:	461d      	mov	r5, r3
    859e:	9b05      	ldr	r3, [sp, #20]
    85a0:	601a      	str	r2, [r3, #0]
    85a2:	dacf      	bge.n	8544 <system__val_uns__scan_raw_unsigned+0xb0>
    85a4:	2d3a      	cmp	r5, #58	; 0x3a
    85a6:	bf18      	it	ne
    85a8:	2d23      	cmpne	r5, #35	; 0x23
    85aa:	d1cb      	bne.n	8544 <system__val_uns__scan_raw_unsigned+0xb0>
    85ac:	1ea3      	subs	r3, r4, #2
    85ae:	2b0e      	cmp	r3, #14
    85b0:	bf98      	it	ls
    85b2:	46a2      	movls	sl, r4
    85b4:	f102 0e01 	add.w	lr, r2, #1
    85b8:	bf88      	it	hi
    85ba:	f04f 0a10 	movhi.w	sl, #16
    85be:	f04f 32ff 	mov.w	r2, #4294967295
    85c2:	bf94      	ite	ls
    85c4:	f1c4 0b00 	rsbls	fp, r4, #0
    85c8:	f06f 0b0f 	mvnhi.w	fp, #15
    85cc:	fbb2 f2fa 	udiv	r2, r2, sl
    85d0:	fbbb fbfa 	udiv	fp, fp, sl
    85d4:	bf88      	it	hi
    85d6:	f04f 0801 	movhi.w	r8, #1
    85da:	2400      	movs	r4, #0
    85dc:	ebc9 030e 	rsb	r3, r9, lr
    85e0:	5cf3      	ldrb	r3, [r6, r3]
    85e2:	4694      	mov	ip, r2
    85e4:	f1a3 0230 	sub.w	r2, r3, #48	; 0x30
    85e8:	b2d1      	uxtb	r1, r2
    85ea:	2909      	cmp	r1, #9
    85ec:	d90c      	bls.n	8608 <system__val_uns__scan_raw_unsigned+0x174>
    85ee:	f1a3 0241 	sub.w	r2, r3, #65	; 0x41
    85f2:	2a05      	cmp	r2, #5
    85f4:	bf98      	it	ls
    85f6:	f1a3 0237 	subls.w	r2, r3, #55	; 0x37
    85fa:	d905      	bls.n	8608 <system__val_uns__scan_raw_unsigned+0x174>
    85fc:	f1a3 0261 	sub.w	r2, r3, #97	; 0x61
    8600:	2a05      	cmp	r2, #5
    8602:	d839      	bhi.n	8678 <system__val_uns__scan_raw_unsigned+0x1e4>
    8604:	f1a3 0257 	sub.w	r2, r3, #87	; 0x57
    8608:	4592      	cmp	sl, r2
    860a:	d924      	bls.n	8656 <system__val_uns__scan_raw_unsigned+0x1c2>
    860c:	455c      	cmp	r4, fp
    860e:	d825      	bhi.n	865c <system__val_uns__scan_raw_unsigned+0x1c8>
    8610:	fb0a 2404 	mla	r4, sl, r4, r2
    8614:	f10e 0201 	add.w	r2, lr, #1
    8618:	4297      	cmp	r7, r2
    861a:	db32      	blt.n	8682 <system__val_uns__scan_raw_unsigned+0x1ee>
    861c:	ebc9 0302 	rsb	r3, r9, r2
    8620:	5cf3      	ldrb	r3, [r6, r3]
    8622:	429d      	cmp	r5, r3
    8624:	d023      	beq.n	866e <system__val_uns__scan_raw_unsigned+0x1da>
    8626:	2b5f      	cmp	r3, #95	; 0x5f
    8628:	d001      	beq.n	862e <system__val_uns__scan_raw_unsigned+0x19a>
    862a:	4696      	mov	lr, r2
    862c:	e7da      	b.n	85e4 <system__val_uns__scan_raw_unsigned+0x150>
    862e:	2301      	movs	r3, #1
    8630:	4630      	mov	r0, r6
    8632:	9700      	str	r7, [sp, #0]
    8634:	9301      	str	r3, [sp, #4]
    8636:	9b12      	ldr	r3, [sp, #72]	; 0x48
    8638:	9302      	str	r3, [sp, #8]
    863a:	9907      	ldr	r1, [sp, #28]
    863c:	9b05      	ldr	r3, [sp, #20]
    863e:	f8cd c018 	str.w	ip, [sp, #24]
    8642:	f000 f957 	bl	88f4 <system__val_util__scan_underscore>
    8646:	f8dd c018 	ldr.w	ip, [sp, #24]
    864a:	4602      	mov	r2, r0
    864c:	ebc9 0300 	rsb	r3, r9, r0
    8650:	4696      	mov	lr, r2
    8652:	5cf3      	ldrb	r3, [r6, r3]
    8654:	e7c6      	b.n	85e4 <system__val_uns__scan_raw_unsigned+0x150>
    8656:	f04f 0801 	mov.w	r8, #1
    865a:	e7db      	b.n	8614 <system__val_uns__scan_raw_unsigned+0x180>
    865c:	4564      	cmp	r4, ip
    865e:	d8fa      	bhi.n	8656 <system__val_uns__scan_raw_unsigned+0x1c2>
    8660:	fb0a 2404 	mla	r4, sl, r4, r2
    8664:	45a4      	cmp	ip, r4
    8666:	bf88      	it	hi
    8668:	f04f 0801 	movhi.w	r8, #1
    866c:	e7d2      	b.n	8614 <system__val_uns__scan_raw_unsigned+0x180>
    866e:	f10e 0202 	add.w	r2, lr, #2
    8672:	9b05      	ldr	r3, [sp, #20]
    8674:	601a      	str	r2, [r3, #0]
    8676:	e767      	b.n	8548 <system__val_uns__scan_raw_unsigned+0xb4>
    8678:	4654      	mov	r4, sl
    867a:	e765      	b.n	8548 <system__val_uns__scan_raw_unsigned+0xb4>
    867c:	f04f 0800 	mov.w	r8, #0
    8680:	e75e      	b.n	8540 <system__val_uns__scan_raw_unsigned+0xac>
    8682:	9b05      	ldr	r3, [sp, #20]
    8684:	4630      	mov	r0, r6
    8686:	601a      	str	r2, [r3, #0]
    8688:	9907      	ldr	r1, [sp, #28]
    868a:	f000 f859 	bl	8740 <system__val_util__bad_value>
    868e:	f24d 32c4 	movw	r2, #54212	; 0xd3c4
    8692:	f240 1000 	movw	r0, #256	; 0x100
    8696:	f2c0 0200 	movt	r2, #0
    869a:	f6c0 0000 	movt	r0, #2048	; 0x800
    869e:	f102 0354 	add.w	r3, r2, #84	; 0x54
    86a2:	f7fc fd65 	bl	5170 <__gnat_raise_exception>
    86a6:	bf00      	nop

000086a8 <system__val_uns__scan_unsigned>:
    86a8:	e92d 43f0 	stmdb	sp!, {r4, r5, r6, r7, r8, r9, lr}
    86ac:	b083      	sub	sp, #12
    86ae:	4615      	mov	r5, r2
    86b0:	4607      	mov	r7, r0
    86b2:	f8dd 9028 	ldr.w	r9, [sp, #40]	; 0x28
    86b6:	4698      	mov	r8, r3
    86b8:	f8cd 9000 	str.w	r9, [sp]
    86bc:	460e      	mov	r6, r1
    86be:	680c      	ldr	r4, [r1, #0]
    86c0:	f000 f8c0 	bl	8844 <system__val_util__scan_plus_sign>
    86c4:	682b      	ldr	r3, [r5, #0]
    86c6:	1b1c      	subs	r4, r3, r4
    86c8:	5d3c      	ldrb	r4, [r7, r4]
    86ca:	3c30      	subs	r4, #48	; 0x30
    86cc:	2c09      	cmp	r4, #9
    86ce:	d80a      	bhi.n	86e6 <system__val_uns__scan_unsigned+0x3e>
    86d0:	f8cd 9028 	str.w	r9, [sp, #40]	; 0x28
    86d4:	4638      	mov	r0, r7
    86d6:	4631      	mov	r1, r6
    86d8:	462a      	mov	r2, r5
    86da:	4643      	mov	r3, r8
    86dc:	b003      	add	sp, #12
    86de:	e8bd 43f0 	ldmia.w	sp!, {r4, r5, r6, r7, r8, r9, lr}
    86e2:	f7ff bed7 	b.w	8494 <system__val_uns__scan_raw_unsigned>
    86e6:	6028      	str	r0, [r5, #0]
    86e8:	4631      	mov	r1, r6
    86ea:	4638      	mov	r0, r7
    86ec:	f000 f828 	bl	8740 <system__val_util__bad_value>

000086f0 <system__val_uns__value_unsigned>:
    86f0:	b5f0      	push	{r4, r5, r6, r7, lr}
    86f2:	b085      	sub	sp, #20
    86f4:	684b      	ldr	r3, [r1, #4]
    86f6:	f06f 4200 	mvn.w	r2, #2147483648	; 0x80000000
    86fa:	460c      	mov	r4, r1
    86fc:	4293      	cmp	r3, r2
    86fe:	d011      	beq.n	8724 <system__val_uns__value_unsigned+0x34>
    8700:	aa04      	add	r2, sp, #16
    8702:	2703      	movs	r7, #3
    8704:	4606      	mov	r6, r0
    8706:	680d      	ldr	r5, [r1, #0]
    8708:	f842 5d08 	str.w	r5, [r2, #-8]!
    870c:	9700      	str	r7, [sp, #0]
    870e:	f7ff ffcb 	bl	86a8 <system__val_uns__scan_unsigned>
    8712:	4621      	mov	r1, r4
    8714:	9a02      	ldr	r2, [sp, #8]
    8716:	4605      	mov	r5, r0
    8718:	4630      	mov	r0, r6
    871a:	f000 f8db 	bl	88d4 <system__val_util__scan_trailing_blanks>
    871e:	4628      	mov	r0, r5
    8720:	b005      	add	sp, #20
    8722:	bdf0      	pop	{r4, r5, r6, r7, pc}
    8724:	680c      	ldr	r4, [r1, #0]
    8726:	2201      	movs	r2, #1
    8728:	a902      	add	r1, sp, #8
    872a:	1b1b      	subs	r3, r3, r4
    872c:	4413      	add	r3, r2
    872e:	9202      	str	r2, [sp, #8]
    8730:	9303      	str	r3, [sp, #12]
    8732:	f7ff ffdd 	bl	86f0 <system__val_uns__value_unsigned>
    8736:	4605      	mov	r5, r0
    8738:	4628      	mov	r0, r5
    873a:	b005      	add	sp, #20
    873c:	bdf0      	pop	{r4, r5, r6, r7, pc}
    873e:	bf00      	nop

00008740 <system__val_util__bad_value>:
    8740:	e92d 43f0 	stmdb	sp!, {r4, r5, r6, r7, r8, r9, lr}
    8744:	b083      	sub	sp, #12
    8746:	af00      	add	r7, sp, #0
    8748:	680d      	ldr	r5, [r1, #0]
    874a:	f24d 4420 	movw	r4, #54304	; 0xd420
    874e:	684b      	ldr	r3, [r1, #4]
    8750:	f2c0 0400 	movt	r4, #0
    8754:	4686      	mov	lr, r0
    8756:	42ab      	cmp	r3, r5
    8758:	bfa6      	itte	ge
    875a:	1b5d      	subge	r5, r3, r5
    875c:	3501      	addge	r5, #1
    875e:	2500      	movlt	r5, #0
    8760:	f105 0818 	add.w	r8, r5, #24
    8764:	cc0f      	ldmia	r4!, {r0, r1, r2, r3}
    8766:	f8b4 9004 	ldrh.w	r9, [r4, #4]
    876a:	f894 c006 	ldrb.w	ip, [r4, #6]
    876e:	ea28 76e8 	bic.w	r6, r8, r8, asr #31
    8772:	3607      	adds	r6, #7
    8774:	f026 0607 	bic.w	r6, r6, #7
    8778:	ebad 0d06 	sub.w	sp, sp, r6
    877c:	3517      	adds	r5, #23
    877e:	2d17      	cmp	r5, #23
    8780:	462e      	mov	r6, r5
    8782:	bfb8      	it	lt
    8784:	2617      	movlt	r6, #23
    8786:	9000      	str	r0, [sp, #0]
    8788:	6820      	ldr	r0, [r4, #0]
    878a:	2422      	movs	r4, #34	; 0x22
    878c:	9101      	str	r1, [sp, #4]
    878e:	4671      	mov	r1, lr
    8790:	9202      	str	r2, [sp, #8]
    8792:	f1a6 0217 	sub.w	r2, r6, #23
    8796:	9004      	str	r0, [sp, #16]
    8798:	f10d 0017 	add.w	r0, sp, #23
    879c:	9303      	str	r3, [sp, #12]
    879e:	f8ad 9014 	strh.w	r9, [sp, #20]
    87a2:	f88d c016 	strb.w	ip, [sp, #22]
    87a6:	f7f9 fb9d 	bl	1ee4 <memcpy>
    87aa:	2101      	movs	r1, #1
    87ac:	f240 101c 	movw	r0, #284	; 0x11c
    87b0:	466a      	mov	r2, sp
    87b2:	f6c0 0000 	movt	r0, #2048	; 0x800
    87b6:	463b      	mov	r3, r7
    87b8:	f8c7 8004 	str.w	r8, [r7, #4]
    87bc:	f80d 4005 	strb.w	r4, [sp, r5]
    87c0:	6039      	str	r1, [r7, #0]
    87c2:	f7fc fcd5 	bl	5170 <__gnat_raise_exception>
    87c6:	bf00      	nop

000087c8 <system__val_util__normalize_string>:
    87c8:	e92d 43f8 	stmdb	sp!, {r3, r4, r5, r6, r7, r8, r9, lr}
    87cc:	e893 0030 	ldmia.w	r3, {r4, r5}
    87d0:	42ac      	cmp	r4, r5
    87d2:	dc12      	bgt.n	87fa <system__val_util__normalize_string+0x32>
    87d4:	f892 e000 	ldrb.w	lr, [r2]
    87d8:	f1be 0f20 	cmp.w	lr, #32
    87dc:	4680      	mov	r8, r0
    87de:	4627      	mov	r7, r4
    87e0:	bf08      	it	eq
    87e2:	ebc4 0c02 	rsbeq	ip, r4, r2
    87e6:	d005      	beq.n	87f4 <system__val_util__normalize_string+0x2c>
    87e8:	e00b      	b.n	8802 <system__val_util__normalize_string+0x3a>
    87ea:	f81c e004 	ldrb.w	lr, [ip, r4]
    87ee:	f1be 0f20 	cmp.w	lr, #32
    87f2:	d106      	bne.n	8802 <system__val_util__normalize_string+0x3a>
    87f4:	3401      	adds	r4, #1
    87f6:	42a5      	cmp	r5, r4
    87f8:	daf7      	bge.n	87ea <system__val_util__normalize_string+0x22>
    87fa:	4610      	mov	r0, r2
    87fc:	4619      	mov	r1, r3
    87fe:	f7ff ff9f 	bl	8740 <system__val_util__bad_value>
    8802:	1beb      	subs	r3, r5, r7
    8804:	5cd3      	ldrb	r3, [r2, r3]
    8806:	2b20      	cmp	r3, #32
    8808:	bf08      	it	eq
    880a:	1bd1      	subeq	r1, r2, r7
    880c:	d103      	bne.n	8816 <system__val_util__normalize_string+0x4e>
    880e:	3d01      	subs	r5, #1
    8810:	5d4b      	ldrb	r3, [r1, r5]
    8812:	2b20      	cmp	r3, #32
    8814:	d0fb      	beq.n	880e <system__val_util__normalize_string+0x46>
    8816:	f1be 0f27 	cmp.w	lr, #39	; 0x27
    881a:	d00e      	beq.n	883a <system__val_util__normalize_string+0x72>
    881c:	42a5      	cmp	r5, r4
    881e:	db0c      	blt.n	883a <system__val_util__normalize_string+0x72>
    8820:	f1c7 0901 	rsb	r9, r7, #1
    8824:	44a9      	add	r9, r5
    8826:	1be7      	subs	r7, r4, r7
    8828:	4491      	add	r9, r2
    882a:	19d6      	adds	r6, r2, r7
    882c:	7830      	ldrb	r0, [r6, #0]
    882e:	f000 fe57 	bl	94e0 <system__case_util__to_upper>
    8832:	f806 0b01 	strb.w	r0, [r6], #1
    8836:	454e      	cmp	r6, r9
    8838:	d1f8      	bne.n	882c <system__val_util__normalize_string+0x64>
    883a:	e888 0030 	stmia.w	r8, {r4, r5}
    883e:	4640      	mov	r0, r8
    8840:	e8bd 83f8 	ldmia.w	sp!, {r3, r4, r5, r6, r7, r8, r9, pc}

00008844 <system__val_util__scan_plus_sign>:
    8844:	b5f8      	push	{r3, r4, r5, r6, r7, lr}
    8846:	6814      	ldr	r4, [r2, #0]
    8848:	460f      	mov	r7, r1
    884a:	680e      	ldr	r6, [r1, #0]
    884c:	429c      	cmp	r4, r3
    884e:	dc14      	bgt.n	887a <system__val_util__scan_plus_sign+0x36>
    8850:	4686      	mov	lr, r0
    8852:	1b86      	subs	r6, r0, r6
    8854:	e002      	b.n	885c <system__val_util__scan_plus_sign+0x18>
    8856:	3401      	adds	r4, #1
    8858:	42a3      	cmp	r3, r4
    885a:	db0b      	blt.n	8874 <system__val_util__scan_plus_sign+0x30>
    885c:	5d35      	ldrb	r5, [r6, r4]
    885e:	2d20      	cmp	r5, #32
    8860:	d0f9      	beq.n	8856 <system__val_util__scan_plus_sign+0x12>
    8862:	2d2b      	cmp	r5, #43	; 0x2b
    8864:	4626      	mov	r6, r4
    8866:	d002      	beq.n	886e <system__val_util__scan_plus_sign+0x2a>
    8868:	6016      	str	r6, [r2, #0]
    886a:	4620      	mov	r0, r4
    886c:	bdf8      	pop	{r3, r4, r5, r6, r7, pc}
    886e:	1c66      	adds	r6, r4, #1
    8870:	42b3      	cmp	r3, r6
    8872:	daf9      	bge.n	8868 <system__val_util__scan_plus_sign+0x24>
    8874:	4670      	mov	r0, lr
    8876:	4639      	mov	r1, r7
    8878:	6014      	str	r4, [r2, #0]
    887a:	f7ff ff61 	bl	8740 <system__val_util__bad_value>
    887e:	bf00      	nop

00008880 <system__val_util__scan_sign>:
    8880:	b5f8      	push	{r3, r4, r5, r6, r7, lr}
    8882:	9906      	ldr	r1, [sp, #24]
    8884:	9f07      	ldr	r7, [sp, #28]
    8886:	681e      	ldr	r6, [r3, #0]
    8888:	680c      	ldr	r4, [r1, #0]
    888a:	42bc      	cmp	r4, r7
    888c:	dc15      	bgt.n	88ba <system__val_util__scan_sign+0x3a>
    888e:	1b96      	subs	r6, r2, r6
    8890:	e002      	b.n	8898 <system__val_util__scan_sign+0x18>
    8892:	3401      	adds	r4, #1
    8894:	42a7      	cmp	r7, r4
    8896:	db0f      	blt.n	88b8 <system__val_util__scan_sign+0x38>
    8898:	5d35      	ldrb	r5, [r6, r4]
    889a:	2d20      	cmp	r5, #32
    889c:	d0f9      	beq.n	8892 <system__val_util__scan_sign+0x12>
    889e:	2d2d      	cmp	r5, #45	; 0x2d
    88a0:	4626      	mov	r6, r4
    88a2:	d00e      	beq.n	88c2 <system__val_util__scan_sign+0x42>
    88a4:	2d2b      	cmp	r5, #43	; 0x2b
    88a6:	d004      	beq.n	88b2 <system__val_util__scan_sign+0x32>
    88a8:	2300      	movs	r3, #0
    88aa:	600e      	str	r6, [r1, #0]
    88ac:	7003      	strb	r3, [r0, #0]
    88ae:	6044      	str	r4, [r0, #4]
    88b0:	bdf8      	pop	{r3, r4, r5, r6, r7, pc}
    88b2:	1c66      	adds	r6, r4, #1
    88b4:	42b7      	cmp	r7, r6
    88b6:	daf7      	bge.n	88a8 <system__val_util__scan_sign+0x28>
    88b8:	600c      	str	r4, [r1, #0]
    88ba:	4610      	mov	r0, r2
    88bc:	4619      	mov	r1, r3
    88be:	f7ff ff3f 	bl	8740 <system__val_util__bad_value>
    88c2:	1c66      	adds	r6, r4, #1
    88c4:	42b7      	cmp	r7, r6
    88c6:	bfa8      	it	ge
    88c8:	2301      	movge	r3, #1
    88ca:	dbf5      	blt.n	88b8 <system__val_util__scan_sign+0x38>
    88cc:	600e      	str	r6, [r1, #0]
    88ce:	7003      	strb	r3, [r0, #0]
    88d0:	6044      	str	r4, [r0, #4]
    88d2:	bdf8      	pop	{r3, r4, r5, r6, r7, pc}

000088d4 <system__val_util__scan_trailing_blanks>:
    88d4:	b538      	push	{r3, r4, r5, lr}
    88d6:	684c      	ldr	r4, [r1, #4]
    88d8:	680d      	ldr	r5, [r1, #0]
    88da:	4294      	cmp	r4, r2
    88dc:	db07      	blt.n	88ee <system__val_util__scan_trailing_blanks+0x1a>
    88de:	3a01      	subs	r2, #1
    88e0:	3201      	adds	r2, #1
    88e2:	1b53      	subs	r3, r2, r5
    88e4:	5cc3      	ldrb	r3, [r0, r3]
    88e6:	2b20      	cmp	r3, #32
    88e8:	d102      	bne.n	88f0 <system__val_util__scan_trailing_blanks+0x1c>
    88ea:	4294      	cmp	r4, r2
    88ec:	d1f8      	bne.n	88e0 <system__val_util__scan_trailing_blanks+0xc>
    88ee:	bd38      	pop	{r3, r4, r5, pc}
    88f0:	f7ff ff26 	bl	8740 <system__val_util__bad_value>

000088f4 <system__val_util__scan_underscore>:
    88f4:	b5f8      	push	{r3, r4, r5, r6, r7, lr}
    88f6:	f89d 701c 	ldrb.w	r7, [sp, #28]
    88fa:	469e      	mov	lr, r3
    88fc:	3201      	adds	r2, #1
    88fe:	9b06      	ldr	r3, [sp, #24]
    8900:	460d      	mov	r5, r1
    8902:	680c      	ldr	r4, [r1, #0]
    8904:	429a      	cmp	r2, r3
    8906:	dc14      	bgt.n	8932 <system__val_util__scan_underscore+0x3e>
    8908:	1b14      	subs	r4, r2, r4
    890a:	5d04      	ldrb	r4, [r0, r4]
    890c:	f1a4 0130 	sub.w	r1, r4, #48	; 0x30
    8910:	2909      	cmp	r1, #9
    8912:	4606      	mov	r6, r0
    8914:	d905      	bls.n	8922 <system__val_util__scan_underscore+0x2e>
    8916:	b137      	cbz	r7, 8926 <system__val_util__scan_underscore+0x32>
    8918:	f024 0420 	bic.w	r4, r4, #32
    891c:	3c41      	subs	r4, #65	; 0x41
    891e:	2c05      	cmp	r4, #5
    8920:	d801      	bhi.n	8926 <system__val_util__scan_underscore+0x32>
    8922:	4610      	mov	r0, r2
    8924:	bdf8      	pop	{r3, r4, r5, r6, r7, pc}
    8926:	f8ce 2000 	str.w	r2, [lr]
    892a:	4630      	mov	r0, r6
    892c:	4629      	mov	r1, r5
    892e:	f7ff ff07 	bl	8740 <system__val_util__bad_value>
    8932:	f8ce 2000 	str.w	r2, [lr]
    8936:	f7ff ff03 	bl	8740 <system__val_util__bad_value>
    893a:	bf00      	nop

0000893c <system__val_util__scan_exponent>:
    893c:	e92d 4ff0 	stmdb	sp!, {r4, r5, r6, r7, r8, r9, sl, fp, lr}
    8940:	b085      	sub	sp, #20
    8942:	6814      	ldr	r4, [r2, #0]
    8944:	f89d 7038 	ldrb.w	r7, [sp, #56]	; 0x38
    8948:	680d      	ldr	r5, [r1, #0]
    894a:	429c      	cmp	r4, r3
    894c:	da07      	bge.n	895e <system__val_util__scan_exponent+0x22>
    894e:	1b66      	subs	r6, r4, r5
    8950:	f810 e006 	ldrb.w	lr, [r0, r6]
    8954:	f00e 0edf 	and.w	lr, lr, #223	; 0xdf
    8958:	f1be 0f45 	cmp.w	lr, #69	; 0x45
    895c:	d003      	beq.n	8966 <system__val_util__scan_exponent+0x2a>
    895e:	2000      	movs	r0, #0
    8960:	b005      	add	sp, #20
    8962:	e8bd 8ff0 	ldmia.w	sp!, {r4, r5, r6, r7, r8, r9, sl, fp, pc}
    8966:	f104 0e01 	add.w	lr, r4, #1
    896a:	ebc5 060e 	rsb	r6, r5, lr
    896e:	5d86      	ldrb	r6, [r0, r6]
    8970:	2e2b      	cmp	r6, #43	; 0x2b
    8972:	d04e      	beq.n	8a12 <system__val_util__scan_exponent+0xd6>
    8974:	2e2d      	cmp	r6, #45	; 0x2d
    8976:	bf18      	it	ne
    8978:	f04f 0b00 	movne.w	fp, #0
    897c:	d02c      	beq.n	89d8 <system__val_util__scan_exponent+0x9c>
    897e:	3e30      	subs	r6, #48	; 0x30
    8980:	2e09      	cmp	r6, #9
    8982:	d8ec      	bhi.n	895e <system__val_util__scan_exponent+0x22>
    8984:	f64c 4acb 	movw	sl, #52427	; 0xcccb
    8988:	4606      	mov	r6, r0
    898a:	461f      	mov	r7, r3
    898c:	4689      	mov	r9, r1
    898e:	4690      	mov	r8, r2
    8990:	2400      	movs	r4, #0
    8992:	f6c0 4acc 	movt	sl, #3276	; 0xccc
    8996:	4554      	cmp	r4, sl
    8998:	eb04 0284 	add.w	r2, r4, r4, lsl #2
    899c:	ebc5 010e 	rsb	r1, r5, lr
    89a0:	bfd8      	it	le
    89a2:	5c74      	ldrble	r4, [r6, r1]
    89a4:	f10e 0e01 	add.w	lr, lr, #1
    89a8:	bfdc      	itt	le
    89aa:	3c30      	suble	r4, #48	; 0x30
    89ac:	eb04 0442 	addle.w	r4, r4, r2, lsl #1
    89b0:	4577      	cmp	r7, lr
    89b2:	ebc5 030e 	rsb	r3, r5, lr
    89b6:	db06      	blt.n	89c6 <system__val_util__scan_exponent+0x8a>
    89b8:	5cf3      	ldrb	r3, [r6, r3]
    89ba:	2b5f      	cmp	r3, #95	; 0x5f
    89bc:	f1a3 0230 	sub.w	r2, r3, #48	; 0x30
    89c0:	d01a      	beq.n	89f8 <system__val_util__scan_exponent+0xbc>
    89c2:	2a09      	cmp	r2, #9
    89c4:	d9e7      	bls.n	8996 <system__val_util__scan_exponent+0x5a>
    89c6:	f1cb 0000 	rsb	r0, fp, #0
    89ca:	4060      	eors	r0, r4
    89cc:	f8c8 e000 	str.w	lr, [r8]
    89d0:	4458      	add	r0, fp
    89d2:	b005      	add	sp, #20
    89d4:	e8bd 8ff0 	ldmia.w	sp!, {r4, r5, r6, r7, r8, r9, sl, fp, pc}
    89d8:	f104 0e02 	add.w	lr, r4, #2
    89dc:	f087 0701 	eor.w	r7, r7, #1
    89e0:	4573      	cmp	r3, lr
    89e2:	bfb8      	it	lt
    89e4:	f047 0701 	orrlt.w	r7, r7, #1
    89e8:	2f00      	cmp	r7, #0
    89ea:	d1b8      	bne.n	895e <system__val_util__scan_exponent+0x22>
    89ec:	ebc5 040e 	rsb	r4, r5, lr
    89f0:	5d06      	ldrb	r6, [r0, r4]
    89f2:	f04f 0b01 	mov.w	fp, #1
    89f6:	e7c2      	b.n	897e <system__val_util__scan_exponent+0x42>
    89f8:	2300      	movs	r3, #0
    89fa:	4672      	mov	r2, lr
    89fc:	9700      	str	r7, [sp, #0]
    89fe:	4630      	mov	r0, r6
    8a00:	9301      	str	r3, [sp, #4]
    8a02:	4649      	mov	r1, r9
    8a04:	9b0f      	ldr	r3, [sp, #60]	; 0x3c
    8a06:	9302      	str	r3, [sp, #8]
    8a08:	4643      	mov	r3, r8
    8a0a:	f7ff ff73 	bl	88f4 <system__val_util__scan_underscore>
    8a0e:	4686      	mov	lr, r0
    8a10:	e7c1      	b.n	8996 <system__val_util__scan_exponent+0x5a>
    8a12:	f104 0e02 	add.w	lr, r4, #2
    8a16:	4573      	cmp	r3, lr
    8a18:	dba1      	blt.n	895e <system__val_util__scan_exponent+0x22>
    8a1a:	ebc5 040e 	rsb	r4, r5, lr
    8a1e:	5d06      	ldrb	r6, [r0, r4]
    8a20:	f04f 0b00 	mov.w	fp, #0
    8a24:	e7ab      	b.n	897e <system__val_util__scan_exponent+0x42>
    8a26:	bf00      	nop

00008a28 <system__wch_stw__get_next_code__in_char.4314>:
    8a28:	b508      	push	{r3, lr}
    8a2a:	f8dc 2004 	ldr.w	r2, [ip, #4]
    8a2e:	f8dc 3008 	ldr.w	r3, [ip, #8]
    8a32:	6851      	ldr	r1, [r2, #4]
    8a34:	6849      	ldr	r1, [r1, #4]
    8a36:	428b      	cmp	r3, r1
    8a38:	dc08      	bgt.n	8a4c <system__wch_stw__get_next_code__in_char.4314+0x24>
    8a3a:	f8dc 0000 	ldr.w	r0, [ip]
    8a3e:	1c59      	adds	r1, r3, #1
    8a40:	6812      	ldr	r2, [r2, #0]
    8a42:	1a1b      	subs	r3, r3, r0
    8a44:	5cd0      	ldrb	r0, [r2, r3]
    8a46:	f8cc 1008 	str.w	r1, [ip, #8]
    8a4a:	bd08      	pop	{r3, pc}
    8a4c:	f24d 4238 	movw	r2, #54328	; 0xd438
    8a50:	f240 101c 	movw	r0, #284	; 0x11c
    8a54:	f2c0 0200 	movt	r2, #0
    8a58:	f6c0 0000 	movt	r0, #2048	; 0x800
    8a5c:	f102 0348 	add.w	r3, r2, #72	; 0x48
    8a60:	f7fc fb86 	bl	5170 <__gnat_raise_exception>

00008a64 <system__wch_stw__get_next_code__get_utf_32__get_hex.4326>:
    8a64:	b508      	push	{r3, lr}
    8a66:	f1a0 0330 	sub.w	r3, r0, #48	; 0x30
    8a6a:	2b09      	cmp	r3, #9
    8a6c:	d917      	bls.n	8a9e <system__wch_stw__get_next_code__get_utf_32__get_hex.4326+0x3a>
    8a6e:	f1a0 0341 	sub.w	r3, r0, #65	; 0x41
    8a72:	2b05      	cmp	r3, #5
    8a74:	d90b      	bls.n	8a8e <system__wch_stw__get_next_code__get_utf_32__get_hex.4326+0x2a>
    8a76:	f1a0 0361 	sub.w	r3, r0, #97	; 0x61
    8a7a:	2b05      	cmp	r3, #5
    8a7c:	d817      	bhi.n	8aae <system__wch_stw__get_next_code__get_utf_32__get_hex.4326+0x4a>
    8a7e:	f8dc 300c 	ldr.w	r3, [ip, #12]
    8a82:	eb00 1003 	add.w	r0, r0, r3, lsl #4
    8a86:	3857      	subs	r0, #87	; 0x57
    8a88:	f8cc 000c 	str.w	r0, [ip, #12]
    8a8c:	bd08      	pop	{r3, pc}
    8a8e:	f8dc 300c 	ldr.w	r3, [ip, #12]
    8a92:	eb00 1003 	add.w	r0, r0, r3, lsl #4
    8a96:	3837      	subs	r0, #55	; 0x37
    8a98:	f8cc 000c 	str.w	r0, [ip, #12]
    8a9c:	bd08      	pop	{r3, pc}
    8a9e:	f8dc 300c 	ldr.w	r3, [ip, #12]
    8aa2:	eb00 1003 	add.w	r0, r0, r3, lsl #4
    8aa6:	3830      	subs	r0, #48	; 0x30
    8aa8:	f8cc 000c 	str.w	r0, [ip, #12]
    8aac:	bd08      	pop	{r3, pc}
    8aae:	4802      	ldr	r0, [pc, #8]	; (8ab8 <system__wch_stw__get_next_code__get_utf_32__get_hex.4326+0x54>)
    8ab0:	214d      	movs	r1, #77	; 0x4d
    8ab2:	f7fc fd03 	bl	54bc <__gnat_rcheck_CE_Explicit_Raise>
    8ab6:	bf00      	nop
    8ab8:	0000d488 	.word	0x0000d488

00008abc <system__wch_stw__get_next_code__get_utf_32.4318>:
    8abc:	b570      	push	{r4, r5, r6, lr}
    8abe:	b084      	sub	sp, #16
    8ac0:	b249      	sxtb	r1, r1
    8ac2:	3901      	subs	r1, #1
    8ac4:	4665      	mov	r5, ip
    8ac6:	4604      	mov	r4, r0
    8ac8:	f8cd c000 	str.w	ip, [sp]
    8acc:	2904      	cmp	r1, #4
    8ace:	d85e      	bhi.n	8b8e <system__wch_stw__get_next_code__get_utf_32.4318+0xd2>
    8ad0:	e8df f001 	tbb	[pc, r1]
    8ad4:	4d44563f 	.word	0x4d44563f
    8ad8:	03          	.byte	0x03
    8ad9:	00          	.byte	0x00
    8ada:	0603      	lsls	r3, r0, #24
    8adc:	9002      	str	r0, [sp, #8]
    8ade:	d53a      	bpl.n	8b56 <system__wch_stw__get_next_code__get_utf_32.4318+0x9a>
    8ae0:	f000 03e0 	and.w	r3, r0, #224	; 0xe0
    8ae4:	2bc0      	cmp	r3, #192	; 0xc0
    8ae6:	f000 80ff 	beq.w	8ce8 <system__wch_stw__get_next_code__get_utf_32.4318+0x22c>
    8aea:	f000 03f0 	and.w	r3, r0, #240	; 0xf0
    8aee:	2be0      	cmp	r3, #224	; 0xe0
    8af0:	f000 810b 	beq.w	8d0a <system__wch_stw__get_next_code__get_utf_32.4318+0x24e>
    8af4:	f000 03f8 	and.w	r3, r0, #248	; 0xf8
    8af8:	2bf0      	cmp	r3, #240	; 0xf0
    8afa:	f000 80d6 	beq.w	8caa <system__wch_stw__get_next_code__get_utf_32.4318+0x1ee>
    8afe:	f000 03fc 	and.w	r3, r0, #252	; 0xfc
    8b02:	2bf8      	cmp	r3, #248	; 0xf8
    8b04:	f000 80b2 	beq.w	8c6c <system__wch_stw__get_next_code__get_utf_32.4318+0x1b0>
    8b08:	f000 03fe 	and.w	r3, r0, #254	; 0xfe
    8b0c:	2bfc      	cmp	r3, #252	; 0xfc
    8b0e:	f040 8114 	bne.w	8d3a <system__wch_stw__get_next_code__get_utf_32.4318+0x27e>
    8b12:	f000 0401 	and.w	r4, r0, #1
    8b16:	2605      	movs	r6, #5
    8b18:	9401      	str	r4, [sp, #4]
    8b1a:	f7ff ff85 	bl	8a28 <system__wch_stw__get_next_code__in_char.4314>
    8b1e:	f000 03c0 	and.w	r3, r0, #192	; 0xc0
    8b22:	2b80      	cmp	r3, #128	; 0x80
    8b24:	9002      	str	r0, [sp, #8]
    8b26:	d110      	bne.n	8b4a <system__wch_stw__get_next_code__get_utf_32.4318+0x8e>
    8b28:	9c01      	ldr	r4, [sp, #4]
    8b2a:	f000 003f 	and.w	r0, r0, #63	; 0x3f
    8b2e:	3e01      	subs	r6, #1
    8b30:	ea40 1484 	orr.w	r4, r0, r4, lsl #6
    8b34:	9401      	str	r4, [sp, #4]
    8b36:	d00e      	beq.n	8b56 <system__wch_stw__get_next_code__get_utf_32.4318+0x9a>
    8b38:	f8dd c000 	ldr.w	ip, [sp]
    8b3c:	f7ff ff74 	bl	8a28 <system__wch_stw__get_next_code__in_char.4314>
    8b40:	f000 03c0 	and.w	r3, r0, #192	; 0xc0
    8b44:	2b80      	cmp	r3, #128	; 0x80
    8b46:	9002      	str	r0, [sp, #8]
    8b48:	d0ee      	beq.n	8b28 <system__wch_stw__get_next_code__get_utf_32.4318+0x6c>
    8b4a:	4882      	ldr	r0, [pc, #520]	; (8d54 <system__wch_stw__get_next_code__get_utf_32.4318+0x298>)
    8b4c:	215a      	movs	r1, #90	; 0x5a
    8b4e:	f7fc fcb5 	bl	54bc <__gnat_rcheck_CE_Explicit_Raise>
    8b52:	281b      	cmp	r0, #27
    8b54:	d06f      	beq.n	8c36 <system__wch_stw__get_next_code__get_utf_32.4318+0x17a>
    8b56:	4620      	mov	r0, r4
    8b58:	b004      	add	sp, #16
    8b5a:	bd70      	pop	{r4, r5, r6, pc}
    8b5c:	0601      	lsls	r1, r0, #24
    8b5e:	d5fa      	bpl.n	8b56 <system__wch_stw__get_next_code__get_utf_32.4318+0x9a>
    8b60:	f7ff ff62 	bl	8a28 <system__wch_stw__get_next_code__in_char.4314>
    8b64:	4601      	mov	r1, r0
    8b66:	4620      	mov	r0, r4
    8b68:	f000 fc2a 	bl	93c0 <system__wch_jis__shift_jis_to_jis>
    8b6c:	e7f4      	b.n	8b58 <system__wch_stw__get_next_code__get_utf_32.4318+0x9c>
    8b6e:	0602      	lsls	r2, r0, #24
    8b70:	d5f1      	bpl.n	8b56 <system__wch_stw__get_next_code__get_utf_32.4318+0x9a>
    8b72:	f7ff ff59 	bl	8a28 <system__wch_stw__get_next_code__in_char.4314>
    8b76:	4601      	mov	r1, r0
    8b78:	4620      	mov	r0, r4
    8b7a:	f000 fbab 	bl	92d4 <system__wch_jis__euc_to_jis>
    8b7e:	e7eb      	b.n	8b58 <system__wch_stw__get_next_code__get_utf_32.4318+0x9c>
    8b80:	0620      	lsls	r0, r4, #24
    8b82:	d5e8      	bpl.n	8b56 <system__wch_stw__get_next_code__get_utf_32.4318+0x9a>
    8b84:	f7ff ff50 	bl	8a28 <system__wch_stw__get_next_code__in_char.4314>
    8b88:	eb00 2004 	add.w	r0, r0, r4, lsl #8
    8b8c:	e7e4      	b.n	8b58 <system__wch_stw__get_next_code__get_utf_32.4318+0x9c>
    8b8e:	285b      	cmp	r0, #91	; 0x5b
    8b90:	d1e1      	bne.n	8b56 <system__wch_stw__get_next_code__get_utf_32.4318+0x9a>
    8b92:	f7ff ff49 	bl	8a28 <system__wch_stw__get_next_code__in_char.4314>
    8b96:	2822      	cmp	r0, #34	; 0x22
    8b98:	f040 80cb 	bne.w	8d32 <system__wch_stw__get_next_code__get_utf_32.4318+0x276>
    8b9c:	2300      	movs	r3, #0
    8b9e:	46ac      	mov	ip, r5
    8ba0:	9303      	str	r3, [sp, #12]
    8ba2:	f7ff ff41 	bl	8a28 <system__wch_stw__get_next_code__in_char.4314>
    8ba6:	46ec      	mov	ip, sp
    8ba8:	f7ff ff5c 	bl	8a64 <system__wch_stw__get_next_code__get_utf_32__get_hex.4326>
    8bac:	46ac      	mov	ip, r5
    8bae:	f7ff ff3b 	bl	8a28 <system__wch_stw__get_next_code__in_char.4314>
    8bb2:	46ec      	mov	ip, sp
    8bb4:	f7ff ff56 	bl	8a64 <system__wch_stw__get_next_code__get_utf_32__get_hex.4326>
    8bb8:	46ac      	mov	ip, r5
    8bba:	f7ff ff35 	bl	8a28 <system__wch_stw__get_next_code__in_char.4314>
    8bbe:	2822      	cmp	r0, #34	; 0x22
    8bc0:	d02e      	beq.n	8c20 <system__wch_stw__get_next_code__get_utf_32.4318+0x164>
    8bc2:	46ec      	mov	ip, sp
    8bc4:	f7ff ff4e 	bl	8a64 <system__wch_stw__get_next_code__get_utf_32__get_hex.4326>
    8bc8:	46ac      	mov	ip, r5
    8bca:	f7ff ff2d 	bl	8a28 <system__wch_stw__get_next_code__in_char.4314>
    8bce:	46ec      	mov	ip, sp
    8bd0:	f7ff ff48 	bl	8a64 <system__wch_stw__get_next_code__get_utf_32__get_hex.4326>
    8bd4:	46ac      	mov	ip, r5
    8bd6:	f7ff ff27 	bl	8a28 <system__wch_stw__get_next_code__in_char.4314>
    8bda:	2822      	cmp	r0, #34	; 0x22
    8bdc:	d020      	beq.n	8c20 <system__wch_stw__get_next_code__get_utf_32.4318+0x164>
    8bde:	46ec      	mov	ip, sp
    8be0:	f7ff ff40 	bl	8a64 <system__wch_stw__get_next_code__get_utf_32__get_hex.4326>
    8be4:	46ac      	mov	ip, r5
    8be6:	f7ff ff1f 	bl	8a28 <system__wch_stw__get_next_code__in_char.4314>
    8bea:	46ec      	mov	ip, sp
    8bec:	f7ff ff3a 	bl	8a64 <system__wch_stw__get_next_code__get_utf_32__get_hex.4326>
    8bf0:	46ac      	mov	ip, r5
    8bf2:	f7ff ff19 	bl	8a28 <system__wch_stw__get_next_code__in_char.4314>
    8bf6:	2822      	cmp	r0, #34	; 0x22
    8bf8:	d012      	beq.n	8c20 <system__wch_stw__get_next_code__get_utf_32.4318+0x164>
    8bfa:	46ec      	mov	ip, sp
    8bfc:	f7ff ff32 	bl	8a64 <system__wch_stw__get_next_code__get_utf_32__get_hex.4326>
    8c00:	46ac      	mov	ip, r5
    8c02:	f7ff ff11 	bl	8a28 <system__wch_stw__get_next_code__in_char.4314>
    8c06:	46ec      	mov	ip, sp
    8c08:	f7ff ff2c 	bl	8a64 <system__wch_stw__get_next_code__get_utf_32__get_hex.4326>
    8c0c:	9b03      	ldr	r3, [sp, #12]
    8c0e:	2b00      	cmp	r3, #0
    8c10:	f2c0 809b 	blt.w	8d4a <system__wch_stw__get_next_code__get_utf_32.4318+0x28e>
    8c14:	46ac      	mov	ip, r5
    8c16:	f7ff ff07 	bl	8a28 <system__wch_stw__get_next_code__in_char.4314>
    8c1a:	2822      	cmp	r0, #34	; 0x22
    8c1c:	f040 8091 	bne.w	8d42 <system__wch_stw__get_next_code__get_utf_32.4318+0x286>
    8c20:	46ac      	mov	ip, r5
    8c22:	f7ff ff01 	bl	8a28 <system__wch_stw__get_next_code__in_char.4314>
    8c26:	285d      	cmp	r0, #93	; 0x5d
    8c28:	bf08      	it	eq
    8c2a:	9803      	ldreq	r0, [sp, #12]
    8c2c:	d094      	beq.n	8b58 <system__wch_stw__get_next_code__get_utf_32.4318+0x9c>
    8c2e:	4849      	ldr	r0, [pc, #292]	; (8d54 <system__wch_stw__get_next_code__get_utf_32.4318+0x298>)
    8c30:	21f4      	movs	r1, #244	; 0xf4
    8c32:	f7fc fc43 	bl	54bc <__gnat_rcheck_CE_Explicit_Raise>
    8c36:	2300      	movs	r3, #0
    8c38:	9303      	str	r3, [sp, #12]
    8c3a:	f7ff fef5 	bl	8a28 <system__wch_stw__get_next_code__in_char.4314>
    8c3e:	46ec      	mov	ip, sp
    8c40:	f7ff ff10 	bl	8a64 <system__wch_stw__get_next_code__get_utf_32__get_hex.4326>
    8c44:	46ac      	mov	ip, r5
    8c46:	f7ff feef 	bl	8a28 <system__wch_stw__get_next_code__in_char.4314>
    8c4a:	46ec      	mov	ip, sp
    8c4c:	f7ff ff0a 	bl	8a64 <system__wch_stw__get_next_code__get_utf_32__get_hex.4326>
    8c50:	46ac      	mov	ip, r5
    8c52:	f7ff fee9 	bl	8a28 <system__wch_stw__get_next_code__in_char.4314>
    8c56:	46ec      	mov	ip, sp
    8c58:	f7ff ff04 	bl	8a64 <system__wch_stw__get_next_code__get_utf_32__get_hex.4326>
    8c5c:	46ac      	mov	ip, r5
    8c5e:	f7ff fee3 	bl	8a28 <system__wch_stw__get_next_code__in_char.4314>
    8c62:	46ec      	mov	ip, sp
    8c64:	f7ff fefe 	bl	8a64 <system__wch_stw__get_next_code__get_utf_32__get_hex.4326>
    8c68:	9803      	ldr	r0, [sp, #12]
    8c6a:	e775      	b.n	8b58 <system__wch_stw__get_next_code__get_utf_32.4318+0x9c>
    8c6c:	f000 0403 	and.w	r4, r0, #3
    8c70:	2604      	movs	r6, #4
    8c72:	9401      	str	r4, [sp, #4]
    8c74:	f7ff fed8 	bl	8a28 <system__wch_stw__get_next_code__in_char.4314>
    8c78:	f000 03c0 	and.w	r3, r0, #192	; 0xc0
    8c7c:	2b80      	cmp	r3, #128	; 0x80
    8c7e:	9002      	str	r0, [sp, #8]
    8c80:	f47f af63 	bne.w	8b4a <system__wch_stw__get_next_code__get_utf_32.4318+0x8e>
    8c84:	9c01      	ldr	r4, [sp, #4]
    8c86:	f000 003f 	and.w	r0, r0, #63	; 0x3f
    8c8a:	3e01      	subs	r6, #1
    8c8c:	ea40 1484 	orr.w	r4, r0, r4, lsl #6
    8c90:	9401      	str	r4, [sp, #4]
    8c92:	f43f af60 	beq.w	8b56 <system__wch_stw__get_next_code__get_utf_32.4318+0x9a>
    8c96:	f8dd c000 	ldr.w	ip, [sp]
    8c9a:	f7ff fec5 	bl	8a28 <system__wch_stw__get_next_code__in_char.4314>
    8c9e:	f000 03c0 	and.w	r3, r0, #192	; 0xc0
    8ca2:	2b80      	cmp	r3, #128	; 0x80
    8ca4:	9002      	str	r0, [sp, #8]
    8ca6:	d0ed      	beq.n	8c84 <system__wch_stw__get_next_code__get_utf_32.4318+0x1c8>
    8ca8:	e74f      	b.n	8b4a <system__wch_stw__get_next_code__get_utf_32.4318+0x8e>
    8caa:	f000 0407 	and.w	r4, r0, #7
    8cae:	2603      	movs	r6, #3
    8cb0:	9401      	str	r4, [sp, #4]
    8cb2:	f7ff feb9 	bl	8a28 <system__wch_stw__get_next_code__in_char.4314>
    8cb6:	f000 03c0 	and.w	r3, r0, #192	; 0xc0
    8cba:	2b80      	cmp	r3, #128	; 0x80
    8cbc:	9002      	str	r0, [sp, #8]
    8cbe:	f47f af44 	bne.w	8b4a <system__wch_stw__get_next_code__get_utf_32.4318+0x8e>
    8cc2:	9c01      	ldr	r4, [sp, #4]
    8cc4:	f000 003f 	and.w	r0, r0, #63	; 0x3f
    8cc8:	3e01      	subs	r6, #1
    8cca:	ea40 1484 	orr.w	r4, r0, r4, lsl #6
    8cce:	9401      	str	r4, [sp, #4]
    8cd0:	f43f af41 	beq.w	8b56 <system__wch_stw__get_next_code__get_utf_32.4318+0x9a>
    8cd4:	f8dd c000 	ldr.w	ip, [sp]
    8cd8:	f7ff fea6 	bl	8a28 <system__wch_stw__get_next_code__in_char.4314>
    8cdc:	f000 03c0 	and.w	r3, r0, #192	; 0xc0
    8ce0:	2b80      	cmp	r3, #128	; 0x80
    8ce2:	9002      	str	r0, [sp, #8]
    8ce4:	d0ed      	beq.n	8cc2 <system__wch_stw__get_next_code__get_utf_32.4318+0x206>
    8ce6:	e730      	b.n	8b4a <system__wch_stw__get_next_code__get_utf_32.4318+0x8e>
    8ce8:	f000 041f 	and.w	r4, r0, #31
    8cec:	9401      	str	r4, [sp, #4]
    8cee:	f7ff fe9b 	bl	8a28 <system__wch_stw__get_next_code__in_char.4314>
    8cf2:	f000 03c0 	and.w	r3, r0, #192	; 0xc0
    8cf6:	2b80      	cmp	r3, #128	; 0x80
    8cf8:	9002      	str	r0, [sp, #8]
    8cfa:	f47f af26 	bne.w	8b4a <system__wch_stw__get_next_code__get_utf_32.4318+0x8e>
    8cfe:	9c01      	ldr	r4, [sp, #4]
    8d00:	f000 003f 	and.w	r0, r0, #63	; 0x3f
    8d04:	ea40 1084 	orr.w	r0, r0, r4, lsl #6
    8d08:	e726      	b.n	8b58 <system__wch_stw__get_next_code__get_utf_32.4318+0x9c>
    8d0a:	f000 040f 	and.w	r4, r0, #15
    8d0e:	9401      	str	r4, [sp, #4]
    8d10:	f7ff fe8a 	bl	8a28 <system__wch_stw__get_next_code__in_char.4314>
    8d14:	f000 03c0 	and.w	r3, r0, #192	; 0xc0
    8d18:	2b80      	cmp	r3, #128	; 0x80
    8d1a:	9002      	str	r0, [sp, #8]
    8d1c:	f47f af15 	bne.w	8b4a <system__wch_stw__get_next_code__get_utf_32.4318+0x8e>
    8d20:	9b01      	ldr	r3, [sp, #4]
    8d22:	f000 003f 	and.w	r0, r0, #63	; 0x3f
    8d26:	f8dd c000 	ldr.w	ip, [sp]
    8d2a:	ea40 1383 	orr.w	r3, r0, r3, lsl #6
    8d2e:	9301      	str	r3, [sp, #4]
    8d30:	e7dd      	b.n	8cee <system__wch_stw__get_next_code__get_utf_32.4318+0x232>
    8d32:	4808      	ldr	r0, [pc, #32]	; (8d54 <system__wch_stw__get_next_code__get_utf_32.4318+0x298>)
    8d34:	21cf      	movs	r1, #207	; 0xcf
    8d36:	f7fc fbc1 	bl	54bc <__gnat_rcheck_CE_Explicit_Raise>
    8d3a:	4806      	ldr	r0, [pc, #24]	; (8d54 <system__wch_stw__get_next_code__get_utf_32.4318+0x298>)
    8d3c:	21c6      	movs	r1, #198	; 0xc6
    8d3e:	f7fc fbbd 	bl	54bc <__gnat_rcheck_CE_Explicit_Raise>
    8d42:	4804      	ldr	r0, [pc, #16]	; (8d54 <system__wch_stw__get_next_code__get_utf_32.4318+0x298>)
    8d44:	21ed      	movs	r1, #237	; 0xed
    8d46:	f7fc fbb9 	bl	54bc <__gnat_rcheck_CE_Explicit_Raise>
    8d4a:	4802      	ldr	r0, [pc, #8]	; (8d54 <system__wch_stw__get_next_code__get_utf_32.4318+0x298>)
    8d4c:	21e9      	movs	r1, #233	; 0xe9
    8d4e:	f7fc fbb5 	bl	54bc <__gnat_rcheck_CE_Explicit_Raise>
    8d52:	bf00      	nop
    8d54:	0000d488 	.word	0x0000d488

00008d58 <system__wch_stw__get_next_code>:
    8d58:	b5f0      	push	{r4, r5, r6, r7, lr}
    8d5a:	b087      	sub	sp, #28
    8d5c:	ac06      	add	r4, sp, #24
    8d5e:	f89d 7034 	ldrb.w	r7, [sp, #52]	; 0x34
    8d62:	b279      	sxtb	r1, r7
    8d64:	e964 2306 	strd	r2, r3, [r4, #-24]!
    8d68:	2901      	cmp	r1, #1
    8d6a:	9b01      	ldr	r3, [sp, #4]
    8d6c:	4606      	mov	r6, r0
    8d6e:	9d0c      	ldr	r5, [sp, #48]	; 0x30
    8d70:	9404      	str	r4, [sp, #16]
    8d72:	681a      	ldr	r2, [r3, #0]
    8d74:	9505      	str	r5, [sp, #20]
    8d76:	9203      	str	r2, [sp, #12]
    8d78:	685b      	ldr	r3, [r3, #4]
    8d7a:	d02a      	beq.n	8dd2 <system__wch_stw__get_next_code+0x7a>
    8d7c:	db0d      	blt.n	8d9a <system__wch_stw__get_next_code+0x42>
    8d7e:	2905      	cmp	r1, #5
    8d80:	dc0b      	bgt.n	8d9a <system__wch_stw__get_next_code+0x42>
    8d82:	1aaa      	subs	r2, r5, r2
    8d84:	9b00      	ldr	r3, [sp, #0]
    8d86:	5c9b      	ldrb	r3, [r3, r2]
    8d88:	061a      	lsls	r2, r3, #24
    8d8a:	d417      	bmi.n	8dbc <system__wch_stw__get_next_code+0x64>
    8d8c:	1c6c      	adds	r4, r5, #1
    8d8e:	4618      	mov	r0, r3
    8d90:	6034      	str	r4, [r6, #0]
    8d92:	6070      	str	r0, [r6, #4]
    8d94:	4630      	mov	r0, r6
    8d96:	b007      	add	sp, #28
    8d98:	bdf0      	pop	{r4, r5, r6, r7, pc}
    8d9a:	1c6c      	adds	r4, r5, #1
    8d9c:	42a3      	cmp	r3, r4
    8d9e:	dd1e      	ble.n	8dde <system__wch_stw__get_next_code+0x86>
    8da0:	9900      	ldr	r1, [sp, #0]
    8da2:	1aab      	subs	r3, r5, r2
    8da4:	5ccb      	ldrb	r3, [r1, r3]
    8da6:	2b5b      	cmp	r3, #91	; 0x5b
    8da8:	d1f1      	bne.n	8d8e <system__wch_stw__get_next_code+0x36>
    8daa:	1aa0      	subs	r0, r4, r2
    8dac:	5c08      	ldrb	r0, [r1, r0]
    8dae:	2822      	cmp	r0, #34	; 0x22
    8db0:	d1ed      	bne.n	8d8e <system__wch_stw__get_next_code+0x36>
    8db2:	3502      	adds	r5, #2
    8db4:	1aaa      	subs	r2, r5, r2
    8db6:	5c8a      	ldrb	r2, [r1, r2]
    8db8:	2a22      	cmp	r2, #34	; 0x22
    8dba:	d0e8      	beq.n	8d8e <system__wch_stw__get_next_code+0x36>
    8dbc:	f10d 0c0c 	add.w	ip, sp, #12
    8dc0:	f7ff fe32 	bl	8a28 <system__wch_stw__get_next_code__in_char.4314>
    8dc4:	f10d 0c0c 	add.w	ip, sp, #12
    8dc8:	4639      	mov	r1, r7
    8dca:	f7ff fe77 	bl	8abc <system__wch_stw__get_next_code__get_utf_32.4318>
    8dce:	9c05      	ldr	r4, [sp, #20]
    8dd0:	e7de      	b.n	8d90 <system__wch_stw__get_next_code+0x38>
    8dd2:	1aaa      	subs	r2, r5, r2
    8dd4:	9b00      	ldr	r3, [sp, #0]
    8dd6:	5c9b      	ldrb	r3, [r3, r2]
    8dd8:	2b1b      	cmp	r3, #27
    8dda:	d1d7      	bne.n	8d8c <system__wch_stw__get_next_code+0x34>
    8ddc:	e7ee      	b.n	8dbc <system__wch_stw__get_next_code+0x64>
    8dde:	1aaa      	subs	r2, r5, r2
    8de0:	9b00      	ldr	r3, [sp, #0]
    8de2:	5c9b      	ldrb	r3, [r3, r2]
    8de4:	e7d3      	b.n	8d8e <system__wch_stw__get_next_code+0x36>
    8de6:	bf00      	nop

00008de8 <system__wch_stw__string_to_wide_string>:
    8de8:	e92d 4ff0 	stmdb	sp!, {r4, r5, r6, r7, r8, r9, sl, fp, lr}
    8dec:	b085      	sub	sp, #20
    8dee:	f8d3 9000 	ldr.w	r9, [r3]
    8df2:	f89d a038 	ldrb.w	sl, [sp, #56]	; 0x38
    8df6:	680c      	ldr	r4, [r1, #0]
    8df8:	684b      	ldr	r3, [r1, #4]
    8dfa:	429c      	cmp	r4, r3
    8dfc:	dc1e      	bgt.n	8e3c <system__wch_stw__string_to_wide_string+0x54>
    8dfe:	4690      	mov	r8, r2
    8e00:	4607      	mov	r7, r0
    8e02:	460e      	mov	r6, r1
    8e04:	f04f 0b00 	mov.w	fp, #0
    8e08:	9400      	str	r4, [sp, #0]
    8e0a:	a802      	add	r0, sp, #8
    8e0c:	f8cd a004 	str.w	sl, [sp, #4]
    8e10:	463a      	mov	r2, r7
    8e12:	4633      	mov	r3, r6
    8e14:	f7ff ffa0 	bl	8d58 <system__wch_stw__get_next_code>
    8e18:	9d03      	ldr	r5, [sp, #12]
    8e1a:	9c02      	ldr	r4, [sp, #8]
    8e1c:	f5b5 3f80 	cmp.w	r5, #65536	; 0x10000
    8e20:	da0e      	bge.n	8e40 <system__wch_stw__string_to_wide_string+0x58>
    8e22:	6873      	ldr	r3, [r6, #4]
    8e24:	f10b 0001 	add.w	r0, fp, #1
    8e28:	ebc9 0200 	rsb	r2, r9, r0
    8e2c:	429c      	cmp	r4, r3
    8e2e:	4683      	mov	fp, r0
    8e30:	f828 5012 	strh.w	r5, [r8, r2, lsl #1]
    8e34:	dde8      	ble.n	8e08 <system__wch_stw__string_to_wide_string+0x20>
    8e36:	b005      	add	sp, #20
    8e38:	e8bd 8ff0 	ldmia.w	sp!, {r4, r5, r6, r7, r8, r9, sl, fp, pc}
    8e3c:	2000      	movs	r0, #0
    8e3e:	e7fa      	b.n	8e36 <system__wch_stw__string_to_wide_string+0x4e>
    8e40:	4a04      	ldr	r2, [pc, #16]	; (8e54 <system__wch_stw__string_to_wide_string+0x6c>)
    8e42:	f240 101c 	movw	r0, #284	; 0x11c
    8e46:	f6c0 0000 	movt	r0, #2048	; 0x800
    8e4a:	f102 034c 	add.w	r3, r2, #76	; 0x4c
    8e4e:	f7fc f98f 	bl	5170 <__gnat_raise_exception>
    8e52:	bf00      	nop
    8e54:	0000d498 	.word	0x0000d498

00008e58 <system__wch_stw__string_to_wide_wide_string>:
    8e58:	e92d 47f0 	stmdb	sp!, {r4, r5, r6, r7, r8, r9, sl, lr}
    8e5c:	b084      	sub	sp, #16
    8e5e:	f8d3 9000 	ldr.w	r9, [r3]
    8e62:	f89d a030 	ldrb.w	sl, [sp, #48]	; 0x30
    8e66:	680c      	ldr	r4, [r1, #0]
    8e68:	684b      	ldr	r3, [r1, #4]
    8e6a:	429c      	cmp	r4, r3
    8e6c:	dc19      	bgt.n	8ea2 <system__wch_stw__string_to_wide_wide_string+0x4a>
    8e6e:	4690      	mov	r8, r2
    8e70:	4607      	mov	r7, r0
    8e72:	460d      	mov	r5, r1
    8e74:	2600      	movs	r6, #0
    8e76:	9400      	str	r4, [sp, #0]
    8e78:	a802      	add	r0, sp, #8
    8e7a:	463a      	mov	r2, r7
    8e7c:	462b      	mov	r3, r5
    8e7e:	f8cd a004 	str.w	sl, [sp, #4]
    8e82:	f7ff ff69 	bl	8d58 <system__wch_stw__get_next_code>
    8e86:	686a      	ldr	r2, [r5, #4]
    8e88:	9c02      	ldr	r4, [sp, #8]
    8e8a:	1c70      	adds	r0, r6, #1
    8e8c:	ebc9 0100 	rsb	r1, r9, r0
    8e90:	4294      	cmp	r4, r2
    8e92:	9b03      	ldr	r3, [sp, #12]
    8e94:	4606      	mov	r6, r0
    8e96:	f848 3021 	str.w	r3, [r8, r1, lsl #2]
    8e9a:	ddec      	ble.n	8e76 <system__wch_stw__string_to_wide_wide_string+0x1e>
    8e9c:	b004      	add	sp, #16
    8e9e:	e8bd 87f0 	ldmia.w	sp!, {r4, r5, r6, r7, r8, r9, sl, pc}
    8ea2:	2000      	movs	r0, #0
    8ea4:	e7fa      	b.n	8e9c <system__wch_stw__string_to_wide_wide_string+0x44>
    8ea6:	bf00      	nop

00008ea8 <system__exceptions__machine__Texception_classBIP>:
    8ea8:	4770      	bx	lr
    8eaa:	bf00      	nop

00008eac <system__exceptions__machine__uint32_t_arrayIP>:
    8eac:	4770      	bx	lr
    8eae:	bf00      	nop

00008eb0 <system__exceptions__machine__unwinder_cache_typeIP>:
    8eb0:	4770      	bx	lr
    8eb2:	bf00      	nop

00008eb4 <system__exceptions__machine__barrier_cache_typeIP>:
    8eb4:	4770      	bx	lr
    8eb6:	bf00      	nop

00008eb8 <system__exceptions__machine__cleanup_cache_typeIP>:
    8eb8:	4770      	bx	lr
    8eba:	bf00      	nop

00008ebc <system__exceptions__machine__pr_cache_typeIP>:
    8ebc:	4770      	bx	lr
    8ebe:	bf00      	nop

00008ec0 <system__exceptions__machine__unwind_control_blockIP>:
    8ec0:	4770      	bx	lr
    8ec2:	bf00      	nop

00008ec4 <system__exceptions__machine__gnat_gcc_exceptionIP>:
    8ec4:	2300      	movs	r3, #0
    8ec6:	6583      	str	r3, [r0, #88]	; 0x58
    8ec8:	6603      	str	r3, [r0, #96]	; 0x60
    8eca:	f880 312c 	strb.w	r3, [r0, #300]	; 0x12c
    8ece:	f8c0 3130 	str.w	r3, [r0, #304]	; 0x130
    8ed2:	f8c0 3134 	str.w	r3, [r0, #308]	; 0x134
    8ed6:	4770      	bx	lr

00008ed8 <system__exceptions__machine__new_occurrence>:
    8ed8:	b510      	push	{r4, lr}
    8eda:	f44f 7000 	mov.w	r0, #512	; 0x200
    8ede:	f7ff fa37 	bl	8350 <__gnat_malloc>
    8ee2:	f24d 41f0 	movw	r1, #54512	; 0xd4f0
    8ee6:	2258      	movs	r2, #88	; 0x58
    8ee8:	f2c0 0100 	movt	r1, #0
    8eec:	4604      	mov	r4, r0
    8eee:	f7f8 fff9 	bl	1ee4 <memcpy>
    8ef2:	2300      	movs	r3, #0
    8ef4:	65a3      	str	r3, [r4, #88]	; 0x58
    8ef6:	6623      	str	r3, [r4, #96]	; 0x60
    8ef8:	f884 312c 	strb.w	r3, [r4, #300]	; 0x12c
    8efc:	f8c4 3130 	str.w	r3, [r4, #304]	; 0x130
    8f00:	f8c4 3134 	str.w	r3, [r4, #308]	; 0x134
    8f04:	4620      	mov	r0, r4
    8f06:	bd10      	pop	{r4, pc}

00008f08 <system__c__malloc__add_free_cell>:
    8f08:	f240 2308 	movw	r3, #520	; 0x208
    8f0c:	f6c0 0300 	movt	r3, #2048	; 0x800
    8f10:	6819      	ldr	r1, [r3, #0]
    8f12:	b321      	cbz	r1, 8f5e <system__c__malloc__add_free_cell+0x56>
    8f14:	b410      	push	{r4}
    8f16:	684a      	ldr	r2, [r1, #4]
    8f18:	6844      	ldr	r4, [r0, #4]
    8f1a:	f3c2 021e 	ubfx	r2, r2, #0, #31
    8f1e:	f3c4 041e 	ubfx	r4, r4, #0, #31
    8f22:	4294      	cmp	r4, r2
    8f24:	d806      	bhi.n	8f34 <system__c__malloc__add_free_cell+0x2c>
    8f26:	e012      	b.n	8f4e <system__c__malloc__add_free_cell+0x46>
    8f28:	685a      	ldr	r2, [r3, #4]
    8f2a:	f3c2 021e 	ubfx	r2, r2, #0, #31
    8f2e:	42a2      	cmp	r2, r4
    8f30:	d206      	bcs.n	8f40 <system__c__malloc__add_free_cell+0x38>
    8f32:	4619      	mov	r1, r3
    8f34:	68cb      	ldr	r3, [r1, #12]
    8f36:	2b00      	cmp	r3, #0
    8f38:	d1f6      	bne.n	8f28 <system__c__malloc__add_free_cell+0x20>
    8f3a:	6081      	str	r1, [r0, #8]
    8f3c:	60c3      	str	r3, [r0, #12]
    8f3e:	e002      	b.n	8f46 <system__c__malloc__add_free_cell+0x3e>
    8f40:	6081      	str	r1, [r0, #8]
    8f42:	60c3      	str	r3, [r0, #12]
    8f44:	6098      	str	r0, [r3, #8]
    8f46:	60c8      	str	r0, [r1, #12]
    8f48:	f85d 4b04 	ldr.w	r4, [sp], #4
    8f4c:	4770      	bx	lr
    8f4e:	2200      	movs	r2, #0
    8f50:	60c1      	str	r1, [r0, #12]
    8f52:	6082      	str	r2, [r0, #8]
    8f54:	6018      	str	r0, [r3, #0]
    8f56:	6088      	str	r0, [r1, #8]
    8f58:	f85d 4b04 	ldr.w	r4, [sp], #4
    8f5c:	4770      	bx	lr
    8f5e:	6081      	str	r1, [r0, #8]
    8f60:	60c1      	str	r1, [r0, #12]
    8f62:	6018      	str	r0, [r3, #0]
    8f64:	4770      	bx	lr
    8f66:	bf00      	nop

00008f68 <system__c__malloc__cell_typeIP>:
    8f68:	2300      	movs	r3, #0
    8f6a:	6003      	str	r3, [r0, #0]
    8f6c:	4770      	bx	lr
    8f6e:	bf00      	nop

00008f70 <system__c__malloc__free_cell_typeIP>:
    8f70:	2300      	movs	r3, #0
    8f72:	6003      	str	r3, [r0, #0]
    8f74:	6083      	str	r3, [r0, #8]
    8f76:	60c3      	str	r3, [r0, #12]
    8f78:	4770      	bx	lr
    8f7a:	bf00      	nop

00008f7c <malloc>:
    8f7c:	b5f8      	push	{r3, r4, r5, r6, r7, lr}
    8f7e:	2800      	cmp	r0, #0
    8f80:	d048      	beq.n	9014 <malloc+0x98>
    8f82:	f240 2108 	movw	r1, #520	; 0x208
    8f86:	3008      	adds	r0, #8
    8f88:	f6c0 0100 	movt	r1, #2048	; 0x800
    8f8c:	f020 0207 	bic.w	r2, r0, #7
    8f90:	680c      	ldr	r4, [r1, #0]
    8f92:	b914      	cbnz	r4, 8f9a <malloc+0x1e>
    8f94:	e01c      	b.n	8fd0 <malloc+0x54>
    8f96:	68e4      	ldr	r4, [r4, #12]
    8f98:	b1d4      	cbz	r4, 8fd0 <malloc+0x54>
    8f9a:	6863      	ldr	r3, [r4, #4]
    8f9c:	f3c3 031e 	ubfx	r3, r3, #0, #31
    8fa0:	429a      	cmp	r2, r3
    8fa2:	d8f8      	bhi.n	8f96 <malloc+0x1a>
    8fa4:	68e3      	ldr	r3, [r4, #12]
    8fa6:	b10b      	cbz	r3, 8fac <malloc+0x30>
    8fa8:	68a0      	ldr	r0, [r4, #8]
    8faa:	6098      	str	r0, [r3, #8]
    8fac:	68a0      	ldr	r0, [r4, #8]
    8fae:	2800      	cmp	r0, #0
    8fb0:	d053      	beq.n	905a <malloc+0xde>
    8fb2:	60c3      	str	r3, [r0, #12]
    8fb4:	6863      	ldr	r3, [r4, #4]
    8fb6:	f104 0508 	add.w	r5, r4, #8
    8fba:	f3c3 031e 	ubfx	r3, r3, #0, #31
    8fbe:	1a99      	subs	r1, r3, r2
    8fc0:	290f      	cmp	r1, #15
    8fc2:	d82d      	bhi.n	9020 <malloc+0xa4>
    8fc4:	79e3      	ldrb	r3, [r4, #7]
    8fc6:	f36f 13c7 	bfc	r3, #7, #1
    8fca:	71e3      	strb	r3, [r4, #7]
    8fcc:	4628      	mov	r0, r5
    8fce:	bdf8      	pop	{r3, r4, r5, r6, r7, pc}
    8fd0:	f240 260c 	movw	r6, #524	; 0x20c
    8fd4:	f6c0 0600 	movt	r6, #2048	; 0x800
    8fd8:	6834      	ldr	r4, [r6, #0]
    8fda:	2c00      	cmp	r4, #0
    8fdc:	d038      	beq.n	9050 <malloc+0xd4>
    8fde:	6863      	ldr	r3, [r4, #4]
    8fe0:	f3c3 031e 	ubfx	r3, r3, #0, #31
    8fe4:	4423      	add	r3, r4
    8fe6:	3308      	adds	r3, #8
    8fe8:	685f      	ldr	r7, [r3, #4]
    8fea:	f020 4100 	bic.w	r1, r0, #2147483648	; 0x80000000
    8fee:	f021 0107 	bic.w	r1, r1, #7
    8ff2:	f362 071e 	bfi	r7, r2, #0, #31
    8ff6:	f103 0508 	add.w	r5, r3, #8
    8ffa:	f248 0200 	movw	r2, #32768	; 0x8000
    8ffe:	0e38      	lsrs	r0, r7, #24
    9000:	4429      	add	r1, r5
    9002:	f6c0 0201 	movt	r2, #2049	; 0x801
    9006:	f36f 10c7 	bfc	r0, #7, #1
    900a:	4291      	cmp	r1, r2
    900c:	e883 0090 	stmia.w	r3, {r4, r7}
    9010:	71d8      	strb	r0, [r3, #7]
    9012:	d902      	bls.n	901a <malloc+0x9e>
    9014:	2500      	movs	r5, #0
    9016:	4628      	mov	r0, r5
    9018:	bdf8      	pop	{r3, r4, r5, r6, r7, pc}
    901a:	6033      	str	r3, [r6, #0]
    901c:	4628      	mov	r0, r5
    901e:	bdf8      	pop	{r3, r4, r5, r6, r7, pc}
    9020:	18ae      	adds	r6, r5, r2
    9022:	3908      	subs	r1, #8
    9024:	50ac      	str	r4, [r5, r2]
    9026:	4630      	mov	r0, r6
    9028:	6877      	ldr	r7, [r6, #4]
    902a:	f361 071e 	bfi	r7, r1, #0, #31
    902e:	0e39      	lsrs	r1, r7, #24
    9030:	f041 0180 	orr.w	r1, r1, #128	; 0x80
    9034:	6077      	str	r7, [r6, #4]
    9036:	71f1      	strb	r1, [r6, #7]
    9038:	6861      	ldr	r1, [r4, #4]
    903a:	50ee      	str	r6, [r5, r3]
    903c:	f362 011e 	bfi	r1, r2, #0, #31
    9040:	6061      	str	r1, [r4, #4]
    9042:	f7ff ff61 	bl	8f08 <system__c__malloc__add_free_cell>
    9046:	79e3      	ldrb	r3, [r4, #7]
    9048:	f36f 13c7 	bfc	r3, #7, #1
    904c:	71e3      	strb	r3, [r4, #7]
    904e:	e7bd      	b.n	8fcc <malloc+0x50>
    9050:	f249 73f0 	movw	r3, #38896	; 0x97f0
    9054:	f6c0 0300 	movt	r3, #2048	; 0x800
    9058:	e7c6      	b.n	8fe8 <malloc+0x6c>
    905a:	600b      	str	r3, [r1, #0]
    905c:	e7aa      	b.n	8fb4 <malloc+0x38>
    905e:	bf00      	nop

00009060 <free>:
    9060:	2800      	cmp	r0, #0
    9062:	d054      	beq.n	910e <free+0xae>
    9064:	b470      	push	{r4, r5, r6}
    9066:	f810 2c01 	ldrb.w	r2, [r0, #-1]
    906a:	f240 210c 	movw	r1, #524	; 0x20c
    906e:	f1a0 0308 	sub.w	r3, r0, #8
    9072:	f6c0 0100 	movt	r1, #2048	; 0x800
    9076:	f042 0280 	orr.w	r2, r2, #128	; 0x80
    907a:	71da      	strb	r2, [r3, #7]
    907c:	680c      	ldr	r4, [r1, #0]
    907e:	42a3      	cmp	r3, r4
    9080:	d046      	beq.n	9110 <free+0xb0>
    9082:	685a      	ldr	r2, [r3, #4]
    9084:	f3c2 021e 	ubfx	r2, r2, #0, #31
    9088:	4402      	add	r2, r0
    908a:	79d5      	ldrb	r5, [r2, #7]
    908c:	09ed      	lsrs	r5, r5, #7
    908e:	d019      	beq.n	90c4 <free+0x64>
    9090:	68d5      	ldr	r5, [r2, #12]
    9092:	b10d      	cbz	r5, 9098 <free+0x38>
    9094:	6896      	ldr	r6, [r2, #8]
    9096:	60ae      	str	r6, [r5, #8]
    9098:	6896      	ldr	r6, [r2, #8]
    909a:	2e00      	cmp	r6, #0
    909c:	d050      	beq.n	9140 <free+0xe0>
    909e:	60f5      	str	r5, [r6, #12]
    90a0:	4294      	cmp	r4, r2
    90a2:	bf1f      	itttt	ne
    90a4:	6854      	ldrne	r4, [r2, #4]
    90a6:	f3c4 041e 	ubfxne	r4, r4, #0, #31
    90aa:	18a4      	addne	r4, r4, r2
    90ac:	60a3      	strne	r3, [r4, #8]
    90ae:	685c      	ldr	r4, [r3, #4]
    90b0:	6852      	ldr	r2, [r2, #4]
    90b2:	f3c4 051e 	ubfx	r5, r4, #0, #31
    90b6:	f3c2 021e 	ubfx	r2, r2, #0, #31
    90ba:	442a      	add	r2, r5
    90bc:	3208      	adds	r2, #8
    90be:	f362 041e 	bfi	r4, r2, #0, #31
    90c2:	605c      	str	r4, [r3, #4]
    90c4:	f850 2c08 	ldr.w	r2, [r0, #-8]
    90c8:	b1ea      	cbz	r2, 9106 <free+0xa6>
    90ca:	79d4      	ldrb	r4, [r2, #7]
    90cc:	09e4      	lsrs	r4, r4, #7
    90ce:	d01a      	beq.n	9106 <free+0xa6>
    90d0:	68d4      	ldr	r4, [r2, #12]
    90d2:	b10c      	cbz	r4, 90d8 <free+0x78>
    90d4:	6895      	ldr	r5, [r2, #8]
    90d6:	60a5      	str	r5, [r4, #8]
    90d8:	6895      	ldr	r5, [r2, #8]
    90da:	2d00      	cmp	r5, #0
    90dc:	d02a      	beq.n	9134 <free+0xd4>
    90de:	60ec      	str	r4, [r5, #12]
    90e0:	6809      	ldr	r1, [r1, #0]
    90e2:	428b      	cmp	r3, r1
    90e4:	bf1e      	ittt	ne
    90e6:	6859      	ldrne	r1, [r3, #4]
    90e8:	f3c1 011e 	ubfxne	r1, r1, #0, #31
    90ec:	5042      	strne	r2, [r0, r1]
    90ee:	6859      	ldr	r1, [r3, #4]
    90f0:	4613      	mov	r3, r2
    90f2:	6850      	ldr	r0, [r2, #4]
    90f4:	f3c1 011e 	ubfx	r1, r1, #0, #31
    90f8:	f3c0 041e 	ubfx	r4, r0, #0, #31
    90fc:	4421      	add	r1, r4
    90fe:	3108      	adds	r1, #8
    9100:	f361 001e 	bfi	r0, r1, #0, #31
    9104:	6050      	str	r0, [r2, #4]
    9106:	4618      	mov	r0, r3
    9108:	bc70      	pop	{r4, r5, r6}
    910a:	f7ff befd 	b.w	8f08 <system__c__malloc__add_free_cell>
    910e:	4770      	bx	lr
    9110:	f850 3c08 	ldr.w	r3, [r0, #-8]
    9114:	600b      	str	r3, [r1, #0]
    9116:	b15b      	cbz	r3, 9130 <free+0xd0>
    9118:	79da      	ldrb	r2, [r3, #7]
    911a:	09d2      	lsrs	r2, r2, #7
    911c:	d008      	beq.n	9130 <free+0xd0>
    911e:	68da      	ldr	r2, [r3, #12]
    9120:	b10a      	cbz	r2, 9126 <free+0xc6>
    9122:	6898      	ldr	r0, [r3, #8]
    9124:	6090      	str	r0, [r2, #8]
    9126:	6898      	ldr	r0, [r3, #8]
    9128:	b180      	cbz	r0, 914c <free+0xec>
    912a:	60c2      	str	r2, [r0, #12]
    912c:	681b      	ldr	r3, [r3, #0]
    912e:	600b      	str	r3, [r1, #0]
    9130:	bc70      	pop	{r4, r5, r6}
    9132:	4770      	bx	lr
    9134:	f240 2508 	movw	r5, #520	; 0x208
    9138:	f6c0 0500 	movt	r5, #2048	; 0x800
    913c:	602c      	str	r4, [r5, #0]
    913e:	e7cf      	b.n	90e0 <free+0x80>
    9140:	f240 2608 	movw	r6, #520	; 0x208
    9144:	f6c0 0600 	movt	r6, #2048	; 0x800
    9148:	6035      	str	r5, [r6, #0]
    914a:	e7a9      	b.n	90a0 <free+0x40>
    914c:	f240 2008 	movw	r0, #520	; 0x208
    9150:	f6c0 0000 	movt	r0, #2048	; 0x800
    9154:	6002      	str	r2, [r0, #0]
    9156:	e7e9      	b.n	912c <free+0xcc>

00009158 <system__c__malloc__get_first_cell>:
    9158:	f249 70f0 	movw	r0, #38896	; 0x97f0
    915c:	f6c0 0000 	movt	r0, #2048	; 0x800
    9160:	4770      	bx	lr
    9162:	bf00      	nop

00009164 <system__c__malloc__get_next_cell>:
    9164:	6843      	ldr	r3, [r0, #4]
    9166:	f3c3 031e 	ubfx	r3, r3, #0, #31
    916a:	3308      	adds	r3, #8
    916c:	4418      	add	r0, r3
    916e:	4770      	bx	lr

00009170 <realloc>:
    9170:	b508      	push	{r3, lr}
    9172:	f24d 6004 	movw	r0, #54788	; 0xd604
    9176:	f44f 71ae 	mov.w	r1, #348	; 0x15c
    917a:	f2c0 0000 	movt	r0, #0
    917e:	f7fc fa2d 	bl	55dc <__gnat_rcheck_PE_Explicit_Raise>
    9182:	bf00      	nop

00009184 <system__traceback__backtrace_callback>:
    9184:	694b      	ldr	r3, [r1, #20]
    9186:	2b00      	cmp	r3, #0
    9188:	dd03      	ble.n	9192 <system__traceback__backtrace_callback+0xe>
    918a:	3b01      	subs	r3, #1
    918c:	2000      	movs	r0, #0
    918e:	614b      	str	r3, [r1, #20]
    9190:	4770      	bx	lr
    9192:	688a      	ldr	r2, [r1, #8]
    9194:	684b      	ldr	r3, [r1, #4]
    9196:	429a      	cmp	r2, r3
    9198:	db01      	blt.n	919e <system__traceback__backtrace_callback+0x1a>
    919a:	2000      	movs	r0, #0
    919c:	4770      	bx	lr
    919e:	b530      	push	{r4, r5, lr}
    91a0:	b085      	sub	sp, #20
    91a2:	ab03      	add	r3, sp, #12
    91a4:	460c      	mov	r4, r1
    91a6:	2100      	movs	r1, #0
    91a8:	9300      	str	r3, [sp, #0]
    91aa:	220f      	movs	r2, #15
    91ac:	460b      	mov	r3, r1
    91ae:	f000 fc0d 	bl	99cc <_Unwind_VRS_Get>
    91b2:	b110      	cbz	r0, 91ba <system__traceback__backtrace_callback+0x36>
    91b4:	2006      	movs	r0, #6
    91b6:	b005      	add	sp, #20
    91b8:	bd30      	pop	{r4, r5, pc}
    91ba:	68e2      	ldr	r2, [r4, #12]
    91bc:	9b03      	ldr	r3, [sp, #12]
    91be:	429a      	cmp	r2, r3
    91c0:	d804      	bhi.n	91cc <system__traceback__backtrace_callback+0x48>
    91c2:	6922      	ldr	r2, [r4, #16]
    91c4:	4293      	cmp	r3, r2
    91c6:	bf98      	it	ls
    91c8:	2000      	movls	r0, #0
    91ca:	d9f4      	bls.n	91b6 <system__traceback__backtrace_callback+0x32>
    91cc:	68a2      	ldr	r2, [r4, #8]
    91ce:	2000      	movs	r0, #0
    91d0:	6821      	ldr	r1, [r4, #0]
    91d2:	1c55      	adds	r5, r2, #1
    91d4:	60a5      	str	r5, [r4, #8]
    91d6:	f841 3022 	str.w	r3, [r1, r2, lsl #2]
    91da:	e7ec      	b.n	91b6 <system__traceback__backtrace_callback+0x32>

000091dc <system__traceback__unwind_context_typeIP>:
    91dc:	b082      	sub	sp, #8
    91de:	b002      	add	sp, #8
    91e0:	4770      	bx	lr
    91e2:	bf00      	nop

000091e4 <system__traceback__callback_params_typeIP>:
    91e4:	2300      	movs	r3, #0
    91e6:	6003      	str	r3, [r0, #0]
    91e8:	4770      	bx	lr
    91ea:	bf00      	nop

000091ec <system__traceback__call_chain>:
    91ec:	b570      	push	{r4, r5, r6, lr}
    91ee:	b086      	sub	sp, #24
    91f0:	990b      	ldr	r1, [sp, #44]	; 0x2c
    91f2:	2600      	movs	r6, #0
    91f4:	9000      	str	r0, [sp, #0]
    91f6:	f249 1085 	movw	r0, #37253	; 0x9185
    91fa:	1c4c      	adds	r4, r1, #1
    91fc:	9d0a      	ldr	r5, [sp, #40]	; 0x28
    91fe:	4669      	mov	r1, sp
    9200:	f2c0 0000 	movt	r0, #0
    9204:	9201      	str	r2, [sp, #4]
    9206:	9303      	str	r3, [sp, #12]
    9208:	9405      	str	r4, [sp, #20]
    920a:	9602      	str	r6, [sp, #8]
    920c:	9504      	str	r5, [sp, #16]
    920e:	f001 f825 	bl	a25c <_Unwind_Backtrace>
    9212:	9802      	ldr	r0, [sp, #8]
    9214:	b006      	add	sp, #24
    9216:	bd70      	pop	{r4, r5, r6, pc}

00009218 <system__io__put__2>:
    9218:	b510      	push	{r4, lr}
    921a:	f240 13ee 	movw	r3, #494	; 0x1ee
    921e:	4604      	mov	r4, r0
    9220:	f6c0 0300 	movt	r3, #2048	; 0x800
    9224:	781b      	ldrb	r3, [r3, #0]
    9226:	b143      	cbz	r3, 923a <system__io__put__2+0x22>
    9228:	f7fe fe80 	bl	7f2c <system__text_io__is_tx_ready>
    922c:	2800      	cmp	r0, #0
    922e:	d0fb      	beq.n	9228 <system__io__put__2+0x10>
    9230:	4620      	mov	r0, r4
    9232:	e8bd 4010 	ldmia.w	sp!, {r4, lr}
    9236:	f7fe be89 	b.w	7f4c <system__text_io__put>
    923a:	f7fe fe3b 	bl	7eb4 <system__text_io__initialize>
    923e:	e7f3      	b.n	9228 <system__io__put__2+0x10>

00009240 <system__io__new_line>:
    9240:	b538      	push	{r3, r4, r5, lr}
    9242:	2400      	movs	r4, #0
    9244:	4605      	mov	r5, r0
    9246:	e004      	b.n	9252 <system__io__new_line+0x12>
    9248:	200a      	movs	r0, #10
    924a:	f7ff ffe5 	bl	9218 <system__io__put__2>
    924e:	42ac      	cmp	r4, r5
    9250:	d00c      	beq.n	926c <system__io__new_line+0x2c>
    9252:	3401      	adds	r4, #1
    9254:	f7fe fe80 	bl	7f58 <system__text_io__use_cr_lf_for_new_line>
    9258:	2800      	cmp	r0, #0
    925a:	d0f5      	beq.n	9248 <system__io__new_line+0x8>
    925c:	200d      	movs	r0, #13
    925e:	f7ff ffdb 	bl	9218 <system__io__put__2>
    9262:	200a      	movs	r0, #10
    9264:	f7ff ffd8 	bl	9218 <system__io__put__2>
    9268:	42ac      	cmp	r4, r5
    926a:	d1f2      	bne.n	9252 <system__io__new_line+0x12>
    926c:	bd38      	pop	{r3, r4, r5, pc}
    926e:	bf00      	nop

00009270 <system__io__put__3>:
    9270:	b570      	push	{r4, r5, r6, lr}
    9272:	e891 0050 	ldmia.w	r1, {r4, r6}
    9276:	42b4      	cmp	r4, r6
    9278:	dc07      	bgt.n	928a <system__io__put__3+0x1a>
    927a:	1b05      	subs	r5, r0, r4
    927c:	3c01      	subs	r4, #1
    927e:	3401      	adds	r4, #1
    9280:	5d28      	ldrb	r0, [r5, r4]
    9282:	f7ff ffc9 	bl	9218 <system__io__put__2>
    9286:	42b4      	cmp	r4, r6
    9288:	d1f9      	bne.n	927e <system__io__put__3+0xe>
    928a:	bd70      	pop	{r4, r5, r6, pc}

0000928c <system__io__put>:
    928c:	b500      	push	{lr}
    928e:	b087      	sub	sp, #28
    9290:	f24d 6314 	movw	r3, #54804	; 0xd614
    9294:	aa03      	add	r2, sp, #12
    9296:	f2c0 0300 	movt	r3, #0
    929a:	f7fa fda7 	bl	3dec <system__img_int__image_integer>
    929e:	2301      	movs	r3, #1
    92a0:	a901      	add	r1, sp, #4
    92a2:	9301      	str	r3, [sp, #4]
    92a4:	9002      	str	r0, [sp, #8]
    92a6:	a803      	add	r0, sp, #12
    92a8:	f7ff ffe2 	bl	9270 <system__io__put__3>
    92ac:	b007      	add	sp, #28
    92ae:	f85d fb04 	ldr.w	pc, [sp], #4
    92b2:	bf00      	nop

000092b4 <put_char_stderr>:
    92b4:	f7ff bfb0 	b.w	9218 <system__io__put__2>

000092b8 <system__io__put_line>:
    92b8:	b508      	push	{r3, lr}
    92ba:	f7ff ffd9 	bl	9270 <system__io__put__3>
    92be:	2001      	movs	r0, #1
    92c0:	e8bd 4008 	ldmia.w	sp!, {r3, lr}
    92c4:	f7ff bfbc 	b.w	9240 <system__io__new_line>

000092c8 <system__io__standard_output>:
    92c8:	2000      	movs	r0, #0
    92ca:	4770      	bx	lr

000092cc <system__io__standard_error>:
    92cc:	2001      	movs	r0, #1
    92ce:	4770      	bx	lr

000092d0 <system__io__set_output>:
    92d0:	4770      	bx	lr
    92d2:	bf00      	nop

000092d4 <system__wch_jis__euc_to_jis>:
    92d4:	b508      	push	{r3, lr}
    92d6:	f101 0360 	add.w	r3, r1, #96	; 0x60
    92da:	b2db      	uxtb	r3, r3
    92dc:	2b5e      	cmp	r3, #94	; 0x5e
    92de:	d810      	bhi.n	9302 <system__wch_jis__euc_to_jis+0x2e>
    92e0:	288e      	cmp	r0, #142	; 0x8e
    92e2:	bf08      	it	eq
    92e4:	b288      	uxtheq	r0, r1
    92e6:	d00b      	beq.n	9300 <system__wch_jis__euc_to_jis+0x2c>
    92e8:	f100 0360 	add.w	r3, r0, #96	; 0x60
    92ec:	b2db      	uxtb	r3, r3
    92ee:	2b5e      	cmp	r3, #94	; 0x5e
    92f0:	bf9e      	ittt	ls
    92f2:	f000 007f 	andls.w	r0, r0, #127	; 0x7f
    92f6:	f001 017f 	andls.w	r1, r1, #127	; 0x7f
    92fa:	eb01 2000 	addls.w	r0, r1, r0, lsl #8
    92fe:	d807      	bhi.n	9310 <system__wch_jis__euc_to_jis+0x3c>
    9300:	bd08      	pop	{r3, pc}
    9302:	f24d 602c 	movw	r0, #54828	; 0xd62c
    9306:	2132      	movs	r1, #50	; 0x32
    9308:	f2c0 0000 	movt	r0, #0
    930c:	f7fc f8d6 	bl	54bc <__gnat_rcheck_CE_Explicit_Raise>
    9310:	f24d 602c 	movw	r0, #54828	; 0xd62c
    9314:	213a      	movs	r1, #58	; 0x3a
    9316:	f2c0 0000 	movt	r0, #0
    931a:	f7fc f8cf 	bl	54bc <__gnat_rcheck_CE_Explicit_Raise>
    931e:	bf00      	nop

00009320 <system__wch_jis__jis_to_euc>:
    9320:	b508      	push	{r3, lr}
    9322:	b2c2      	uxtb	r2, r0
    9324:	1200      	asrs	r0, r0, #8
    9326:	d10a      	bne.n	933e <system__wch_jis__jis_to_euc+0x1e>
    9328:	2a7f      	cmp	r2, #127	; 0x7f
    932a:	bf84      	itt	hi
    932c:	b2d2      	uxtbhi	r2, r2
    932e:	238e      	movhi	r3, #142	; 0x8e
    9330:	d915      	bls.n	935e <system__wch_jis__jis_to_euc+0x3e>
    9332:	2000      	movs	r0, #0
    9334:	f363 0007 	bfi	r0, r3, #0, #8
    9338:	f362 200f 	bfi	r0, r2, #8, #8
    933c:	bd08      	pop	{r3, pc}
    933e:	287f      	cmp	r0, #127	; 0x7f
    9340:	bfd8      	it	le
    9342:	2a7f      	cmple	r2, #127	; 0x7f
    9344:	bfdc      	itt	le
    9346:	f080 0380 	eorle.w	r3, r0, #128	; 0x80
    934a:	f082 0280 	eorle.w	r2, r2, #128	; 0x80
    934e:	ddf0      	ble.n	9332 <system__wch_jis__jis_to_euc+0x12>
    9350:	f24d 602c 	movw	r0, #54828	; 0xd62c
    9354:	2161      	movs	r1, #97	; 0x61
    9356:	f2c0 0000 	movt	r0, #0
    935a:	f7fc f8af 	bl	54bc <__gnat_rcheck_CE_Explicit_Raise>
    935e:	f24d 602c 	movw	r0, #54828	; 0xd62c
    9362:	2157      	movs	r1, #87	; 0x57
    9364:	f2c0 0000 	movt	r0, #0
    9368:	f7fc f8a8 	bl	54bc <__gnat_rcheck_CE_Explicit_Raise>

0000936c <system__wch_jis__jis_to_shift_jis>:
    936c:	b430      	push	{r4, r5}
    936e:	0a04      	lsrs	r4, r0, #8
    9370:	2500      	movs	r5, #0
    9372:	2c60      	cmp	r4, #96	; 0x60
    9374:	b2e3      	uxtb	r3, r4
    9376:	f175 0200 	sbcs.w	r2, r5, #0
    937a:	bfa8      	it	ge
    937c:	f083 0380 	eorge.w	r3, r3, #128	; 0x80
    9380:	07da      	lsls	r2, r3, #31
    9382:	b2c0      	uxtb	r0, r0
    9384:	d513      	bpl.n	93ae <system__wch_jis__jis_to_shift_jis+0x42>
    9386:	285f      	cmp	r0, #95	; 0x5f
    9388:	bf88      	it	hi
    938a:	3001      	addhi	r0, #1
    938c:	f1a3 0331 	sub.w	r3, r3, #49	; 0x31
    9390:	bf88      	it	hi
    9392:	b2c0      	uxtbhi	r0, r0
    9394:	f3c3 0346 	ubfx	r3, r3, #1, #7
    9398:	3b77      	subs	r3, #119	; 0x77
    939a:	301f      	adds	r0, #31
    939c:	b2db      	uxtb	r3, r3
    939e:	b2c2      	uxtb	r2, r0
    93a0:	2000      	movs	r0, #0
    93a2:	f363 0007 	bfi	r0, r3, #0, #8
    93a6:	f362 200f 	bfi	r0, r2, #8, #8
    93aa:	bc30      	pop	{r4, r5}
    93ac:	4770      	bx	lr
    93ae:	3b30      	subs	r3, #48	; 0x30
    93b0:	f3c3 0346 	ubfx	r3, r3, #1, #7
    93b4:	3b78      	subs	r3, #120	; 0x78
    93b6:	307e      	adds	r0, #126	; 0x7e
    93b8:	b2db      	uxtb	r3, r3
    93ba:	b2c2      	uxtb	r2, r0
    93bc:	e7f0      	b.n	93a0 <system__wch_jis__jis_to_shift_jis+0x34>
    93be:	bf00      	nop

000093c0 <system__wch_jis__shift_jis_to_jis>:
    93c0:	b508      	push	{r3, lr}
    93c2:	28df      	cmp	r0, #223	; 0xdf
    93c4:	bf84      	itt	hi
    93c6:	3840      	subhi	r0, #64	; 0x40
    93c8:	b2c0      	uxtbhi	r0, r0
    93ca:	299e      	cmp	r1, #158	; 0x9e
    93cc:	d910      	bls.n	93f0 <system__wch_jis__shift_jis_to_jis+0x30>
    93ce:	3010      	adds	r0, #16
    93d0:	397e      	subs	r1, #126	; 0x7e
    93d2:	0040      	lsls	r0, r0, #1
    93d4:	b2c9      	uxtb	r1, r1
    93d6:	b2c0      	uxtb	r0, r0
    93d8:	f1a0 0320 	sub.w	r3, r0, #32
    93dc:	2b5e      	cmp	r3, #94	; 0x5e
    93de:	d816      	bhi.n	940e <system__wch_jis__shift_jis_to_jis+0x4e>
    93e0:	f1a1 0320 	sub.w	r3, r1, #32
    93e4:	2b5e      	cmp	r3, #94	; 0x5e
    93e6:	d812      	bhi.n	940e <system__wch_jis__shift_jis_to_jis+0x4e>
    93e8:	eb01 2100 	add.w	r1, r1, r0, lsl #8
    93ec:	b288      	uxth	r0, r1
    93ee:	bd08      	pop	{r3, pc}
    93f0:	297e      	cmp	r1, #126	; 0x7e
    93f2:	bf88      	it	hi
    93f4:	f101 31ff 	addhi.w	r1, r1, #4294967295
    93f8:	ea4f 0040 	mov.w	r0, r0, lsl #1
    93fc:	bf88      	it	hi
    93fe:	b2c9      	uxtbhi	r1, r1
    9400:	f200 101f 	addw	r0, r0, #287	; 0x11f
    9404:	f1a1 031f 	sub.w	r3, r1, #31
    9408:	b2c0      	uxtb	r0, r0
    940a:	b2d9      	uxtb	r1, r3
    940c:	e7e4      	b.n	93d8 <system__wch_jis__shift_jis_to_jis+0x18>
    940e:	f24d 602c 	movw	r0, #54828	; 0xd62c
    9412:	21b7      	movs	r1, #183	; 0xb7
    9414:	f2c0 0000 	movt	r0, #0
    9418:	f7fc f850 	bl	54bc <__gnat_rcheck_CE_Explicit_Raise>

0000941c <system__case_util__to_lower>:
    941c:	f1a0 0341 	sub.w	r3, r0, #65	; 0x41
    9420:	2b19      	cmp	r3, #25
    9422:	d903      	bls.n	942c <system__case_util__to_lower+0x10>
    9424:	f1a0 03c0 	sub.w	r3, r0, #192	; 0xc0
    9428:	2b16      	cmp	r3, #22
    942a:	d802      	bhi.n	9432 <system__case_util__to_lower+0x16>
    942c:	3020      	adds	r0, #32
    942e:	b2c0      	uxtb	r0, r0
    9430:	4770      	bx	lr
    9432:	f1a0 03d8 	sub.w	r3, r0, #216	; 0xd8
    9436:	2b06      	cmp	r3, #6
    9438:	d9f8      	bls.n	942c <system__case_util__to_lower+0x10>
    943a:	e7f9      	b.n	9430 <system__case_util__to_lower+0x14>

0000943c <system__case_util__to_lower__2>:
    943c:	b430      	push	{r4, r5}
    943e:	680c      	ldr	r4, [r1, #0]
    9440:	684b      	ldr	r3, [r1, #4]
    9442:	429c      	cmp	r4, r3
    9444:	dc16      	bgt.n	9474 <system__case_util__to_lower__2+0x38>
    9446:	3301      	adds	r3, #1
    9448:	1b1c      	subs	r4, r3, r4
    944a:	4404      	add	r4, r0
    944c:	7803      	ldrb	r3, [r0, #0]
    944e:	f1a3 0241 	sub.w	r2, r3, #65	; 0x41
    9452:	2a19      	cmp	r2, #25
    9454:	f103 0120 	add.w	r1, r3, #32
    9458:	f1a3 05c0 	sub.w	r5, r3, #192	; 0xc0
    945c:	d905      	bls.n	946a <system__case_util__to_lower__2+0x2e>
    945e:	2d16      	cmp	r5, #22
    9460:	f1a3 02d8 	sub.w	r2, r3, #216	; 0xd8
    9464:	d901      	bls.n	946a <system__case_util__to_lower__2+0x2e>
    9466:	2a06      	cmp	r2, #6
    9468:	d800      	bhi.n	946c <system__case_util__to_lower__2+0x30>
    946a:	b2cb      	uxtb	r3, r1
    946c:	f800 3b01 	strb.w	r3, [r0], #1
    9470:	42a0      	cmp	r0, r4
    9472:	d1eb      	bne.n	944c <system__case_util__to_lower__2+0x10>
    9474:	bc30      	pop	{r4, r5}
    9476:	4770      	bx	lr

00009478 <system__case_util__to_mixed>:
    9478:	e891 000c 	ldmia.w	r1, {r2, r3}
    947c:	429a      	cmp	r2, r3
    947e:	dc1d      	bgt.n	94bc <system__case_util__to_mixed+0x44>
    9480:	3301      	adds	r3, #1
    9482:	1a9a      	subs	r2, r3, r2
    9484:	4402      	add	r2, r0
    9486:	2301      	movs	r3, #1
    9488:	b1cb      	cbz	r3, 94be <system__case_util__to_mixed+0x46>
    948a:	7803      	ldrb	r3, [r0, #0]
    948c:	f1a3 0161 	sub.w	r1, r3, #97	; 0x61
    9490:	2919      	cmp	r1, #25
    9492:	d907      	bls.n	94a4 <system__case_util__to_mixed+0x2c>
    9494:	f1a3 01e0 	sub.w	r1, r3, #224	; 0xe0
    9498:	2916      	cmp	r1, #22
    949a:	d903      	bls.n	94a4 <system__case_util__to_mixed+0x2c>
    949c:	f1a3 01f8 	sub.w	r1, r3, #248	; 0xf8
    94a0:	2906      	cmp	r1, #6
    94a2:	d801      	bhi.n	94a8 <system__case_util__to_mixed+0x30>
    94a4:	3b20      	subs	r3, #32
    94a6:	b2db      	uxtb	r3, r3
    94a8:	7003      	strb	r3, [r0, #0]
    94aa:	3001      	adds	r0, #1
    94ac:	4290      	cmp	r0, r2
    94ae:	f1a3 035f 	sub.w	r3, r3, #95	; 0x5f
    94b2:	fab3 f383 	clz	r3, r3
    94b6:	ea4f 1353 	mov.w	r3, r3, lsr #5
    94ba:	d1e5      	bne.n	9488 <system__case_util__to_mixed+0x10>
    94bc:	4770      	bx	lr
    94be:	7803      	ldrb	r3, [r0, #0]
    94c0:	f1a3 0141 	sub.w	r1, r3, #65	; 0x41
    94c4:	2919      	cmp	r1, #25
    94c6:	d907      	bls.n	94d8 <system__case_util__to_mixed+0x60>
    94c8:	f1a3 01c0 	sub.w	r1, r3, #192	; 0xc0
    94cc:	2916      	cmp	r1, #22
    94ce:	d903      	bls.n	94d8 <system__case_util__to_mixed+0x60>
    94d0:	f1a3 01d8 	sub.w	r1, r3, #216	; 0xd8
    94d4:	2906      	cmp	r1, #6
    94d6:	d8e7      	bhi.n	94a8 <system__case_util__to_mixed+0x30>
    94d8:	3320      	adds	r3, #32
    94da:	b2db      	uxtb	r3, r3
    94dc:	e7e4      	b.n	94a8 <system__case_util__to_mixed+0x30>
    94de:	bf00      	nop

000094e0 <system__case_util__to_upper>:
    94e0:	f1a0 0361 	sub.w	r3, r0, #97	; 0x61
    94e4:	2b19      	cmp	r3, #25
    94e6:	d903      	bls.n	94f0 <system__case_util__to_upper+0x10>
    94e8:	f1a0 03e0 	sub.w	r3, r0, #224	; 0xe0
    94ec:	2b16      	cmp	r3, #22
    94ee:	d802      	bhi.n	94f6 <system__case_util__to_upper+0x16>
    94f0:	3820      	subs	r0, #32
    94f2:	b2c0      	uxtb	r0, r0
    94f4:	4770      	bx	lr
    94f6:	f1a0 03f8 	sub.w	r3, r0, #248	; 0xf8
    94fa:	2b06      	cmp	r3, #6
    94fc:	d9f8      	bls.n	94f0 <system__case_util__to_upper+0x10>
    94fe:	e7f9      	b.n	94f4 <system__case_util__to_upper+0x14>

00009500 <system__case_util__to_upper__2>:
    9500:	b430      	push	{r4, r5}
    9502:	680c      	ldr	r4, [r1, #0]
    9504:	684b      	ldr	r3, [r1, #4]
    9506:	429c      	cmp	r4, r3
    9508:	dc16      	bgt.n	9538 <system__case_util__to_upper__2+0x38>
    950a:	3301      	adds	r3, #1
    950c:	1b1c      	subs	r4, r3, r4
    950e:	4404      	add	r4, r0
    9510:	7803      	ldrb	r3, [r0, #0]
    9512:	f1a3 0261 	sub.w	r2, r3, #97	; 0x61
    9516:	2a19      	cmp	r2, #25
    9518:	f1a3 0120 	sub.w	r1, r3, #32
    951c:	f1a3 05e0 	sub.w	r5, r3, #224	; 0xe0
    9520:	d905      	bls.n	952e <system__case_util__to_upper__2+0x2e>
    9522:	2d16      	cmp	r5, #22
    9524:	f1a3 02f8 	sub.w	r2, r3, #248	; 0xf8
    9528:	d901      	bls.n	952e <system__case_util__to_upper__2+0x2e>
    952a:	2a06      	cmp	r2, #6
    952c:	d800      	bhi.n	9530 <system__case_util__to_upper__2+0x30>
    952e:	b2cb      	uxtb	r3, r1
    9530:	f800 3b01 	strb.w	r3, [r0], #1
    9534:	42a0      	cmp	r0, r4
    9536:	d1eb      	bne.n	9510 <system__case_util__to_upper__2+0x10>
    9538:	bc30      	pop	{r4, r5}
    953a:	4770      	bx	lr

0000953c <__aeabi_ldivmod>:
    953c:	b97b      	cbnz	r3, 955e <__aeabi_ldivmod+0x22>
    953e:	b972      	cbnz	r2, 955e <__aeabi_ldivmod+0x22>
    9540:	2900      	cmp	r1, #0
    9542:	bfbe      	ittt	lt
    9544:	2000      	movlt	r0, #0
    9546:	f04f 4100 	movlt.w	r1, #2147483648	; 0x80000000
    954a:	e006      	blt.n	955a <__aeabi_ldivmod+0x1e>
    954c:	bf08      	it	eq
    954e:	2800      	cmpeq	r0, #0
    9550:	bf1c      	itt	ne
    9552:	f06f 4100 	mvnne.w	r1, #2147483648	; 0x80000000
    9556:	f04f 30ff 	movne.w	r0, #4294967295
    955a:	f001 b867 	b.w	a62c <__aeabi_idiv0>
    955e:	b082      	sub	sp, #8
    9560:	46ec      	mov	ip, sp
    9562:	e92d 5000 	stmdb	sp!, {ip, lr}
    9566:	f000 f81d 	bl	95a4 <__gnu_ldivmod_helper>
    956a:	f8dd e004 	ldr.w	lr, [sp, #4]
    956e:	b002      	add	sp, #8
    9570:	bc0c      	pop	{r2, r3}
    9572:	4770      	bx	lr

00009574 <__aeabi_uldivmod>:
    9574:	b953      	cbnz	r3, 958c <__aeabi_uldivmod+0x18>
    9576:	b94a      	cbnz	r2, 958c <__aeabi_uldivmod+0x18>
    9578:	2900      	cmp	r1, #0
    957a:	bf08      	it	eq
    957c:	2800      	cmpeq	r0, #0
    957e:	bf1c      	itt	ne
    9580:	f04f 31ff 	movne.w	r1, #4294967295
    9584:	f04f 30ff 	movne.w	r0, #4294967295
    9588:	f001 b850 	b.w	a62c <__aeabi_idiv0>
    958c:	b082      	sub	sp, #8
    958e:	46ec      	mov	ip, sp
    9590:	e92d 5000 	stmdb	sp!, {ip, lr}
    9594:	f000 f81e 	bl	95d4 <__gnu_uldivmod_helper>
    9598:	f8dd e004 	ldr.w	lr, [sp, #4]
    959c:	b002      	add	sp, #8
    959e:	bc0c      	pop	{r2, r3}
    95a0:	4770      	bx	lr
    95a2:	bf00      	nop

000095a4 <__gnu_ldivmod_helper>:
    95a4:	e92d 41f0 	stmdb	sp!, {r4, r5, r6, r7, r8, lr}
    95a8:	4698      	mov	r8, r3
    95aa:	4614      	mov	r4, r2
    95ac:	9d06      	ldr	r5, [sp, #24]
    95ae:	4606      	mov	r6, r0
    95b0:	460f      	mov	r7, r1
    95b2:	f001 f83d 	bl	a630 <__divdi3>
    95b6:	fba4 2300 	umull	r2, r3, r4, r0
    95ba:	4686      	mov	lr, r0
    95bc:	fb04 f401 	mul.w	r4, r4, r1
    95c0:	1ab6      	subs	r6, r6, r2
    95c2:	fb00 4408 	mla	r4, r0, r8, r4
    95c6:	4423      	add	r3, r4
    95c8:	eb67 0703 	sbc.w	r7, r7, r3
    95cc:	e9c5 6700 	strd	r6, r7, [r5]
    95d0:	e8bd 81f0 	ldmia.w	sp!, {r4, r5, r6, r7, r8, pc}

000095d4 <__gnu_uldivmod_helper>:
    95d4:	e92d 43f8 	stmdb	sp!, {r3, r4, r5, r6, r7, r8, r9, lr}
    95d8:	4617      	mov	r7, r2
    95da:	4680      	mov	r8, r0
    95dc:	4689      	mov	r9, r1
    95de:	461d      	mov	r5, r3
    95e0:	9e08      	ldr	r6, [sp, #32]
    95e2:	f001 f8d1 	bl	a788 <__udivdi3>
    95e6:	fb00 f305 	mul.w	r3, r0, r5
    95ea:	fba0 4507 	umull	r4, r5, r0, r7
    95ee:	fb07 3701 	mla	r7, r7, r1, r3
    95f2:	ebb8 0404 	subs.w	r4, r8, r4
    95f6:	443d      	add	r5, r7
    95f8:	eb69 0505 	sbc.w	r5, r9, r5
    95fc:	e9c6 4500 	strd	r4, r5, [r6]
    9600:	e8bd 83f8 	ldmia.w	sp!, {r3, r4, r5, r6, r7, r8, r9, pc}

00009604 <selfrel_offset31>:
    9604:	6803      	ldr	r3, [r0, #0]
    9606:	005a      	lsls	r2, r3, #1
    9608:	bf4c      	ite	mi
    960a:	f043 4300 	orrmi.w	r3, r3, #2147483648	; 0x80000000
    960e:	f023 4300 	bicpl.w	r3, r3, #2147483648	; 0x80000000
    9612:	4418      	add	r0, r3
    9614:	4770      	bx	lr
    9616:	bf00      	nop

00009618 <search_EIT_table>:
    9618:	e92d 4ff0 	stmdb	sp!, {r4, r5, r6, r7, r8, r9, sl, fp, lr}
    961c:	b083      	sub	sp, #12
    961e:	b311      	cbz	r1, 9666 <search_EIT_table+0x4e>
    9620:	1e4b      	subs	r3, r1, #1
    9622:	4617      	mov	r7, r2
    9624:	4605      	mov	r5, r0
    9626:	2600      	movs	r6, #0
    9628:	4698      	mov	r8, r3
    962a:	9301      	str	r3, [sp, #4]
    962c:	eb06 0408 	add.w	r4, r6, r8
    9630:	eb04 74d4 	add.w	r4, r4, r4, lsr #31
    9634:	1064      	asrs	r4, r4, #1
    9636:	ea4f 0ac4 	mov.w	sl, r4, lsl #3
    963a:	eb05 0b0a 	add.w	fp, r5, sl
    963e:	4658      	mov	r0, fp
    9640:	f7ff ffe0 	bl	9604 <selfrel_offset31>
    9644:	9b01      	ldr	r3, [sp, #4]
    9646:	42a3      	cmp	r3, r4
    9648:	4681      	mov	r9, r0
    964a:	f10a 0008 	add.w	r0, sl, #8
    964e:	4428      	add	r0, r5
    9650:	d014      	beq.n	967c <search_EIT_table+0x64>
    9652:	f7ff ffd7 	bl	9604 <selfrel_offset31>
    9656:	45b9      	cmp	r9, r7
    9658:	f100 33ff 	add.w	r3, r0, #4294967295
    965c:	d909      	bls.n	9672 <search_EIT_table+0x5a>
    965e:	42b4      	cmp	r4, r6
    9660:	f104 38ff 	add.w	r8, r4, #4294967295
    9664:	d1e2      	bne.n	962c <search_EIT_table+0x14>
    9666:	f04f 0b00 	mov.w	fp, #0
    966a:	4658      	mov	r0, fp
    966c:	b003      	add	sp, #12
    966e:	e8bd 8ff0 	ldmia.w	sp!, {r4, r5, r6, r7, r8, r9, sl, fp, pc}
    9672:	42bb      	cmp	r3, r7
    9674:	f104 0601 	add.w	r6, r4, #1
    9678:	d3d8      	bcc.n	962c <search_EIT_table+0x14>
    967a:	e7f6      	b.n	966a <search_EIT_table+0x52>
    967c:	45b9      	cmp	r9, r7
    967e:	d8ee      	bhi.n	965e <search_EIT_table+0x46>
    9680:	4658      	mov	r0, fp
    9682:	b003      	add	sp, #12
    9684:	e8bd 8ff0 	ldmia.w	sp!, {r4, r5, r6, r7, r8, r9, sl, fp, pc}

00009688 <__gnu_unwind_get_pr_addr>:
    9688:	2801      	cmp	r0, #1
    968a:	d00e      	beq.n	96aa <__gnu_unwind_get_pr_addr+0x22>
    968c:	2802      	cmp	r0, #2
    968e:	d007      	beq.n	96a0 <__gnu_unwind_get_pr_addr+0x18>
    9690:	2800      	cmp	r0, #0
    9692:	f649 50d5 	movw	r0, #40405	; 0x9dd5
    9696:	f2c0 0000 	movt	r0, #0
    969a:	bf18      	it	ne
    969c:	2000      	movne	r0, #0
    969e:	4770      	bx	lr
    96a0:	f649 50dd 	movw	r0, #40413	; 0x9ddd
    96a4:	f2c0 0000 	movt	r0, #0
    96a8:	4770      	bx	lr
    96aa:	f649 50d9 	movw	r0, #40409	; 0x9dd9
    96ae:	f2c0 0000 	movt	r0, #0
    96b2:	4770      	bx	lr

000096b4 <get_eit_entry>:
    96b4:	f240 0300 	movw	r3, #0
    96b8:	f2c0 0300 	movt	r3, #0
    96bc:	b570      	push	{r4, r5, r6, lr}
    96be:	4605      	mov	r5, r0
    96c0:	b082      	sub	sp, #8
    96c2:	1e8e      	subs	r6, r1, #2
    96c4:	2b00      	cmp	r3, #0
    96c6:	d02f      	beq.n	9728 <get_eit_entry+0x74>
    96c8:	4630      	mov	r0, r6
    96ca:	a901      	add	r1, sp, #4
    96cc:	f3af 8000 	nop.w
    96d0:	b328      	cbz	r0, 971e <get_eit_entry+0x6a>
    96d2:	9901      	ldr	r1, [sp, #4]
    96d4:	4632      	mov	r2, r6
    96d6:	f7ff ff9f 	bl	9618 <search_EIT_table>
    96da:	4604      	mov	r4, r0
    96dc:	b1f8      	cbz	r0, 971e <get_eit_entry+0x6a>
    96de:	f7ff ff91 	bl	9604 <selfrel_offset31>
    96e2:	6863      	ldr	r3, [r4, #4]
    96e4:	2b01      	cmp	r3, #1
    96e6:	64a8      	str	r0, [r5, #72]	; 0x48
    96e8:	d014      	beq.n	9714 <get_eit_entry+0x60>
    96ea:	2b00      	cmp	r3, #0
    96ec:	f104 0004 	add.w	r0, r4, #4
    96f0:	bfbe      	ittt	lt
    96f2:	64e8      	strlt	r0, [r5, #76]	; 0x4c
    96f4:	2301      	movlt	r3, #1
    96f6:	652b      	strlt	r3, [r5, #80]	; 0x50
    96f8:	db04      	blt.n	9704 <get_eit_entry+0x50>
    96fa:	f7ff ff83 	bl	9604 <selfrel_offset31>
    96fe:	2300      	movs	r3, #0
    9700:	652b      	str	r3, [r5, #80]	; 0x50
    9702:	64e8      	str	r0, [r5, #76]	; 0x4c
    9704:	6803      	ldr	r3, [r0, #0]
    9706:	2b00      	cmp	r3, #0
    9708:	db1b      	blt.n	9742 <get_eit_entry+0x8e>
    970a:	f7ff ff7b 	bl	9604 <selfrel_offset31>
    970e:	6128      	str	r0, [r5, #16]
    9710:	2000      	movs	r0, #0
    9712:	e002      	b.n	971a <get_eit_entry+0x66>
    9714:	2005      	movs	r0, #5
    9716:	2300      	movs	r3, #0
    9718:	612b      	str	r3, [r5, #16]
    971a:	b002      	add	sp, #8
    971c:	bd70      	pop	{r4, r5, r6, pc}
    971e:	2300      	movs	r3, #0
    9720:	2009      	movs	r0, #9
    9722:	612b      	str	r3, [r5, #16]
    9724:	b002      	add	sp, #8
    9726:	bd70      	pop	{r4, r5, r6, pc}
    9728:	f64b 4454 	movw	r4, #48212	; 0xbc54
    972c:	f64a 63d4 	movw	r3, #44756	; 0xaed4
    9730:	f2c0 0300 	movt	r3, #0
    9734:	f2c0 0400 	movt	r4, #0
    9738:	1ae4      	subs	r4, r4, r3
    973a:	4618      	mov	r0, r3
    973c:	10e1      	asrs	r1, r4, #3
    973e:	9101      	str	r1, [sp, #4]
    9740:	e7c8      	b.n	96d4 <get_eit_entry+0x20>
    9742:	f3c3 6003 	ubfx	r0, r3, #24, #4
    9746:	f7ff ff9f 	bl	9688 <__gnu_unwind_get_pr_addr>
    974a:	6128      	str	r0, [r5, #16]
    974c:	2800      	cmp	r0, #0
    974e:	d1df      	bne.n	9710 <get_eit_entry+0x5c>
    9750:	2009      	movs	r0, #9
    9752:	e7e2      	b.n	971a <get_eit_entry+0x66>

00009754 <restore_non_core_regs>:
    9754:	6803      	ldr	r3, [r0, #0]
    9756:	b510      	push	{r4, lr}
    9758:	07da      	lsls	r2, r3, #31
    975a:	4604      	mov	r4, r0
    975c:	d406      	bmi.n	976c <restore_non_core_regs+0x18>
    975e:	079b      	lsls	r3, r3, #30
    9760:	f100 0048 	add.w	r0, r0, #72	; 0x48
    9764:	d509      	bpl.n	977a <restore_non_core_regs+0x26>
    9766:	f000 fcc9 	bl	a0fc <__gnu_Unwind_Restore_VFP_D>
    976a:	6823      	ldr	r3, [r4, #0]
    976c:	0759      	lsls	r1, r3, #29
    976e:	d509      	bpl.n	9784 <restore_non_core_regs+0x30>
    9770:	071a      	lsls	r2, r3, #28
    9772:	d50e      	bpl.n	9792 <restore_non_core_regs+0x3e>
    9774:	06db      	lsls	r3, r3, #27
    9776:	d513      	bpl.n	97a0 <restore_non_core_regs+0x4c>
    9778:	bd10      	pop	{r4, pc}
    977a:	f000 fcb7 	bl	a0ec <__gnu_Unwind_Restore_VFP>
    977e:	6823      	ldr	r3, [r4, #0]
    9780:	0759      	lsls	r1, r3, #29
    9782:	d4f5      	bmi.n	9770 <restore_non_core_regs+0x1c>
    9784:	f104 00d0 	add.w	r0, r4, #208	; 0xd0
    9788:	f000 fcc0 	bl	a10c <__gnu_Unwind_Restore_VFP_D_16_to_31>
    978c:	6823      	ldr	r3, [r4, #0]
    978e:	071a      	lsls	r2, r3, #28
    9790:	d4f0      	bmi.n	9774 <restore_non_core_regs+0x20>
    9792:	f504 70a8 	add.w	r0, r4, #336	; 0x150
    9796:	f000 fcc1 	bl	a11c <__gnu_Unwind_Restore_WMMXD>
    979a:	6823      	ldr	r3, [r4, #0]
    979c:	06db      	lsls	r3, r3, #27
    979e:	d4eb      	bmi.n	9778 <restore_non_core_regs+0x24>
    97a0:	f504 70e8 	add.w	r0, r4, #464	; 0x1d0
    97a4:	e8bd 4010 	ldmia.w	sp!, {r4, lr}
    97a8:	f000 bcfc 	b.w	a1a4 <__gnu_Unwind_Restore_WMMXC>

000097ac <_Unwind_decode_typeinfo_ptr.isra.0>:
    97ac:	6803      	ldr	r3, [r0, #0]
    97ae:	b103      	cbz	r3, 97b2 <_Unwind_decode_typeinfo_ptr.isra.0+0x6>
    97b0:	4403      	add	r3, r0
    97b2:	4618      	mov	r0, r3
    97b4:	4770      	bx	lr
    97b6:	bf00      	nop

000097b8 <__gnu_unwind_24bit.isra.1>:
    97b8:	2009      	movs	r0, #9
    97ba:	4770      	bx	lr

000097bc <_Unwind_DebugHook>:
    97bc:	4770      	bx	lr
    97be:	bf00      	nop

000097c0 <unwind_phase2>:
    97c0:	b5f8      	push	{r3, r4, r5, r6, r7, lr}
    97c2:	4604      	mov	r4, r0
    97c4:	460d      	mov	r5, r1
    97c6:	e008      	b.n	97da <unwind_phase2+0x1a>
    97c8:	6c2f      	ldr	r7, [r5, #64]	; 0x40
    97ca:	2001      	movs	r0, #1
    97cc:	6923      	ldr	r3, [r4, #16]
    97ce:	4621      	mov	r1, r4
    97d0:	462a      	mov	r2, r5
    97d2:	6167      	str	r7, [r4, #20]
    97d4:	4798      	blx	r3
    97d6:	2808      	cmp	r0, #8
    97d8:	d108      	bne.n	97ec <unwind_phase2+0x2c>
    97da:	4620      	mov	r0, r4
    97dc:	6c29      	ldr	r1, [r5, #64]	; 0x40
    97de:	f7ff ff69 	bl	96b4 <get_eit_entry>
    97e2:	4606      	mov	r6, r0
    97e4:	2800      	cmp	r0, #0
    97e6:	d0ef      	beq.n	97c8 <unwind_phase2+0x8>
    97e8:	f7fe fb12 	bl	7e10 <abort>
    97ec:	2807      	cmp	r0, #7
    97ee:	d1fb      	bne.n	97e8 <unwind_phase2+0x28>
    97f0:	4630      	mov	r0, r6
    97f2:	6c29      	ldr	r1, [r5, #64]	; 0x40
    97f4:	f7ff ffe2 	bl	97bc <_Unwind_DebugHook>
    97f8:	1d28      	adds	r0, r5, #4
    97fa:	f000 fc6b 	bl	a0d4 <__restore_core_regs>
    97fe:	bf00      	nop

00009800 <unwind_phase2_forced>:
    9800:	e92d 47f0 	stmdb	sp!, {r4, r5, r6, r7, r8, r9, sl, lr}
    9804:	f101 0e04 	add.w	lr, r1, #4
    9808:	4605      	mov	r5, r0
    980a:	4691      	mov	r9, r2
    980c:	e8be 000f 	ldmia.w	lr!, {r0, r1, r2, r3}
    9810:	f5ad 7d72 	sub.w	sp, sp, #968	; 0x3c8
    9814:	ae03      	add	r6, sp, #12
    9816:	ac02      	add	r4, sp, #8
    9818:	68ef      	ldr	r7, [r5, #12]
    981a:	f04f 0c00 	mov.w	ip, #0
    981e:	f8d5 8018 	ldr.w	r8, [r5, #24]
    9822:	c60f      	stmia	r6!, {r0, r1, r2, r3}
    9824:	e8be 000f 	ldmia.w	lr!, {r0, r1, r2, r3}
    9828:	c60f      	stmia	r6!, {r0, r1, r2, r3}
    982a:	e8be 000f 	ldmia.w	lr!, {r0, r1, r2, r3}
    982e:	c60f      	stmia	r6!, {r0, r1, r2, r3}
    9830:	e89e 000f 	ldmia.w	lr, {r0, r1, r2, r3}
    9834:	e886 000f 	stmia.w	r6, {r0, r1, r2, r3}
    9838:	4628      	mov	r0, r5
    983a:	6c21      	ldr	r1, [r4, #64]	; 0x40
    983c:	f8c4 c000 	str.w	ip, [r4]
    9840:	f7ff ff38 	bl	96b4 <get_eit_entry>
    9844:	f1b9 0f00 	cmp.w	r9, #0
    9848:	bf0c      	ite	eq
    984a:	f04f 0909 	moveq.w	r9, #9
    984e:	f04f 090a 	movne.w	r9, #10
    9852:	4606      	mov	r6, r0
    9854:	b186      	cbz	r6, 9878 <unwind_phase2_forced+0x78>
    9856:	6ba3      	ldr	r3, [r4, #56]	; 0x38
    9858:	f049 0110 	orr.w	r1, r9, #16
    985c:	9400      	str	r4, [sp, #0]
    985e:	2001      	movs	r0, #1
    9860:	f8cd 8004 	str.w	r8, [sp, #4]
    9864:	462a      	mov	r2, r5
    9866:	6463      	str	r3, [r4, #68]	; 0x44
    9868:	462b      	mov	r3, r5
    986a:	47b8      	blx	r7
    986c:	bb88      	cbnz	r0, 98d2 <unwind_phase2_forced+0xd2>
    986e:	4630      	mov	r0, r6
    9870:	f50d 7d72 	add.w	sp, sp, #968	; 0x3c8
    9874:	e8bd 87f0 	ldmia.w	sp!, {r4, r5, r6, r7, r8, r9, sl, pc}
    9878:	6c23      	ldr	r3, [r4, #64]	; 0x40
    987a:	4621      	mov	r1, r4
    987c:	f44f 72f0 	mov.w	r2, #480	; 0x1e0
    9880:	a87a      	add	r0, sp, #488	; 0x1e8
    9882:	616b      	str	r3, [r5, #20]
    9884:	f7f8 fb2e 	bl	1ee4 <memcpy>
    9888:	692b      	ldr	r3, [r5, #16]
    988a:	4629      	mov	r1, r5
    988c:	aa7a      	add	r2, sp, #488	; 0x1e8
    988e:	4648      	mov	r0, r9
    9890:	4798      	blx	r3
    9892:	9b88      	ldr	r3, [sp, #544]	; 0x220
    9894:	9400      	str	r4, [sp, #0]
    9896:	4649      	mov	r1, r9
    9898:	f8cd 8004 	str.w	r8, [sp, #4]
    989c:	462a      	mov	r2, r5
    989e:	6463      	str	r3, [r4, #68]	; 0x44
    98a0:	462b      	mov	r3, r5
    98a2:	4682      	mov	sl, r0
    98a4:	2001      	movs	r0, #1
    98a6:	47b8      	blx	r7
    98a8:	b998      	cbnz	r0, 98d2 <unwind_phase2_forced+0xd2>
    98aa:	4620      	mov	r0, r4
    98ac:	a97a      	add	r1, sp, #488	; 0x1e8
    98ae:	f44f 72f0 	mov.w	r2, #480	; 0x1e0
    98b2:	f7f8 fb17 	bl	1ee4 <memcpy>
    98b6:	f1ba 0f08 	cmp.w	sl, #8
    98ba:	d107      	bne.n	98cc <unwind_phase2_forced+0xcc>
    98bc:	4628      	mov	r0, r5
    98be:	6c21      	ldr	r1, [r4, #64]	; 0x40
    98c0:	f7ff fef8 	bl	96b4 <get_eit_entry>
    98c4:	f04f 0909 	mov.w	r9, #9
    98c8:	4606      	mov	r6, r0
    98ca:	e7c3      	b.n	9854 <unwind_phase2_forced+0x54>
    98cc:	f1ba 0f07 	cmp.w	sl, #7
    98d0:	d005      	beq.n	98de <unwind_phase2_forced+0xde>
    98d2:	2609      	movs	r6, #9
    98d4:	4630      	mov	r0, r6
    98d6:	f50d 7d72 	add.w	sp, sp, #968	; 0x3c8
    98da:	e8bd 87f0 	ldmia.w	sp!, {r4, r5, r6, r7, r8, r9, sl, pc}
    98de:	4630      	mov	r0, r6
    98e0:	6c21      	ldr	r1, [r4, #64]	; 0x40
    98e2:	f7ff ff6b 	bl	97bc <_Unwind_DebugHook>
    98e6:	a803      	add	r0, sp, #12
    98e8:	f000 fbf4 	bl	a0d4 <__restore_core_regs>

000098ec <_Unwind_GetCFA>:
    98ec:	6c40      	ldr	r0, [r0, #68]	; 0x44
    98ee:	4770      	bx	lr

000098f0 <__gnu_Unwind_RaiseException>:
    98f0:	6bcb      	ldr	r3, [r1, #60]	; 0x3c
    98f2:	b5f0      	push	{r4, r5, r6, r7, lr}
    98f4:	1d0e      	adds	r6, r1, #4
    98f6:	640b      	str	r3, [r1, #64]	; 0x40
    98f8:	460f      	mov	r7, r1
    98fa:	4604      	mov	r4, r0
    98fc:	b0f9      	sub	sp, #484	; 0x1e4
    98fe:	ce0f      	ldmia	r6!, {r0, r1, r2, r3}
    9900:	ad01      	add	r5, sp, #4
    9902:	f04f 3eff 	mov.w	lr, #4294967295
    9906:	c50f      	stmia	r5!, {r0, r1, r2, r3}
    9908:	ce0f      	ldmia	r6!, {r0, r1, r2, r3}
    990a:	c50f      	stmia	r5!, {r0, r1, r2, r3}
    990c:	ce0f      	ldmia	r6!, {r0, r1, r2, r3}
    990e:	c50f      	stmia	r5!, {r0, r1, r2, r3}
    9910:	e896 000f 	ldmia.w	r6, {r0, r1, r2, r3}
    9914:	e885 000f 	stmia.w	r5, {r0, r1, r2, r3}
    9918:	f8cd e000 	str.w	lr, [sp]
    991c:	e006      	b.n	992c <__gnu_Unwind_RaiseException+0x3c>
    991e:	6923      	ldr	r3, [r4, #16]
    9920:	4621      	mov	r1, r4
    9922:	466a      	mov	r2, sp
    9924:	4798      	blx	r3
    9926:	2808      	cmp	r0, #8
    9928:	4605      	mov	r5, r0
    992a:	d108      	bne.n	993e <__gnu_Unwind_RaiseException+0x4e>
    992c:	4620      	mov	r0, r4
    992e:	9910      	ldr	r1, [sp, #64]	; 0x40
    9930:	f7ff fec0 	bl	96b4 <get_eit_entry>
    9934:	2800      	cmp	r0, #0
    9936:	d0f2      	beq.n	991e <__gnu_Unwind_RaiseException+0x2e>
    9938:	2009      	movs	r0, #9
    993a:	b079      	add	sp, #484	; 0x1e4
    993c:	bdf0      	pop	{r4, r5, r6, r7, pc}
    993e:	4668      	mov	r0, sp
    9940:	f7ff ff08 	bl	9754 <restore_non_core_regs>
    9944:	2d06      	cmp	r5, #6
    9946:	d1f7      	bne.n	9938 <__gnu_Unwind_RaiseException+0x48>
    9948:	4620      	mov	r0, r4
    994a:	4639      	mov	r1, r7
    994c:	f7ff ff38 	bl	97c0 <unwind_phase2>

00009950 <__gnu_Unwind_ForcedUnwind>:
    9950:	b430      	push	{r4, r5}
    9952:	6bdd      	ldr	r5, [r3, #60]	; 0x3c
    9954:	60c1      	str	r1, [r0, #12]
    9956:	4619      	mov	r1, r3
    9958:	6182      	str	r2, [r0, #24]
    995a:	2200      	movs	r2, #0
    995c:	641d      	str	r5, [r3, #64]	; 0x40
    995e:	bc30      	pop	{r4, r5}
    9960:	e74e      	b.n	9800 <unwind_phase2_forced>
    9962:	bf00      	nop

00009964 <__gnu_Unwind_Resume>:
    9964:	b570      	push	{r4, r5, r6, lr}
    9966:	4604      	mov	r4, r0
    9968:	6943      	ldr	r3, [r0, #20]
    996a:	460d      	mov	r5, r1
    996c:	68c6      	ldr	r6, [r0, #12]
    996e:	640b      	str	r3, [r1, #64]	; 0x40
    9970:	b126      	cbz	r6, 997c <__gnu_Unwind_Resume+0x18>
    9972:	2201      	movs	r2, #1
    9974:	f7ff ff44 	bl	9800 <unwind_phase2_forced>
    9978:	f7fe fa4a 	bl	7e10 <abort>
    997c:	6903      	ldr	r3, [r0, #16]
    997e:	4621      	mov	r1, r4
    9980:	2002      	movs	r0, #2
    9982:	462a      	mov	r2, r5
    9984:	4798      	blx	r3
    9986:	2807      	cmp	r0, #7
    9988:	d007      	beq.n	999a <__gnu_Unwind_Resume+0x36>
    998a:	2808      	cmp	r0, #8
    998c:	d103      	bne.n	9996 <__gnu_Unwind_Resume+0x32>
    998e:	4620      	mov	r0, r4
    9990:	4629      	mov	r1, r5
    9992:	f7ff ff15 	bl	97c0 <unwind_phase2>
    9996:	f7fe fa3b 	bl	7e10 <abort>
    999a:	4630      	mov	r0, r6
    999c:	6c29      	ldr	r1, [r5, #64]	; 0x40
    999e:	f7ff ff0d 	bl	97bc <_Unwind_DebugHook>
    99a2:	1d28      	adds	r0, r5, #4
    99a4:	f000 fb96 	bl	a0d4 <__restore_core_regs>

000099a8 <__gnu_Unwind_Resume_or_Rethrow>:
    99a8:	68c2      	ldr	r2, [r0, #12]
    99aa:	b132      	cbz	r2, 99ba <__gnu_Unwind_Resume_or_Rethrow+0x12>
    99ac:	b410      	push	{r4}
    99ae:	2200      	movs	r2, #0
    99b0:	6bcc      	ldr	r4, [r1, #60]	; 0x3c
    99b2:	640c      	str	r4, [r1, #64]	; 0x40
    99b4:	f85d 4b04 	ldr.w	r4, [sp], #4
    99b8:	e722      	b.n	9800 <unwind_phase2_forced>
    99ba:	e799      	b.n	98f0 <__gnu_Unwind_RaiseException>

000099bc <_Unwind_Complete>:
    99bc:	4770      	bx	lr
    99be:	bf00      	nop

000099c0 <_Unwind_DeleteException>:
    99c0:	6883      	ldr	r3, [r0, #8]
    99c2:	b113      	cbz	r3, 99ca <_Unwind_DeleteException+0xa>
    99c4:	4601      	mov	r1, r0
    99c6:	2001      	movs	r0, #1
    99c8:	4718      	bx	r3
    99ca:	4770      	bx	lr

000099cc <_Unwind_VRS_Get>:
    99cc:	b500      	push	{lr}
    99ce:	2904      	cmp	r1, #4
    99d0:	d80b      	bhi.n	99ea <_Unwind_VRS_Get+0x1e>
    99d2:	e8df f001 	tbb	[pc, r1]
    99d6:	0d03      	.short	0x0d03
    99d8:	0d0a      	.short	0x0d0a
    99da:	0d          	.byte	0x0d
    99db:	00          	.byte	0x00
    99dc:	2a0f      	cmp	r2, #15
    99de:	bf98      	it	ls
    99e0:	2b00      	cmpls	r3, #0
    99e2:	bf14      	ite	ne
    99e4:	2301      	movne	r3, #1
    99e6:	2300      	moveq	r3, #0
    99e8:	d005      	beq.n	99f6 <_Unwind_VRS_Get+0x2a>
    99ea:	2002      	movs	r0, #2
    99ec:	f85d fb04 	ldr.w	pc, [sp], #4
    99f0:	2001      	movs	r0, #1
    99f2:	f85d fb04 	ldr.w	pc, [sp], #4
    99f6:	eb00 0282 	add.w	r2, r0, r2, lsl #2
    99fa:	4618      	mov	r0, r3
    99fc:	6853      	ldr	r3, [r2, #4]
    99fe:	9a01      	ldr	r2, [sp, #4]
    9a00:	6013      	str	r3, [r2, #0]
    9a02:	f85d fb04 	ldr.w	pc, [sp], #4
    9a06:	bf00      	nop

00009a08 <_Unwind_GetGR>:
    9a08:	b510      	push	{r4, lr}
    9a0a:	b084      	sub	sp, #16
    9a0c:	460a      	mov	r2, r1
    9a0e:	2100      	movs	r1, #0
    9a10:	460b      	mov	r3, r1
    9a12:	ac03      	add	r4, sp, #12
    9a14:	9400      	str	r4, [sp, #0]
    9a16:	f7ff ffd9 	bl	99cc <_Unwind_VRS_Get>
    9a1a:	9803      	ldr	r0, [sp, #12]
    9a1c:	b004      	add	sp, #16
    9a1e:	bd10      	pop	{r4, pc}

00009a20 <_Unwind_VRS_Set>:
    9a20:	b500      	push	{lr}
    9a22:	2904      	cmp	r1, #4
    9a24:	d80b      	bhi.n	9a3e <_Unwind_VRS_Set+0x1e>
    9a26:	e8df f001 	tbb	[pc, r1]
    9a2a:	0d03      	.short	0x0d03
    9a2c:	0d0a      	.short	0x0d0a
    9a2e:	0d          	.byte	0x0d
    9a2f:	00          	.byte	0x00
    9a30:	2a0f      	cmp	r2, #15
    9a32:	bf98      	it	ls
    9a34:	2b00      	cmpls	r3, #0
    9a36:	bf14      	ite	ne
    9a38:	2301      	movne	r3, #1
    9a3a:	2300      	moveq	r3, #0
    9a3c:	d005      	beq.n	9a4a <_Unwind_VRS_Set+0x2a>
    9a3e:	2002      	movs	r0, #2
    9a40:	f85d fb04 	ldr.w	pc, [sp], #4
    9a44:	2001      	movs	r0, #1
    9a46:	f85d fb04 	ldr.w	pc, [sp], #4
    9a4a:	9901      	ldr	r1, [sp, #4]
    9a4c:	eb00 0282 	add.w	r2, r0, r2, lsl #2
    9a50:	4618      	mov	r0, r3
    9a52:	6809      	ldr	r1, [r1, #0]
    9a54:	6051      	str	r1, [r2, #4]
    9a56:	f85d fb04 	ldr.w	pc, [sp], #4
    9a5a:	bf00      	nop

00009a5c <_Unwind_SetGR>:
    9a5c:	b530      	push	{r4, r5, lr}
    9a5e:	b085      	sub	sp, #20
    9a60:	ac04      	add	r4, sp, #16
    9a62:	460d      	mov	r5, r1
    9a64:	2100      	movs	r1, #0
    9a66:	f844 2d04 	str.w	r2, [r4, #-4]!
    9a6a:	460b      	mov	r3, r1
    9a6c:	9400      	str	r4, [sp, #0]
    9a6e:	462a      	mov	r2, r5
    9a70:	f7ff ffd6 	bl	9a20 <_Unwind_VRS_Set>
    9a74:	b005      	add	sp, #20
    9a76:	bd30      	pop	{r4, r5, pc}

00009a78 <__gnu_Unwind_Backtrace>:
    9a78:	6bd3      	ldr	r3, [r2, #60]	; 0x3c
    9a7a:	b5f0      	push	{r4, r5, r6, r7, lr}
    9a7c:	1d15      	adds	r5, r2, #4
    9a7e:	6413      	str	r3, [r2, #64]	; 0x40
    9a80:	4607      	mov	r7, r0
    9a82:	460e      	mov	r6, r1
    9a84:	f5ad 7d0f 	sub.w	sp, sp, #572	; 0x23c
    9a88:	cd0f      	ldmia	r5!, {r0, r1, r2, r3}
    9a8a:	ac17      	add	r4, sp, #92	; 0x5c
    9a8c:	f04f 3eff 	mov.w	lr, #4294967295
    9a90:	c40f      	stmia	r4!, {r0, r1, r2, r3}
    9a92:	cd0f      	ldmia	r5!, {r0, r1, r2, r3}
    9a94:	c40f      	stmia	r4!, {r0, r1, r2, r3}
    9a96:	cd0f      	ldmia	r5!, {r0, r1, r2, r3}
    9a98:	c40f      	stmia	r4!, {r0, r1, r2, r3}
    9a9a:	e895 000f 	ldmia.w	r5, {r0, r1, r2, r3}
    9a9e:	e884 000f 	stmia.w	r4, {r0, r1, r2, r3}
    9aa2:	f8cd e058 	str.w	lr, [sp, #88]	; 0x58
    9aa6:	e010      	b.n	9aca <__gnu_Unwind_Backtrace+0x52>
    9aa8:	a816      	add	r0, sp, #88	; 0x58
    9aaa:	f7ff ffd7 	bl	9a5c <_Unwind_SetGR>
    9aae:	4631      	mov	r1, r6
    9ab0:	a816      	add	r0, sp, #88	; 0x58
    9ab2:	47b8      	blx	r7
    9ab4:	4669      	mov	r1, sp
    9ab6:	aa16      	add	r2, sp, #88	; 0x58
    9ab8:	b978      	cbnz	r0, 9ada <__gnu_Unwind_Backtrace+0x62>
    9aba:	9b04      	ldr	r3, [sp, #16]
    9abc:	2008      	movs	r0, #8
    9abe:	4798      	blx	r3
    9ac0:	1f43      	subs	r3, r0, #5
    9ac2:	4604      	mov	r4, r0
    9ac4:	f013 0ffb 	tst.w	r3, #251	; 0xfb
    9ac8:	d008      	beq.n	9adc <__gnu_Unwind_Backtrace+0x64>
    9aca:	9926      	ldr	r1, [sp, #152]	; 0x98
    9acc:	4668      	mov	r0, sp
    9ace:	f7ff fdf1 	bl	96b4 <get_eit_entry>
    9ad2:	466a      	mov	r2, sp
    9ad4:	210c      	movs	r1, #12
    9ad6:	2800      	cmp	r0, #0
    9ad8:	d0e6      	beq.n	9aa8 <__gnu_Unwind_Backtrace+0x30>
    9ada:	2409      	movs	r4, #9
    9adc:	a816      	add	r0, sp, #88	; 0x58
    9ade:	f7ff fe39 	bl	9754 <restore_non_core_regs>
    9ae2:	4620      	mov	r0, r4
    9ae4:	f50d 7d0f 	add.w	sp, sp, #572	; 0x23c
    9ae8:	bdf0      	pop	{r4, r5, r6, r7, pc}
    9aea:	bf00      	nop

00009aec <__gnu_unwind_pr_common>:
    9aec:	e92d 4ff0 	stmdb	sp!, {r4, r5, r6, r7, r8, r9, sl, fp, lr}
    9af0:	460c      	mov	r4, r1
    9af2:	6cc9      	ldr	r1, [r1, #76]	; 0x4c
    9af4:	4690      	mov	r8, r2
    9af6:	b089      	sub	sp, #36	; 0x24
    9af8:	461d      	mov	r5, r3
    9afa:	f000 0703 	and.w	r7, r0, #3
    9afe:	1d0b      	adds	r3, r1, #4
    9b00:	680a      	ldr	r2, [r1, #0]
    9b02:	9306      	str	r3, [sp, #24]
    9b04:	9205      	str	r2, [sp, #20]
    9b06:	2d00      	cmp	r5, #0
    9b08:	f040 809a 	bne.w	9c40 <__gnu_unwind_pr_common+0x154>
    9b0c:	0212      	lsls	r2, r2, #8
    9b0e:	f88d 501d 	strb.w	r5, [sp, #29]
    9b12:	9205      	str	r2, [sp, #20]
    9b14:	2203      	movs	r2, #3
    9b16:	f88d 201c 	strb.w	r2, [sp, #28]
    9b1a:	2f02      	cmp	r7, #2
    9b1c:	6d22      	ldr	r2, [r4, #80]	; 0x50
    9b1e:	bf08      	it	eq
    9b20:	6ba3      	ldreq	r3, [r4, #56]	; 0x38
    9b22:	f012 0201 	ands.w	r2, r2, #1
    9b26:	d17e      	bne.n	9c26 <__gnu_unwind_pr_common+0x13a>
    9b28:	f000 0008 	and.w	r0, r0, #8
    9b2c:	9200      	str	r2, [sp, #0]
    9b2e:	b2c2      	uxtb	r2, r0
    9b30:	9201      	str	r2, [sp, #4]
    9b32:	681e      	ldr	r6, [r3, #0]
    9b34:	2e00      	cmp	r6, #0
    9b36:	d078      	beq.n	9c2a <__gnu_unwind_pr_common+0x13e>
    9b38:	2d02      	cmp	r5, #2
    9b3a:	4640      	mov	r0, r8
    9b3c:	bf0a      	itet	eq
    9b3e:	f103 0a08 	addeq.w	sl, r3, #8
    9b42:	f103 0a04 	addne.w	sl, r3, #4
    9b46:	f8d3 9004 	ldreq.w	r9, [r3, #4]
    9b4a:	f04f 010f 	mov.w	r1, #15
    9b4e:	bf1c      	itt	ne
    9b50:	f8b3 9002 	ldrhne.w	r9, [r3, #2]
    9b54:	881e      	ldrhne	r6, [r3, #0]
    9b56:	6ca3      	ldr	r3, [r4, #72]	; 0x48
    9b58:	f029 0b01 	bic.w	fp, r9, #1
    9b5c:	f009 0901 	and.w	r9, r9, #1
    9b60:	449b      	add	fp, r3
    9b62:	f7ff ff51 	bl	9a08 <_Unwind_GetGR>
    9b66:	4583      	cmp	fp, r0
    9b68:	d846      	bhi.n	9bf8 <__gnu_unwind_pr_common+0x10c>
    9b6a:	f026 0301 	bic.w	r3, r6, #1
    9b6e:	445b      	add	r3, fp
    9b70:	4298      	cmp	r0, r3
    9b72:	d241      	bcs.n	9bf8 <__gnu_unwind_pr_common+0x10c>
    9b74:	f006 0601 	and.w	r6, r6, #1
    9b78:	ea46 0649 	orr.w	r6, r6, r9, lsl #1
    9b7c:	2e01      	cmp	r6, #1
    9b7e:	d074      	beq.n	9c6a <__gnu_unwind_pr_common+0x17e>
    9b80:	d36d      	bcc.n	9c5e <__gnu_unwind_pr_common+0x172>
    9b82:	2e02      	cmp	r6, #2
    9b84:	d157      	bne.n	9c36 <__gnu_unwind_pr_common+0x14a>
    9b86:	f8da 3000 	ldr.w	r3, [sl]
    9b8a:	f023 4600 	bic.w	r6, r3, #2147483648	; 0x80000000
    9b8e:	2f00      	cmp	r7, #0
    9b90:	f040 80bc 	bne.w	9d0c <__gnu_unwind_pr_common+0x220>
    9b94:	9a01      	ldr	r2, [sp, #4]
    9b96:	2a00      	cmp	r2, #0
    9b98:	bf18      	it	ne
    9b9a:	2e00      	cmpne	r6, #0
    9b9c:	d13b      	bne.n	9c16 <__gnu_unwind_pr_common+0x12a>
    9b9e:	b306      	cbz	r6, 9be2 <__gnu_unwind_pr_common+0xf6>
    9ba0:	f104 0358 	add.w	r3, r4, #88	; 0x58
    9ba4:	9503      	str	r5, [sp, #12]
    9ba6:	f10a 0b04 	add.w	fp, sl, #4
    9baa:	46b9      	mov	r9, r7
    9bac:	9702      	str	r7, [sp, #8]
    9bae:	461d      	mov	r5, r3
    9bb0:	e002      	b.n	9bb8 <__gnu_unwind_pr_common+0xcc>
    9bb2:	42b7      	cmp	r7, r6
    9bb4:	46b9      	mov	r9, r7
    9bb6:	d014      	beq.n	9be2 <__gnu_unwind_pr_common+0xf6>
    9bb8:	4658      	mov	r0, fp
    9bba:	9504      	str	r5, [sp, #16]
    9bbc:	f7ff fdf6 	bl	97ac <_Unwind_decode_typeinfo_ptr.isra.0>
    9bc0:	2200      	movs	r2, #0
    9bc2:	ab04      	add	r3, sp, #16
    9bc4:	f109 0701 	add.w	r7, r9, #1
    9bc8:	f10b 0b04 	add.w	fp, fp, #4
    9bcc:	4601      	mov	r1, r0
    9bce:	4620      	mov	r0, r4
    9bd0:	f3af 8000 	nop.w
    9bd4:	2800      	cmp	r0, #0
    9bd6:	d0ec      	beq.n	9bb2 <__gnu_unwind_pr_common+0xc6>
    9bd8:	45b1      	cmp	r9, r6
    9bda:	9f02      	ldr	r7, [sp, #8]
    9bdc:	9d03      	ldr	r5, [sp, #12]
    9bde:	f040 809d 	bne.w	9d1c <__gnu_unwind_pr_common+0x230>
    9be2:	4640      	mov	r0, r8
    9be4:	210d      	movs	r1, #13
    9be6:	f7ff ff0f 	bl	9a08 <_Unwind_GetGR>
    9bea:	9a04      	ldr	r2, [sp, #16]
    9bec:	f8c4 a028 	str.w	sl, [r4, #40]	; 0x28
    9bf0:	2306      	movs	r3, #6
    9bf2:	6262      	str	r2, [r4, #36]	; 0x24
    9bf4:	6220      	str	r0, [r4, #32]
    9bf6:	e01f      	b.n	9c38 <__gnu_unwind_pr_common+0x14c>
    9bf8:	f006 0601 	and.w	r6, r6, #1
    9bfc:	ea46 0649 	orr.w	r6, r6, r9, lsl #1
    9c00:	2e01      	cmp	r6, #1
    9c02:	d059      	beq.n	9cb8 <__gnu_unwind_pr_common+0x1cc>
    9c04:	d32e      	bcc.n	9c64 <__gnu_unwind_pr_common+0x178>
    9c06:	2e02      	cmp	r6, #2
    9c08:	d115      	bne.n	9c36 <__gnu_unwind_pr_common+0x14a>
    9c0a:	f8da 3000 	ldr.w	r3, [sl]
    9c0e:	f023 4600 	bic.w	r6, r3, #2147483648	; 0x80000000
    9c12:	2f00      	cmp	r7, #0
    9c14:	d17a      	bne.n	9d0c <__gnu_unwind_pr_common+0x220>
    9c16:	2b00      	cmp	r3, #0
    9c18:	bfb8      	it	lt
    9c1a:	f10a 0a04 	addlt.w	sl, sl, #4
    9c1e:	3601      	adds	r6, #1
    9c20:	eb0a 0386 	add.w	r3, sl, r6, lsl #2
    9c24:	e785      	b.n	9b32 <__gnu_unwind_pr_common+0x46>
    9c26:	2300      	movs	r3, #0
    9c28:	9300      	str	r3, [sp, #0]
    9c2a:	2d02      	cmp	r5, #2
    9c2c:	dd48      	ble.n	9cc0 <__gnu_unwind_pr_common+0x1d4>
    9c2e:	f7ff fdc3 	bl	97b8 <__gnu_unwind_24bit.isra.1>
    9c32:	2800      	cmp	r0, #0
    9c34:	d04a      	beq.n	9ccc <__gnu_unwind_pr_common+0x1e0>
    9c36:	2309      	movs	r3, #9
    9c38:	4618      	mov	r0, r3
    9c3a:	b009      	add	sp, #36	; 0x24
    9c3c:	e8bd 8ff0 	ldmia.w	sp!, {r4, r5, r6, r7, r8, r9, sl, fp, pc}
    9c40:	2d02      	cmp	r5, #2
    9c42:	f73f af6a 	bgt.w	9b1a <__gnu_unwind_pr_common+0x2e>
    9c46:	0c11      	lsrs	r1, r2, #16
    9c48:	f88d 101d 	strb.w	r1, [sp, #29]
    9c4c:	0412      	lsls	r2, r2, #16
    9c4e:	2602      	movs	r6, #2
    9c50:	b2c9      	uxtb	r1, r1
    9c52:	9205      	str	r2, [sp, #20]
    9c54:	f88d 601c 	strb.w	r6, [sp, #28]
    9c58:	eb03 0381 	add.w	r3, r3, r1, lsl #2
    9c5c:	e75d      	b.n	9b1a <__gnu_unwind_pr_common+0x2e>
    9c5e:	2f00      	cmp	r7, #0
    9c60:	f040 8090 	bne.w	9d84 <__gnu_unwind_pr_common+0x298>
    9c64:	f10a 0304 	add.w	r3, sl, #4
    9c68:	e763      	b.n	9b32 <__gnu_unwind_pr_common+0x46>
    9c6a:	2f00      	cmp	r7, #0
    9c6c:	d135      	bne.n	9cda <__gnu_unwind_pr_common+0x1ee>
    9c6e:	e89a 000c 	ldmia.w	sl, {r2, r3}
    9c72:	0fd6      	lsrs	r6, r2, #31
    9c74:	1c9a      	adds	r2, r3, #2
    9c76:	d0de      	beq.n	9c36 <__gnu_unwind_pr_common+0x14a>
    9c78:	3301      	adds	r3, #1
    9c7a:	f104 0258 	add.w	r2, r4, #88	; 0x58
    9c7e:	9204      	str	r2, [sp, #16]
    9c80:	d075      	beq.n	9d6e <__gnu_unwind_pr_common+0x282>
    9c82:	f10a 0004 	add.w	r0, sl, #4
    9c86:	f7ff fd91 	bl	97ac <_Unwind_decode_typeinfo_ptr.isra.0>
    9c8a:	4632      	mov	r2, r6
    9c8c:	ab04      	add	r3, sp, #16
    9c8e:	4601      	mov	r1, r0
    9c90:	4620      	mov	r0, r4
    9c92:	f3af 8000 	nop.w
    9c96:	b180      	cbz	r0, 9cba <__gnu_unwind_pr_common+0x1ce>
    9c98:	4681      	mov	r9, r0
    9c9a:	210d      	movs	r1, #13
    9c9c:	4640      	mov	r0, r8
    9c9e:	4656      	mov	r6, sl
    9ca0:	f7ff feb2 	bl	9a08 <_Unwind_GetGR>
    9ca4:	f1b9 0f02 	cmp.w	r9, #2
    9ca8:	6220      	str	r0, [r4, #32]
    9caa:	d166      	bne.n	9d7a <__gnu_unwind_pr_common+0x28e>
    9cac:	9a04      	ldr	r2, [sp, #16]
    9cae:	4623      	mov	r3, r4
    9cb0:	f843 2f2c 	str.w	r2, [r3, #44]!
    9cb4:	6263      	str	r3, [r4, #36]	; 0x24
    9cb6:	e062      	b.n	9d7e <__gnu_unwind_pr_common+0x292>
    9cb8:	b97f      	cbnz	r7, 9cda <__gnu_unwind_pr_common+0x1ee>
    9cba:	f10a 0308 	add.w	r3, sl, #8
    9cbe:	e738      	b.n	9b32 <__gnu_unwind_pr_common+0x46>
    9cc0:	4640      	mov	r0, r8
    9cc2:	a905      	add	r1, sp, #20
    9cc4:	f000 fb0a 	bl	a2dc <__gnu_unwind_execute>
    9cc8:	2800      	cmp	r0, #0
    9cca:	d1b4      	bne.n	9c36 <__gnu_unwind_pr_common+0x14a>
    9ccc:	9b00      	ldr	r3, [sp, #0]
    9cce:	bb43      	cbnz	r3, 9d22 <__gnu_unwind_pr_common+0x236>
    9cd0:	2308      	movs	r3, #8
    9cd2:	4618      	mov	r0, r3
    9cd4:	b009      	add	sp, #36	; 0x24
    9cd6:	e8bd 8ff0 	ldmia.w	sp!, {r4, r5, r6, r7, r8, r9, sl, fp, pc}
    9cda:	4640      	mov	r0, r8
    9cdc:	210d      	movs	r1, #13
    9cde:	6a26      	ldr	r6, [r4, #32]
    9ce0:	f7ff fe92 	bl	9a08 <_Unwind_GetGR>
    9ce4:	4286      	cmp	r6, r0
    9ce6:	d1e8      	bne.n	9cba <__gnu_unwind_pr_common+0x1ce>
    9ce8:	6aa3      	ldr	r3, [r4, #40]	; 0x28
    9cea:	459a      	cmp	sl, r3
    9cec:	d1e5      	bne.n	9cba <__gnu_unwind_pr_common+0x1ce>
    9cee:	4650      	mov	r0, sl
    9cf0:	f7ff fc88 	bl	9604 <selfrel_offset31>
    9cf4:	210f      	movs	r1, #15
    9cf6:	4602      	mov	r2, r0
    9cf8:	4640      	mov	r0, r8
    9cfa:	f7ff feaf 	bl	9a5c <_Unwind_SetGR>
    9cfe:	4640      	mov	r0, r8
    9d00:	4622      	mov	r2, r4
    9d02:	2100      	movs	r1, #0
    9d04:	f7ff feaa 	bl	9a5c <_Unwind_SetGR>
    9d08:	2307      	movs	r3, #7
    9d0a:	e795      	b.n	9c38 <__gnu_unwind_pr_common+0x14c>
    9d0c:	4640      	mov	r0, r8
    9d0e:	210d      	movs	r1, #13
    9d10:	f8d4 9020 	ldr.w	r9, [r4, #32]
    9d14:	f7ff fe78 	bl	9a08 <_Unwind_GetGR>
    9d18:	4581      	cmp	r9, r0
    9d1a:	d015      	beq.n	9d48 <__gnu_unwind_pr_common+0x25c>
    9d1c:	f8da 3000 	ldr.w	r3, [sl]
    9d20:	e779      	b.n	9c16 <__gnu_unwind_pr_common+0x12a>
    9d22:	210f      	movs	r1, #15
    9d24:	4640      	mov	r0, r8
    9d26:	f7ff fe6f 	bl	9a08 <_Unwind_GetGR>
    9d2a:	210e      	movs	r1, #14
    9d2c:	4602      	mov	r2, r0
    9d2e:	4640      	mov	r0, r8
    9d30:	f7ff fe94 	bl	9a5c <_Unwind_SetGR>
    9d34:	f240 0200 	movw	r2, #0
    9d38:	4640      	mov	r0, r8
    9d3a:	210f      	movs	r1, #15
    9d3c:	f2c0 0200 	movt	r2, #0
    9d40:	f7ff fe8c 	bl	9a5c <_Unwind_SetGR>
    9d44:	2307      	movs	r3, #7
    9d46:	e777      	b.n	9c38 <__gnu_unwind_pr_common+0x14c>
    9d48:	6aa3      	ldr	r3, [r4, #40]	; 0x28
    9d4a:	459a      	cmp	sl, r3
    9d4c:	d1e6      	bne.n	9d1c <__gnu_unwind_pr_common+0x230>
    9d4e:	f04f 0900 	mov.w	r9, #0
    9d52:	2304      	movs	r3, #4
    9d54:	62a6      	str	r6, [r4, #40]	; 0x28
    9d56:	6323      	str	r3, [r4, #48]	; 0x30
    9d58:	4453      	add	r3, sl
    9d5a:	f8c4 902c 	str.w	r9, [r4, #44]	; 0x2c
    9d5e:	6363      	str	r3, [r4, #52]	; 0x34
    9d60:	f8da 3000 	ldr.w	r3, [sl]
    9d64:	454b      	cmp	r3, r9
    9d66:	db21      	blt.n	9dac <__gnu_unwind_pr_common+0x2c0>
    9d68:	2301      	movs	r3, #1
    9d6a:	9300      	str	r3, [sp, #0]
    9d6c:	e757      	b.n	9c1e <__gnu_unwind_pr_common+0x132>
    9d6e:	4640      	mov	r0, r8
    9d70:	210d      	movs	r1, #13
    9d72:	f7ff fe49 	bl	9a08 <_Unwind_GetGR>
    9d76:	4656      	mov	r6, sl
    9d78:	6220      	str	r0, [r4, #32]
    9d7a:	9b04      	ldr	r3, [sp, #16]
    9d7c:	6263      	str	r3, [r4, #36]	; 0x24
    9d7e:	62a6      	str	r6, [r4, #40]	; 0x28
    9d80:	2306      	movs	r3, #6
    9d82:	e759      	b.n	9c38 <__gnu_unwind_pr_common+0x14c>
    9d84:	4650      	mov	r0, sl
    9d86:	4656      	mov	r6, sl
    9d88:	f7ff fc3c 	bl	9604 <selfrel_offset31>
    9d8c:	3604      	adds	r6, #4
    9d8e:	63a6      	str	r6, [r4, #56]	; 0x38
    9d90:	4605      	mov	r5, r0
    9d92:	4620      	mov	r0, r4
    9d94:	f3af 8000 	nop.w
    9d98:	2800      	cmp	r0, #0
    9d9a:	f43f af4c 	beq.w	9c36 <__gnu_unwind_pr_common+0x14a>
    9d9e:	4640      	mov	r0, r8
    9da0:	462a      	mov	r2, r5
    9da2:	210f      	movs	r1, #15
    9da4:	f7ff fe5a 	bl	9a5c <_Unwind_SetGR>
    9da8:	2307      	movs	r3, #7
    9daa:	e745      	b.n	9c38 <__gnu_unwind_pr_common+0x14c>
    9dac:	46b3      	mov	fp, r6
    9dae:	f10b 0001 	add.w	r0, fp, #1
    9db2:	eb0a 0080 	add.w	r0, sl, r0, lsl #2
    9db6:	f7ff fc25 	bl	9604 <selfrel_offset31>
    9dba:	210f      	movs	r1, #15
    9dbc:	4602      	mov	r2, r0
    9dbe:	4640      	mov	r0, r8
    9dc0:	f7ff fe4c 	bl	9a5c <_Unwind_SetGR>
    9dc4:	4640      	mov	r0, r8
    9dc6:	4649      	mov	r1, r9
    9dc8:	4622      	mov	r2, r4
    9dca:	f7ff fe47 	bl	9a5c <_Unwind_SetGR>
    9dce:	2307      	movs	r3, #7
    9dd0:	e732      	b.n	9c38 <__gnu_unwind_pr_common+0x14c>
    9dd2:	bf00      	nop

00009dd4 <__aeabi_unwind_cpp_pr0>:
    9dd4:	2300      	movs	r3, #0
    9dd6:	e689      	b.n	9aec <__gnu_unwind_pr_common>

00009dd8 <__aeabi_unwind_cpp_pr1>:
    9dd8:	2301      	movs	r3, #1
    9dda:	e687      	b.n	9aec <__gnu_unwind_pr_common>

00009ddc <__aeabi_unwind_cpp_pr2>:
    9ddc:	2302      	movs	r3, #2
    9dde:	e685      	b.n	9aec <__gnu_unwind_pr_common>

00009de0 <_Unwind_VRS_Pop>:
    9de0:	e92d 43f0 	stmdb	sp!, {r4, r5, r6, r7, r8, r9, lr}
    9de4:	4606      	mov	r6, r0
    9de6:	b0c5      	sub	sp, #276	; 0x114
    9de8:	2904      	cmp	r1, #4
    9dea:	d807      	bhi.n	9dfc <_Unwind_VRS_Pop+0x1c>
    9dec:	e8df f001 	tbb	[pc, r1]
    9df0:	03062c69 	.word	0x03062c69
    9df4:	0a          	.byte	0x0a
    9df5:	00          	.byte	0x00
    9df6:	2b03      	cmp	r3, #3
    9df8:	f000 80d5 	beq.w	9fa6 <_Unwind_VRS_Pop+0x1c6>
    9dfc:	2002      	movs	r0, #2
    9dfe:	b045      	add	sp, #276	; 0x114
    9e00:	e8bd 83f0 	ldmia.w	sp!, {r4, r5, r6, r7, r8, r9, pc}
    9e04:	2a10      	cmp	r2, #16
    9e06:	bf98      	it	ls
    9e08:	2b00      	cmpls	r3, #0
    9e0a:	d1f7      	bne.n	9dfc <_Unwind_VRS_Pop+0x1c>
    9e0c:	6833      	ldr	r3, [r6, #0]
    9e0e:	06d8      	lsls	r0, r3, #27
    9e10:	f100 80ec 	bmi.w	9fec <_Unwind_VRS_Pop+0x20c>
    9e14:	ad22      	add	r5, sp, #136	; 0x88
    9e16:	9201      	str	r2, [sp, #4]
    9e18:	4628      	mov	r0, r5
    9e1a:	f000 f9cd 	bl	a1b8 <__gnu_Unwind_Save_WMMXC>
    9e1e:	6bb4      	ldr	r4, [r6, #56]	; 0x38
    9e20:	9a01      	ldr	r2, [sp, #4]
    9e22:	2300      	movs	r3, #0
    9e24:	2001      	movs	r0, #1
    9e26:	fa00 f103 	lsl.w	r1, r0, r3
    9e2a:	4211      	tst	r1, r2
    9e2c:	bf1e      	ittt	ne
    9e2e:	6821      	ldrne	r1, [r4, #0]
    9e30:	3404      	addne	r4, #4
    9e32:	f845 1023 	strne.w	r1, [r5, r3, lsl #2]
    9e36:	3301      	adds	r3, #1
    9e38:	2b04      	cmp	r3, #4
    9e3a:	d1f4      	bne.n	9e26 <_Unwind_VRS_Pop+0x46>
    9e3c:	4628      	mov	r0, r5
    9e3e:	63b4      	str	r4, [r6, #56]	; 0x38
    9e40:	f000 f9b0 	bl	a1a4 <__gnu_Unwind_Restore_WMMXC>
    9e44:	2000      	movs	r0, #0
    9e46:	e7da      	b.n	9dfe <_Unwind_VRS_Pop+0x1e>
    9e48:	f003 01fb 	and.w	r1, r3, #251	; 0xfb
    9e4c:	2901      	cmp	r1, #1
    9e4e:	d1d5      	bne.n	9dfc <_Unwind_VRS_Pop+0x1c>
    9e50:	2b01      	cmp	r3, #1
    9e52:	ea4f 4712 	mov.w	r7, r2, lsr #16
    9e56:	fa1f f882 	uxth.w	r8, r2
    9e5a:	eb08 0107 	add.w	r1, r8, r7
    9e5e:	d048      	beq.n	9ef2 <_Unwind_VRS_Pop+0x112>
    9e60:	2920      	cmp	r1, #32
    9e62:	d8cb      	bhi.n	9dfc <_Unwind_VRS_Pop+0x1c>
    9e64:	2f0f      	cmp	r7, #15
    9e66:	f240 80d7 	bls.w	a018 <_Unwind_VRS_Pop+0x238>
    9e6a:	4644      	mov	r4, r8
    9e6c:	2c00      	cmp	r4, #0
    9e6e:	bf18      	it	ne
    9e70:	2b05      	cmpne	r3, #5
    9e72:	bf14      	ite	ne
    9e74:	f04f 0901 	movne.w	r9, #1
    9e78:	f04f 0900 	moveq.w	r9, #0
    9e7c:	d1be      	bne.n	9dfc <_Unwind_VRS_Pop+0x1c>
    9e7e:	2f0f      	cmp	r7, #15
    9e80:	f200 80d7 	bhi.w	a032 <_Unwind_VRS_Pop+0x252>
    9e84:	6832      	ldr	r2, [r6, #0]
    9e86:	07d1      	lsls	r1, r2, #31
    9e88:	f140 80d3 	bpl.w	a032 <_Unwind_VRS_Pop+0x252>
    9e8c:	2b05      	cmp	r3, #5
    9e8e:	f022 0101 	bic.w	r1, r2, #1
    9e92:	6031      	str	r1, [r6, #0]
    9e94:	f000 8102 	beq.w	a09c <_Unwind_VRS_Pop+0x2bc>
    9e98:	4630      	mov	r0, r6
    9e9a:	f022 0203 	bic.w	r2, r2, #3
    9e9e:	f840 2b48 	str.w	r2, [r0], #72
    9ea2:	f000 f927 	bl	a0f4 <__gnu_Unwind_Save_VFP>
    9ea6:	2c00      	cmp	r4, #0
    9ea8:	f000 80db 	beq.w	a062 <_Unwind_VRS_Pop+0x282>
    9eac:	6833      	ldr	r3, [r6, #0]
    9eae:	075a      	lsls	r2, r3, #29
    9eb0:	f100 80aa 	bmi.w	a008 <_Unwind_VRS_Pop+0x228>
    9eb4:	f1b9 0f00 	cmp.w	r9, #0
    9eb8:	f040 80fb 	bne.w	a0b2 <_Unwind_VRS_Pop+0x2d2>
    9ebc:	2f0f      	cmp	r7, #15
    9ebe:	d931      	bls.n	9f24 <_Unwind_VRS_Pop+0x144>
    9ec0:	e037      	b.n	9f32 <_Unwind_VRS_Pop+0x152>
    9ec2:	2b00      	cmp	r3, #0
    9ec4:	d19a      	bne.n	9dfc <_Unwind_VRS_Pop+0x1c>
    9ec6:	6bb5      	ldr	r5, [r6, #56]	; 0x38
    9ec8:	b297      	uxth	r7, r2
    9eca:	1d34      	adds	r4, r6, #4
    9ecc:	2001      	movs	r0, #1
    9ece:	fa00 f103 	lsl.w	r1, r0, r3
    9ed2:	3301      	adds	r3, #1
    9ed4:	4239      	tst	r1, r7
    9ed6:	f104 0404 	add.w	r4, r4, #4
    9eda:	bf1e      	ittt	ne
    9edc:	6829      	ldrne	r1, [r5, #0]
    9ede:	3504      	addne	r5, #4
    9ee0:	f844 1c04 	strne.w	r1, [r4, #-4]
    9ee4:	2b10      	cmp	r3, #16
    9ee6:	d1f2      	bne.n	9ece <_Unwind_VRS_Pop+0xee>
    9ee8:	0490      	lsls	r0, r2, #18
    9eea:	bf58      	it	pl
    9eec:	63b5      	strpl	r5, [r6, #56]	; 0x38
    9eee:	2000      	movs	r0, #0
    9ef0:	e785      	b.n	9dfe <_Unwind_VRS_Pop+0x1e>
    9ef2:	2910      	cmp	r1, #16
    9ef4:	d882      	bhi.n	9dfc <_Unwind_VRS_Pop+0x1c>
    9ef6:	2f0f      	cmp	r7, #15
    9ef8:	bf98      	it	ls
    9efa:	4699      	movls	r9, r3
    9efc:	f63f af7e 	bhi.w	9dfc <_Unwind_VRS_Pop+0x1c>
    9f00:	6832      	ldr	r2, [r6, #0]
    9f02:	07d1      	lsls	r1, r2, #31
    9f04:	f140 80ad 	bpl.w	a062 <_Unwind_VRS_Pop+0x282>
    9f08:	2b05      	cmp	r3, #5
    9f0a:	f022 0101 	bic.w	r1, r2, #1
    9f0e:	f04f 0400 	mov.w	r4, #0
    9f12:	6031      	str	r1, [r6, #0]
    9f14:	d1c0      	bne.n	9e98 <_Unwind_VRS_Pop+0xb8>
    9f16:	4630      	mov	r0, r6
    9f18:	f041 0102 	orr.w	r1, r1, #2
    9f1c:	f840 1b48 	str.w	r1, [r0], #72
    9f20:	f000 f8f0 	bl	a104 <__gnu_Unwind_Save_VFP_D>
    9f24:	ad22      	add	r5, sp, #136	; 0x88
    9f26:	4628      	mov	r0, r5
    9f28:	f000 f8ec 	bl	a104 <__gnu_Unwind_Save_VFP_D>
    9f2c:	2c00      	cmp	r4, #0
    9f2e:	f000 80a7 	beq.w	a080 <_Unwind_VRS_Pop+0x2a0>
    9f32:	a802      	add	r0, sp, #8
    9f34:	f000 f8ee 	bl	a114 <__gnu_Unwind_Save_VFP_D_16_to_31>
    9f38:	6bb2      	ldr	r2, [r6, #56]	; 0x38
    9f3a:	f1c7 0e10 	rsb	lr, r7, #16
    9f3e:	f1be 0f00 	cmp.w	lr, #0
    9f42:	bfc8      	it	gt
    9f44:	ad22      	addgt	r5, sp, #136	; 0x88
    9f46:	4611      	mov	r1, r2
    9f48:	dd7f      	ble.n	a04a <_Unwind_VRS_Pop+0x26a>
    9f4a:	eb05 05c7 	add.w	r5, r5, r7, lsl #3
    9f4e:	ea4f 0e4e 	mov.w	lr, lr, lsl #1
    9f52:	2300      	movs	r3, #0
    9f54:	f852 0023 	ldr.w	r0, [r2, r3, lsl #2]
    9f58:	f845 0023 	str.w	r0, [r5, r3, lsl #2]
    9f5c:	3301      	adds	r3, #1
    9f5e:	4573      	cmp	r3, lr
    9f60:	d1f8      	bne.n	9f54 <_Unwind_VRS_Pop+0x174>
    9f62:	eb01 0183 	add.w	r1, r1, r3, lsl #2
    9f66:	b194      	cbz	r4, 9f8e <_Unwind_VRS_Pop+0x1ae>
    9f68:	2f10      	cmp	r7, #16
    9f6a:	463a      	mov	r2, r7
    9f6c:	460b      	mov	r3, r1
    9f6e:	a944      	add	r1, sp, #272	; 0x110
    9f70:	bf38      	it	cc
    9f72:	2210      	movcc	r2, #16
    9f74:	0060      	lsls	r0, r4, #1
    9f76:	eb01 02c2 	add.w	r2, r1, r2, lsl #3
    9f7a:	f5a2 72c4 	sub.w	r2, r2, #392	; 0x188
    9f7e:	eb03 0180 	add.w	r1, r3, r0, lsl #2
    9f82:	f853 0b04 	ldr.w	r0, [r3], #4
    9f86:	428b      	cmp	r3, r1
    9f88:	f842 0b04 	str.w	r0, [r2], #4
    9f8c:	d1f9      	bne.n	9f82 <_Unwind_VRS_Pop+0x1a2>
    9f8e:	f1b9 0f00 	cmp.w	r9, #0
    9f92:	d17c      	bne.n	a08e <_Unwind_VRS_Pop+0x2ae>
    9f94:	2f0f      	cmp	r7, #15
    9f96:	63b1      	str	r1, [r6, #56]	; 0x38
    9f98:	d932      	bls.n	a000 <_Unwind_VRS_Pop+0x220>
    9f9a:	2c00      	cmp	r4, #0
    9f9c:	d0a7      	beq.n	9eee <_Unwind_VRS_Pop+0x10e>
    9f9e:	a802      	add	r0, sp, #8
    9fa0:	f000 f8b4 	bl	a10c <__gnu_Unwind_Restore_VFP_D_16_to_31>
    9fa4:	e7a3      	b.n	9eee <_Unwind_VRS_Pop+0x10e>
    9fa6:	0c14      	lsrs	r4, r2, #16
    9fa8:	b297      	uxth	r7, r2
    9faa:	193b      	adds	r3, r7, r4
    9fac:	2b10      	cmp	r3, #16
    9fae:	f63f af25 	bhi.w	9dfc <_Unwind_VRS_Pop+0x1c>
    9fb2:	6833      	ldr	r3, [r6, #0]
    9fb4:	071d      	lsls	r5, r3, #28
    9fb6:	d434      	bmi.n	a022 <_Unwind_VRS_Pop+0x242>
    9fb8:	ad22      	add	r5, sp, #136	; 0x88
    9fba:	4628      	mov	r0, r5
    9fbc:	f000 f8d0 	bl	a160 <__gnu_Unwind_Save_WMMXD>
    9fc0:	6bb0      	ldr	r0, [r6, #56]	; 0x38
    9fc2:	eb05 01c4 	add.w	r1, r5, r4, lsl #3
    9fc6:	007c      	lsls	r4, r7, #1
    9fc8:	4603      	mov	r3, r0
    9fca:	b14f      	cbz	r7, 9fe0 <_Unwind_VRS_Pop+0x200>
    9fcc:	2300      	movs	r3, #0
    9fce:	f850 2023 	ldr.w	r2, [r0, r3, lsl #2]
    9fd2:	f841 2023 	str.w	r2, [r1, r3, lsl #2]
    9fd6:	3301      	adds	r3, #1
    9fd8:	42a3      	cmp	r3, r4
    9fda:	d1f8      	bne.n	9fce <_Unwind_VRS_Pop+0x1ee>
    9fdc:	eb00 0383 	add.w	r3, r0, r3, lsl #2
    9fe0:	4628      	mov	r0, r5
    9fe2:	63b3      	str	r3, [r6, #56]	; 0x38
    9fe4:	f000 f89a 	bl	a11c <__gnu_Unwind_Restore_WMMXD>
    9fe8:	2000      	movs	r0, #0
    9fea:	e708      	b.n	9dfe <_Unwind_VRS_Pop+0x1e>
    9fec:	f023 0310 	bic.w	r3, r3, #16
    9ff0:	f506 70e8 	add.w	r0, r6, #464	; 0x1d0
    9ff4:	6033      	str	r3, [r6, #0]
    9ff6:	9201      	str	r2, [sp, #4]
    9ff8:	f000 f8de 	bl	a1b8 <__gnu_Unwind_Save_WMMXC>
    9ffc:	9a01      	ldr	r2, [sp, #4]
    9ffe:	e709      	b.n	9e14 <_Unwind_VRS_Pop+0x34>
    a000:	a822      	add	r0, sp, #136	; 0x88
    a002:	f000 f87b 	bl	a0fc <__gnu_Unwind_Restore_VFP_D>
    a006:	e7c8      	b.n	9f9a <_Unwind_VRS_Pop+0x1ba>
    a008:	4630      	mov	r0, r6
    a00a:	f023 0304 	bic.w	r3, r3, #4
    a00e:	f840 3bd0 	str.w	r3, [r0], #208
    a012:	f000 f87f 	bl	a114 <__gnu_Unwind_Save_VFP_D_16_to_31>
    a016:	e74d      	b.n	9eb4 <_Unwind_VRS_Pop+0xd4>
    a018:	2910      	cmp	r1, #16
    a01a:	d913      	bls.n	a044 <_Unwind_VRS_Pop+0x264>
    a01c:	f1a1 0410 	sub.w	r4, r1, #16
    a020:	e724      	b.n	9e6c <_Unwind_VRS_Pop+0x8c>
    a022:	f023 0308 	bic.w	r3, r3, #8
    a026:	f506 70a8 	add.w	r0, r6, #336	; 0x150
    a02a:	6033      	str	r3, [r6, #0]
    a02c:	f000 f898 	bl	a160 <__gnu_Unwind_Save_WMMXD>
    a030:	e7c2      	b.n	9fb8 <_Unwind_VRS_Pop+0x1d8>
    a032:	2c00      	cmp	r4, #0
    a034:	f47f af3a 	bne.w	9eac <_Unwind_VRS_Pop+0xcc>
    a038:	2f0f      	cmp	r7, #15
    a03a:	d83e      	bhi.n	a0ba <_Unwind_VRS_Pop+0x2da>
    a03c:	f04f 0900 	mov.w	r9, #0
    a040:	464c      	mov	r4, r9
    a042:	e76f      	b.n	9f24 <_Unwind_VRS_Pop+0x144>
    a044:	f04f 0900 	mov.w	r9, #0
    a048:	e75a      	b.n	9f00 <_Unwind_VRS_Pop+0x120>
    a04a:	2f10      	cmp	r7, #16
    a04c:	4639      	mov	r1, r7
    a04e:	4613      	mov	r3, r2
    a050:	aa44      	add	r2, sp, #272	; 0x110
    a052:	bf38      	it	cc
    a054:	2110      	movcc	r1, #16
    a056:	0060      	lsls	r0, r4, #1
    a058:	eb02 02c1 	add.w	r2, r2, r1, lsl #3
    a05c:	f5a2 72c4 	sub.w	r2, r2, #392	; 0x188
    a060:	e78d      	b.n	9f7e <_Unwind_VRS_Pop+0x19e>
    a062:	f1b9 0f00 	cmp.w	r9, #0
    a066:	d0e7      	beq.n	a038 <_Unwind_VRS_Pop+0x258>
    a068:	ad22      	add	r5, sp, #136	; 0x88
    a06a:	4628      	mov	r0, r5
    a06c:	f000 f842 	bl	a0f4 <__gnu_Unwind_Save_VFP>
    a070:	6bb2      	ldr	r2, [r6, #56]	; 0x38
    a072:	46c6      	mov	lr, r8
    a074:	4611      	mov	r1, r2
    a076:	f1b8 0f00 	cmp.w	r8, #0
    a07a:	d009      	beq.n	a090 <_Unwind_VRS_Pop+0x2b0>
    a07c:	2400      	movs	r4, #0
    a07e:	e764      	b.n	9f4a <_Unwind_VRS_Pop+0x16a>
    a080:	6bb1      	ldr	r1, [r6, #56]	; 0x38
    a082:	46c6      	mov	lr, r8
    a084:	460a      	mov	r2, r1
    a086:	f1b8 0f00 	cmp.w	r8, #0
    a08a:	d1f7      	bne.n	a07c <_Unwind_VRS_Pop+0x29c>
    a08c:	e77f      	b.n	9f8e <_Unwind_VRS_Pop+0x1ae>
    a08e:	ad22      	add	r5, sp, #136	; 0x88
    a090:	3104      	adds	r1, #4
    a092:	4628      	mov	r0, r5
    a094:	63b1      	str	r1, [r6, #56]	; 0x38
    a096:	f000 f829 	bl	a0ec <__gnu_Unwind_Restore_VFP>
    a09a:	e728      	b.n	9eee <_Unwind_VRS_Pop+0x10e>
    a09c:	4630      	mov	r0, r6
    a09e:	f041 0102 	orr.w	r1, r1, #2
    a0a2:	f840 1b48 	str.w	r1, [r0], #72
    a0a6:	f000 f82d 	bl	a104 <__gnu_Unwind_Save_VFP_D>
    a0aa:	2c00      	cmp	r4, #0
    a0ac:	f47f aefe 	bne.w	9eac <_Unwind_VRS_Pop+0xcc>
    a0b0:	e738      	b.n	9f24 <_Unwind_VRS_Pop+0x144>
    a0b2:	a822      	add	r0, sp, #136	; 0x88
    a0b4:	f000 f81e 	bl	a0f4 <__gnu_Unwind_Save_VFP>
    a0b8:	e73e      	b.n	9f38 <_Unwind_VRS_Pop+0x158>
    a0ba:	6bb1      	ldr	r1, [r6, #56]	; 0x38
    a0bc:	f04f 0900 	mov.w	r9, #0
    a0c0:	46c6      	mov	lr, r8
    a0c2:	460a      	mov	r2, r1
    a0c4:	f1b8 0f00 	cmp.w	r8, #0
    a0c8:	d001      	beq.n	a0ce <_Unwind_VRS_Pop+0x2ee>
    a0ca:	ad22      	add	r5, sp, #136	; 0x88
    a0cc:	e7d6      	b.n	a07c <_Unwind_VRS_Pop+0x29c>
    a0ce:	4644      	mov	r4, r8
    a0d0:	e760      	b.n	9f94 <_Unwind_VRS_Pop+0x1b4>
    a0d2:	bf00      	nop

0000a0d4 <__restore_core_regs>:
    a0d4:	f100 0134 	add.w	r1, r0, #52	; 0x34
    a0d8:	e891 0038 	ldmia.w	r1, {r3, r4, r5}
    a0dc:	469c      	mov	ip, r3
    a0de:	46a6      	mov	lr, r4
    a0e0:	f84c 5d04 	str.w	r5, [ip, #-4]!
    a0e4:	e890 0fff 	ldmia.w	r0, {r0, r1, r2, r3, r4, r5, r6, r7, r8, r9, sl, fp}
    a0e8:	46e5      	mov	sp, ip
    a0ea:	bd00      	pop	{pc}

0000a0ec <__gnu_Unwind_Restore_VFP>:
    a0ec:	ec90 0b21 	fldmiax	r0, {d0-d15}	;@ Deprecated
    a0f0:	4770      	bx	lr
    a0f2:	bf00      	nop

0000a0f4 <__gnu_Unwind_Save_VFP>:
    a0f4:	ec80 0b21 	fstmiax	r0, {d0-d15}	;@ Deprecated
    a0f8:	4770      	bx	lr
    a0fa:	bf00      	nop

0000a0fc <__gnu_Unwind_Restore_VFP_D>:
    a0fc:	ec90 0b20 	vldmia	r0, {d0-d15}
    a100:	4770      	bx	lr
    a102:	bf00      	nop

0000a104 <__gnu_Unwind_Save_VFP_D>:
    a104:	ec80 0b20 	vstmia	r0, {d0-d15}
    a108:	4770      	bx	lr
    a10a:	bf00      	nop

0000a10c <__gnu_Unwind_Restore_VFP_D_16_to_31>:
    a10c:	ecd0 0b20 	vldmia	r0, {d16-d31}
    a110:	4770      	bx	lr
    a112:	bf00      	nop

0000a114 <__gnu_Unwind_Save_VFP_D_16_to_31>:
    a114:	ecc0 0b20 	vstmia	r0, {d16-d31}
    a118:	4770      	bx	lr
    a11a:	bf00      	nop

0000a11c <__gnu_Unwind_Restore_WMMXD>:
    a11c:	ecf0 0102 	ldfe	f0, [r0], #8
    a120:	ecf0 1102 	ldfe	f1, [r0], #8
    a124:	ecf0 2102 	ldfe	f2, [r0], #8
    a128:	ecf0 3102 	ldfe	f3, [r0], #8
    a12c:	ecf0 4102 	ldfe	f4, [r0], #8
    a130:	ecf0 5102 	ldfe	f5, [r0], #8
    a134:	ecf0 6102 	ldfe	f6, [r0], #8
    a138:	ecf0 7102 	ldfe	f7, [r0], #8
    a13c:	ecf0 8102 	ldfp	f0, [r0], #8
    a140:	ecf0 9102 	ldfp	f1, [r0], #8
    a144:	ecf0 a102 	ldfp	f2, [r0], #8
    a148:	ecf0 b102 	ldfp	f3, [r0], #8
    a14c:	ecf0 c102 	ldfp	f4, [r0], #8
    a150:	ecf0 d102 	ldfp	f5, [r0], #8
    a154:	ecf0 e102 	ldfp	f6, [r0], #8
    a158:	ecf0 f102 	ldfp	f7, [r0], #8
    a15c:	4770      	bx	lr
    a15e:	bf00      	nop

0000a160 <__gnu_Unwind_Save_WMMXD>:
    a160:	ece0 0102 	stfe	f0, [r0], #8
    a164:	ece0 1102 	stfe	f1, [r0], #8
    a168:	ece0 2102 	stfe	f2, [r0], #8
    a16c:	ece0 3102 	stfe	f3, [r0], #8
    a170:	ece0 4102 	stfe	f4, [r0], #8
    a174:	ece0 5102 	stfe	f5, [r0], #8
    a178:	ece0 6102 	stfe	f6, [r0], #8
    a17c:	ece0 7102 	stfe	f7, [r0], #8
    a180:	ece0 8102 	stfp	f0, [r0], #8
    a184:	ece0 9102 	stfp	f1, [r0], #8
    a188:	ece0 a102 	stfp	f2, [r0], #8
    a18c:	ece0 b102 	stfp	f3, [r0], #8
    a190:	ece0 c102 	stfp	f4, [r0], #8
    a194:	ece0 d102 	stfp	f5, [r0], #8
    a198:	ece0 e102 	stfp	f6, [r0], #8
    a19c:	ece0 f102 	stfp	f7, [r0], #8
    a1a0:	4770      	bx	lr
    a1a2:	bf00      	nop

0000a1a4 <__gnu_Unwind_Restore_WMMXC>:
    a1a4:	fcb0 8101 	ldc2	1, cr8, [r0], #4
    a1a8:	fcb0 9101 	ldc2	1, cr9, [r0], #4
    a1ac:	fcb0 a101 	ldc2	1, cr10, [r0], #4
    a1b0:	fcb0 b101 	ldc2	1, cr11, [r0], #4
    a1b4:	4770      	bx	lr
    a1b6:	bf00      	nop

0000a1b8 <__gnu_Unwind_Save_WMMXC>:
    a1b8:	fca0 8101 	stc2	1, cr8, [r0], #4
    a1bc:	fca0 9101 	stc2	1, cr9, [r0], #4
    a1c0:	fca0 a101 	stc2	1, cr10, [r0], #4
    a1c4:	fca0 b101 	stc2	1, cr11, [r0], #4
    a1c8:	4770      	bx	lr
    a1ca:	bf00      	nop

0000a1cc <_Unwind_RaiseException>:
    a1cc:	46ec      	mov	ip, sp
    a1ce:	b500      	push	{lr}
    a1d0:	e92d 5000 	stmdb	sp!, {ip, lr}
    a1d4:	e92d 1fff 	stmdb	sp!, {r0, r1, r2, r3, r4, r5, r6, r7, r8, r9, sl, fp, ip}
    a1d8:	f04f 0300 	mov.w	r3, #0
    a1dc:	e92d 000c 	stmdb	sp!, {r2, r3}
    a1e0:	a901      	add	r1, sp, #4
    a1e2:	f7ff fb85 	bl	98f0 <__gnu_Unwind_RaiseException>
    a1e6:	f8dd e040 	ldr.w	lr, [sp, #64]	; 0x40
    a1ea:	b012      	add	sp, #72	; 0x48
    a1ec:	4770      	bx	lr
    a1ee:	bf00      	nop

0000a1f0 <_Unwind_Resume>:
    a1f0:	46ec      	mov	ip, sp
    a1f2:	b500      	push	{lr}
    a1f4:	e92d 5000 	stmdb	sp!, {ip, lr}
    a1f8:	e92d 1fff 	stmdb	sp!, {r0, r1, r2, r3, r4, r5, r6, r7, r8, r9, sl, fp, ip}
    a1fc:	f04f 0300 	mov.w	r3, #0
    a200:	e92d 000c 	stmdb	sp!, {r2, r3}
    a204:	a901      	add	r1, sp, #4
    a206:	f7ff fbad 	bl	9964 <__gnu_Unwind_Resume>
    a20a:	f8dd e040 	ldr.w	lr, [sp, #64]	; 0x40
    a20e:	b012      	add	sp, #72	; 0x48
    a210:	4770      	bx	lr
    a212:	bf00      	nop

0000a214 <_Unwind_Resume_or_Rethrow>:
    a214:	46ec      	mov	ip, sp
    a216:	b500      	push	{lr}
    a218:	e92d 5000 	stmdb	sp!, {ip, lr}
    a21c:	e92d 1fff 	stmdb	sp!, {r0, r1, r2, r3, r4, r5, r6, r7, r8, r9, sl, fp, ip}
    a220:	f04f 0300 	mov.w	r3, #0
    a224:	e92d 000c 	stmdb	sp!, {r2, r3}
    a228:	a901      	add	r1, sp, #4
    a22a:	f7ff fbbd 	bl	99a8 <__gnu_Unwind_Resume_or_Rethrow>
    a22e:	f8dd e040 	ldr.w	lr, [sp, #64]	; 0x40
    a232:	b012      	add	sp, #72	; 0x48
    a234:	4770      	bx	lr
    a236:	bf00      	nop

0000a238 <_Unwind_ForcedUnwind>:
    a238:	46ec      	mov	ip, sp
    a23a:	b500      	push	{lr}
    a23c:	e92d 5000 	stmdb	sp!, {ip, lr}
    a240:	e92d 1fff 	stmdb	sp!, {r0, r1, r2, r3, r4, r5, r6, r7, r8, r9, sl, fp, ip}
    a244:	f04f 0300 	mov.w	r3, #0
    a248:	e92d 000c 	stmdb	sp!, {r2, r3}
    a24c:	ab01      	add	r3, sp, #4
    a24e:	f7ff fb7f 	bl	9950 <__gnu_Unwind_ForcedUnwind>
    a252:	f8dd e040 	ldr.w	lr, [sp, #64]	; 0x40
    a256:	b012      	add	sp, #72	; 0x48
    a258:	4770      	bx	lr
    a25a:	bf00      	nop

0000a25c <_Unwind_Backtrace>:
    a25c:	46ec      	mov	ip, sp
    a25e:	b500      	push	{lr}
    a260:	e92d 5000 	stmdb	sp!, {ip, lr}
    a264:	e92d 1fff 	stmdb	sp!, {r0, r1, r2, r3, r4, r5, r6, r7, r8, r9, sl, fp, ip}
    a268:	f04f 0300 	mov.w	r3, #0
    a26c:	e92d 000c 	stmdb	sp!, {r2, r3}
    a270:	aa01      	add	r2, sp, #4
    a272:	f7ff fc01 	bl	9a78 <__gnu_Unwind_Backtrace>
    a276:	f8dd e040 	ldr.w	lr, [sp, #64]	; 0x40
    a27a:	b012      	add	sp, #72	; 0x48
    a27c:	4770      	bx	lr
    a27e:	bf00      	nop

0000a280 <next_unwind_byte>:
    a280:	7a02      	ldrb	r2, [r0, #8]
    a282:	4603      	mov	r3, r0
    a284:	b992      	cbnz	r2, a2ac <next_unwind_byte+0x2c>
    a286:	7a42      	ldrb	r2, [r0, #9]
    a288:	b90a      	cbnz	r2, a28e <next_unwind_byte+0xe>
    a28a:	20b0      	movs	r0, #176	; 0xb0
    a28c:	4770      	bx	lr
    a28e:	6841      	ldr	r1, [r0, #4]
    a290:	3a01      	subs	r2, #1
    a292:	b410      	push	{r4}
    a294:	2403      	movs	r4, #3
    a296:	7242      	strb	r2, [r0, #9]
    a298:	1d0a      	adds	r2, r1, #4
    a29a:	6042      	str	r2, [r0, #4]
    a29c:	6808      	ldr	r0, [r1, #0]
    a29e:	721c      	strb	r4, [r3, #8]
    a2a0:	f85d 4b04 	ldr.w	r4, [sp], #4
    a2a4:	0202      	lsls	r2, r0, #8
    a2a6:	0e00      	lsrs	r0, r0, #24
    a2a8:	601a      	str	r2, [r3, #0]
    a2aa:	4770      	bx	lr
    a2ac:	6800      	ldr	r0, [r0, #0]
    a2ae:	3a01      	subs	r2, #1
    a2b0:	721a      	strb	r2, [r3, #8]
    a2b2:	0202      	lsls	r2, r0, #8
    a2b4:	0e00      	lsrs	r0, r0, #24
    a2b6:	601a      	str	r2, [r3, #0]
    a2b8:	4770      	bx	lr
    a2ba:	bf00      	nop

0000a2bc <_Unwind_GetGR.constprop.0>:
    a2bc:	b500      	push	{lr}
    a2be:	b085      	sub	sp, #20
    a2c0:	2100      	movs	r1, #0
    a2c2:	aa03      	add	r2, sp, #12
    a2c4:	460b      	mov	r3, r1
    a2c6:	9200      	str	r2, [sp, #0]
    a2c8:	220c      	movs	r2, #12
    a2ca:	f7ff fb7f 	bl	99cc <_Unwind_VRS_Get>
    a2ce:	9803      	ldr	r0, [sp, #12]
    a2d0:	b005      	add	sp, #20
    a2d2:	f85d fb04 	ldr.w	pc, [sp], #4
    a2d6:	bf00      	nop

0000a2d8 <unwind_UCB_from_context>:
    a2d8:	e7f0      	b.n	a2bc <_Unwind_GetGR.constprop.0>
    a2da:	bf00      	nop

0000a2dc <__gnu_unwind_execute>:
    a2dc:	e92d 43f0 	stmdb	sp!, {r4, r5, r6, r7, r8, r9, lr}
    a2e0:	b085      	sub	sp, #20
    a2e2:	4606      	mov	r6, r0
    a2e4:	460d      	mov	r5, r1
    a2e6:	2700      	movs	r7, #0
    a2e8:	4628      	mov	r0, r5
    a2ea:	f7ff ffc9 	bl	a280 <next_unwind_byte>
    a2ee:	28b0      	cmp	r0, #176	; 0xb0
    a2f0:	4604      	mov	r4, r0
    a2f2:	f000 80c2 	beq.w	a47a <__gnu_unwind_execute+0x19e>
    a2f6:	f020 027f 	bic.w	r2, r0, #127	; 0x7f
    a2fa:	f012 01ff 	ands.w	r1, r2, #255	; 0xff
    a2fe:	d020      	beq.n	a342 <__gnu_unwind_execute+0x66>
    a300:	f000 03f0 	and.w	r3, r0, #240	; 0xf0
    a304:	2b80      	cmp	r3, #128	; 0x80
    a306:	d07f      	beq.n	a408 <__gnu_unwind_execute+0x12c>
    a308:	2b90      	cmp	r3, #144	; 0x90
    a30a:	d03a      	beq.n	a382 <__gnu_unwind_execute+0xa6>
    a30c:	2ba0      	cmp	r3, #160	; 0xa0
    a30e:	d04d      	beq.n	a3ac <__gnu_unwind_execute+0xd0>
    a310:	2bb0      	cmp	r3, #176	; 0xb0
    a312:	d061      	beq.n	a3d8 <__gnu_unwind_execute+0xfc>
    a314:	2bc0      	cmp	r3, #192	; 0xc0
    a316:	f000 808d 	beq.w	a434 <__gnu_unwind_execute+0x158>
    a31a:	f000 03f8 	and.w	r3, r0, #248	; 0xf8
    a31e:	2bd0      	cmp	r3, #208	; 0xd0
    a320:	d10b      	bne.n	a33a <__gnu_unwind_execute+0x5e>
    a322:	f000 0207 	and.w	r2, r0, #7
    a326:	2101      	movs	r1, #1
    a328:	3201      	adds	r2, #1
    a32a:	4630      	mov	r0, r6
    a32c:	f442 2200 	orr.w	r2, r2, #524288	; 0x80000
    a330:	2305      	movs	r3, #5
    a332:	f7ff fd55 	bl	9de0 <_Unwind_VRS_Pop>
    a336:	2800      	cmp	r0, #0
    a338:	d0d6      	beq.n	a2e8 <__gnu_unwind_execute+0xc>
    a33a:	2009      	movs	r0, #9
    a33c:	b005      	add	sp, #20
    a33e:	e8bd 83f0 	ldmia.w	sp!, {r4, r5, r6, r7, r8, r9, pc}
    a342:	f10d 090c 	add.w	r9, sp, #12
    a346:	460b      	mov	r3, r1
    a348:	ea4f 0880 	mov.w	r8, r0, lsl #2
    a34c:	f8cd 9000 	str.w	r9, [sp]
    a350:	4630      	mov	r0, r6
    a352:	220d      	movs	r2, #13
    a354:	f7ff fb3a 	bl	99cc <_Unwind_VRS_Get>
    a358:	9b03      	ldr	r3, [sp, #12]
    a35a:	fa5f f888 	uxtb.w	r8, r8
    a35e:	0660      	lsls	r0, r4, #25
    a360:	f108 0804 	add.w	r8, r8, #4
    a364:	f04f 0100 	mov.w	r1, #0
    a368:	bf4c      	ite	mi
    a36a:	ebc8 0303 	rsbmi	r3, r8, r3
    a36e:	4443      	addpl	r3, r8
    a370:	f8cd 9000 	str.w	r9, [sp]
    a374:	4630      	mov	r0, r6
    a376:	9303      	str	r3, [sp, #12]
    a378:	220d      	movs	r2, #13
    a37a:	460b      	mov	r3, r1
    a37c:	f7ff fb50 	bl	9a20 <_Unwind_VRS_Set>
    a380:	e7b2      	b.n	a2e8 <__gnu_unwind_execute+0xc>
    a382:	f000 030d 	and.w	r3, r0, #13
    a386:	2b0d      	cmp	r3, #13
    a388:	d0d7      	beq.n	a33a <__gnu_unwind_execute+0x5e>
    a38a:	2100      	movs	r1, #0
    a38c:	f000 020f 	and.w	r2, r0, #15
    a390:	460b      	mov	r3, r1
    a392:	ac03      	add	r4, sp, #12
    a394:	4630      	mov	r0, r6
    a396:	9400      	str	r4, [sp, #0]
    a398:	f7ff fb18 	bl	99cc <_Unwind_VRS_Get>
    a39c:	2100      	movs	r1, #0
    a39e:	9400      	str	r4, [sp, #0]
    a3a0:	460b      	mov	r3, r1
    a3a2:	4630      	mov	r0, r6
    a3a4:	220d      	movs	r2, #13
    a3a6:	f7ff fb3b 	bl	9a20 <_Unwind_VRS_Set>
    a3aa:	e79d      	b.n	a2e8 <__gnu_unwind_execute+0xc>
    a3ac:	43c3      	mvns	r3, r0
    a3ae:	f44f 627f 	mov.w	r2, #4080	; 0xff0
    a3b2:	f003 0307 	and.w	r3, r3, #7
    a3b6:	0701      	lsls	r1, r0, #28
    a3b8:	fa42 f203 	asr.w	r2, r2, r3
    a3bc:	f04f 0100 	mov.w	r1, #0
    a3c0:	f402 627f 	and.w	r2, r2, #4080	; 0xff0
    a3c4:	460b      	mov	r3, r1
    a3c6:	bf48      	it	mi
    a3c8:	f442 4280 	orrmi.w	r2, r2, #16384	; 0x4000
    a3cc:	4630      	mov	r0, r6
    a3ce:	f7ff fd07 	bl	9de0 <_Unwind_VRS_Pop>
    a3d2:	2800      	cmp	r0, #0
    a3d4:	d1b1      	bne.n	a33a <__gnu_unwind_execute+0x5e>
    a3d6:	e787      	b.n	a2e8 <__gnu_unwind_execute+0xc>
    a3d8:	28b1      	cmp	r0, #177	; 0xb1
    a3da:	d053      	beq.n	a484 <__gnu_unwind_execute+0x1a8>
    a3dc:	28b2      	cmp	r0, #178	; 0xb2
    a3de:	d064      	beq.n	a4aa <__gnu_unwind_execute+0x1ce>
    a3e0:	28b3      	cmp	r0, #179	; 0xb3
    a3e2:	f000 8093 	beq.w	a50c <__gnu_unwind_execute+0x230>
    a3e6:	f000 03fc 	and.w	r3, r0, #252	; 0xfc
    a3ea:	2bb4      	cmp	r3, #180	; 0xb4
    a3ec:	d0a5      	beq.n	a33a <__gnu_unwind_execute+0x5e>
    a3ee:	f000 0207 	and.w	r2, r0, #7
    a3f2:	2101      	movs	r1, #1
    a3f4:	440a      	add	r2, r1
    a3f6:	460b      	mov	r3, r1
    a3f8:	f442 2200 	orr.w	r2, r2, #524288	; 0x80000
    a3fc:	4630      	mov	r0, r6
    a3fe:	f7ff fcef 	bl	9de0 <_Unwind_VRS_Pop>
    a402:	2800      	cmp	r0, #0
    a404:	d199      	bne.n	a33a <__gnu_unwind_execute+0x5e>
    a406:	e76f      	b.n	a2e8 <__gnu_unwind_execute+0xc>
    a408:	4628      	mov	r0, r5
    a40a:	0224      	lsls	r4, r4, #8
    a40c:	f7ff ff38 	bl	a280 <next_unwind_byte>
    a410:	4320      	orrs	r0, r4
    a412:	f5b0 4f00 	cmp.w	r0, #32768	; 0x8000
    a416:	d090      	beq.n	a33a <__gnu_unwind_execute+0x5e>
    a418:	0104      	lsls	r4, r0, #4
    a41a:	2100      	movs	r1, #0
    a41c:	460b      	mov	r3, r1
    a41e:	4630      	mov	r0, r6
    a420:	b2a2      	uxth	r2, r4
    a422:	f7ff fcdd 	bl	9de0 <_Unwind_VRS_Pop>
    a426:	2800      	cmp	r0, #0
    a428:	d187      	bne.n	a33a <__gnu_unwind_execute+0x5e>
    a42a:	f414 4f00 	tst.w	r4, #32768	; 0x8000
    a42e:	bf18      	it	ne
    a430:	2701      	movne	r7, #1
    a432:	e759      	b.n	a2e8 <__gnu_unwind_execute+0xc>
    a434:	28c6      	cmp	r0, #198	; 0xc6
    a436:	d07c      	beq.n	a532 <__gnu_unwind_execute+0x256>
    a438:	28c7      	cmp	r0, #199	; 0xc7
    a43a:	f000 8084 	beq.w	a546 <__gnu_unwind_execute+0x26a>
    a43e:	f000 03f8 	and.w	r3, r0, #248	; 0xf8
    a442:	2bc0      	cmp	r3, #192	; 0xc0
    a444:	f000 8092 	beq.w	a56c <__gnu_unwind_execute+0x290>
    a448:	28c8      	cmp	r0, #200	; 0xc8
    a44a:	f000 80ad 	beq.w	a5a8 <__gnu_unwind_execute+0x2cc>
    a44e:	28c9      	cmp	r0, #201	; 0xc9
    a450:	f47f af73 	bne.w	a33a <__gnu_unwind_execute+0x5e>
    a454:	4628      	mov	r0, r5
    a456:	f7ff ff13 	bl	a280 <next_unwind_byte>
    a45a:	2101      	movs	r1, #1
    a45c:	f000 03f0 	and.w	r3, r0, #240	; 0xf0
    a460:	f000 020f 	and.w	r2, r0, #15
    a464:	3201      	adds	r2, #1
    a466:	4630      	mov	r0, r6
    a468:	ea42 3203 	orr.w	r2, r2, r3, lsl #12
    a46c:	2305      	movs	r3, #5
    a46e:	f7ff fcb7 	bl	9de0 <_Unwind_VRS_Pop>
    a472:	2800      	cmp	r0, #0
    a474:	f47f af61 	bne.w	a33a <__gnu_unwind_execute+0x5e>
    a478:	e736      	b.n	a2e8 <__gnu_unwind_execute+0xc>
    a47a:	2f00      	cmp	r7, #0
    a47c:	f000 8084 	beq.w	a588 <__gnu_unwind_execute+0x2ac>
    a480:	2000      	movs	r0, #0
    a482:	e75b      	b.n	a33c <__gnu_unwind_execute+0x60>
    a484:	4628      	mov	r0, r5
    a486:	f7ff fefb 	bl	a280 <next_unwind_byte>
    a48a:	4602      	mov	r2, r0
    a48c:	2800      	cmp	r0, #0
    a48e:	f43f af54 	beq.w	a33a <__gnu_unwind_execute+0x5e>
    a492:	f010 01f0 	ands.w	r1, r0, #240	; 0xf0
    a496:	f47f af50 	bne.w	a33a <__gnu_unwind_execute+0x5e>
    a49a:	4630      	mov	r0, r6
    a49c:	460b      	mov	r3, r1
    a49e:	f7ff fc9f 	bl	9de0 <_Unwind_VRS_Pop>
    a4a2:	2800      	cmp	r0, #0
    a4a4:	f47f af49 	bne.w	a33a <__gnu_unwind_execute+0x5e>
    a4a8:	e71e      	b.n	a2e8 <__gnu_unwind_execute+0xc>
    a4aa:	2100      	movs	r1, #0
    a4ac:	220d      	movs	r2, #13
    a4ae:	460b      	mov	r3, r1
    a4b0:	f10d 090c 	add.w	r9, sp, #12
    a4b4:	4630      	mov	r0, r6
    a4b6:	f8cd 9000 	str.w	r9, [sp]
    a4ba:	f7ff fa87 	bl	99cc <_Unwind_VRS_Get>
    a4be:	4628      	mov	r0, r5
    a4c0:	f7ff fede 	bl	a280 <next_unwind_byte>
    a4c4:	f04f 0802 	mov.w	r8, #2
    a4c8:	0602      	lsls	r2, r0, #24
    a4ca:	d50d      	bpl.n	a4e8 <__gnu_unwind_execute+0x20c>
    a4cc:	f000 037f 	and.w	r3, r0, #127	; 0x7f
    a4d0:	9a03      	ldr	r2, [sp, #12]
    a4d2:	4628      	mov	r0, r5
    a4d4:	fa03 f308 	lsl.w	r3, r3, r8
    a4d8:	f108 0807 	add.w	r8, r8, #7
    a4dc:	4413      	add	r3, r2
    a4de:	9303      	str	r3, [sp, #12]
    a4e0:	f7ff fece 	bl	a280 <next_unwind_byte>
    a4e4:	0603      	lsls	r3, r0, #24
    a4e6:	d4f1      	bmi.n	a4cc <__gnu_unwind_execute+0x1f0>
    a4e8:	9b03      	ldr	r3, [sp, #12]
    a4ea:	f000 047f 	and.w	r4, r0, #127	; 0x7f
    a4ee:	2100      	movs	r1, #0
    a4f0:	f8cd 9000 	str.w	r9, [sp]
    a4f4:	f503 7e01 	add.w	lr, r3, #516	; 0x204
    a4f8:	fa04 f408 	lsl.w	r4, r4, r8
    a4fc:	460b      	mov	r3, r1
    a4fe:	4630      	mov	r0, r6
    a500:	220d      	movs	r2, #13
    a502:	4474      	add	r4, lr
    a504:	9403      	str	r4, [sp, #12]
    a506:	f7ff fa8b 	bl	9a20 <_Unwind_VRS_Set>
    a50a:	e6ed      	b.n	a2e8 <__gnu_unwind_execute+0xc>
    a50c:	4628      	mov	r0, r5
    a50e:	f7ff feb7 	bl	a280 <next_unwind_byte>
    a512:	2101      	movs	r1, #1
    a514:	f000 020f 	and.w	r2, r0, #15
    a518:	f000 00f0 	and.w	r0, r0, #240	; 0xf0
    a51c:	3201      	adds	r2, #1
    a51e:	ea42 3200 	orr.w	r2, r2, r0, lsl #12
    a522:	460b      	mov	r3, r1
    a524:	4630      	mov	r0, r6
    a526:	f7ff fc5b 	bl	9de0 <_Unwind_VRS_Pop>
    a52a:	2800      	cmp	r0, #0
    a52c:	f47f af05 	bne.w	a33a <__gnu_unwind_execute+0x5e>
    a530:	e6da      	b.n	a2e8 <__gnu_unwind_execute+0xc>
    a532:	4628      	mov	r0, r5
    a534:	f7ff fea4 	bl	a280 <next_unwind_byte>
    a538:	2103      	movs	r1, #3
    a53a:	f000 020f 	and.w	r2, r0, #15
    a53e:	f000 00f0 	and.w	r0, r0, #240	; 0xf0
    a542:	3201      	adds	r2, #1
    a544:	e7eb      	b.n	a51e <__gnu_unwind_execute+0x242>
    a546:	4628      	mov	r0, r5
    a548:	f7ff fe9a 	bl	a280 <next_unwind_byte>
    a54c:	4602      	mov	r2, r0
    a54e:	2800      	cmp	r0, #0
    a550:	f43f aef3 	beq.w	a33a <__gnu_unwind_execute+0x5e>
    a554:	f010 03f0 	ands.w	r3, r0, #240	; 0xf0
    a558:	f47f aeef 	bne.w	a33a <__gnu_unwind_execute+0x5e>
    a55c:	4630      	mov	r0, r6
    a55e:	2104      	movs	r1, #4
    a560:	f7ff fc3e 	bl	9de0 <_Unwind_VRS_Pop>
    a564:	2800      	cmp	r0, #0
    a566:	f47f aee8 	bne.w	a33a <__gnu_unwind_execute+0x5e>
    a56a:	e6bd      	b.n	a2e8 <__gnu_unwind_execute+0xc>
    a56c:	f000 020f 	and.w	r2, r0, #15
    a570:	2103      	movs	r1, #3
    a572:	3201      	adds	r2, #1
    a574:	460b      	mov	r3, r1
    a576:	f442 2220 	orr.w	r2, r2, #655360	; 0xa0000
    a57a:	4630      	mov	r0, r6
    a57c:	f7ff fc30 	bl	9de0 <_Unwind_VRS_Pop>
    a580:	2800      	cmp	r0, #0
    a582:	f47f aeda 	bne.w	a33a <__gnu_unwind_execute+0x5e>
    a586:	e6af      	b.n	a2e8 <__gnu_unwind_execute+0xc>
    a588:	ac03      	add	r4, sp, #12
    a58a:	4639      	mov	r1, r7
    a58c:	463b      	mov	r3, r7
    a58e:	4630      	mov	r0, r6
    a590:	9400      	str	r4, [sp, #0]
    a592:	220e      	movs	r2, #14
    a594:	f7ff fa1a 	bl	99cc <_Unwind_VRS_Get>
    a598:	9400      	str	r4, [sp, #0]
    a59a:	4630      	mov	r0, r6
    a59c:	4639      	mov	r1, r7
    a59e:	463b      	mov	r3, r7
    a5a0:	220f      	movs	r2, #15
    a5a2:	f7ff fa3d 	bl	9a20 <_Unwind_VRS_Set>
    a5a6:	e76b      	b.n	a480 <__gnu_unwind_execute+0x1a4>
    a5a8:	4628      	mov	r0, r5
    a5aa:	f7ff fe69 	bl	a280 <next_unwind_byte>
    a5ae:	2101      	movs	r1, #1
    a5b0:	f000 02f0 	and.w	r2, r0, #240	; 0xf0
    a5b4:	f000 030f 	and.w	r3, r0, #15
    a5b8:	3210      	adds	r2, #16
    a5ba:	3301      	adds	r3, #1
    a5bc:	4630      	mov	r0, r6
    a5be:	ea43 3202 	orr.w	r2, r3, r2, lsl #12
    a5c2:	2305      	movs	r3, #5
    a5c4:	f7ff fc0c 	bl	9de0 <_Unwind_VRS_Pop>
    a5c8:	2800      	cmp	r0, #0
    a5ca:	f47f aeb6 	bne.w	a33a <__gnu_unwind_execute+0x5e>
    a5ce:	e68b      	b.n	a2e8 <__gnu_unwind_execute+0xc>

0000a5d0 <__gnu_unwind_frame>:
    a5d0:	6cc2      	ldr	r2, [r0, #76]	; 0x4c
    a5d2:	4608      	mov	r0, r1
    a5d4:	b530      	push	{r4, r5, lr}
    a5d6:	b085      	sub	sp, #20
    a5d8:	6853      	ldr	r3, [r2, #4]
    a5da:	f102 0408 	add.w	r4, r2, #8
    a5de:	2503      	movs	r5, #3
    a5e0:	f88d 500c 	strb.w	r5, [sp, #12]
    a5e4:	79d2      	ldrb	r2, [r2, #7]
    a5e6:	a901      	add	r1, sp, #4
    a5e8:	021b      	lsls	r3, r3, #8
    a5ea:	9402      	str	r4, [sp, #8]
    a5ec:	9301      	str	r3, [sp, #4]
    a5ee:	f88d 200d 	strb.w	r2, [sp, #13]
    a5f2:	f7ff fe73 	bl	a2dc <__gnu_unwind_execute>
    a5f6:	b005      	add	sp, #20
    a5f8:	bd30      	pop	{r4, r5, pc}
    a5fa:	bf00      	nop

0000a5fc <_Unwind_GetRegionStart>:
    a5fc:	b508      	push	{r3, lr}
    a5fe:	f7ff fe6b 	bl	a2d8 <unwind_UCB_from_context>
    a602:	6c80      	ldr	r0, [r0, #72]	; 0x48
    a604:	bd08      	pop	{r3, pc}
    a606:	bf00      	nop

0000a608 <_Unwind_GetLanguageSpecificData>:
    a608:	b508      	push	{r3, lr}
    a60a:	f7ff fe65 	bl	a2d8 <unwind_UCB_from_context>
    a60e:	6cc3      	ldr	r3, [r0, #76]	; 0x4c
    a610:	79d8      	ldrb	r0, [r3, #7]
    a612:	eb03 0080 	add.w	r0, r3, r0, lsl #2
    a616:	3008      	adds	r0, #8
    a618:	bd08      	pop	{r3, pc}
    a61a:	bf00      	nop

0000a61c <_Unwind_GetDataRelBase>:
    a61c:	b508      	push	{r3, lr}
    a61e:	f7fd fbf7 	bl	7e10 <abort>
    a622:	bf00      	nop

0000a624 <_Unwind_GetTextRelBase>:
    a624:	b508      	push	{r3, lr}
    a626:	f7fd fbf3 	bl	7e10 <abort>
    a62a:	bf00      	nop

0000a62c <__aeabi_idiv0>:
    a62c:	4770      	bx	lr
    a62e:	bf00      	nop

0000a630 <__divdi3>:
    a630:	2900      	cmp	r1, #0
    a632:	e92d 4ff0 	stmdb	sp!, {r4, r5, r6, r7, r8, r9, sl, fp, lr}
    a636:	bfa2      	ittt	ge
    a638:	4680      	movge	r8, r0
    a63a:	4689      	movge	r9, r1
    a63c:	f04f 0e00 	movge.w	lr, #0
    a640:	f2c0 809a 	blt.w	a778 <__divdi3+0x148>
    a644:	2b00      	cmp	r3, #0
    a646:	bfa4      	itt	ge
    a648:	4610      	movge	r0, r2
    a64a:	4619      	movge	r1, r3
    a64c:	f2c0 808e 	blt.w	a76c <__divdi3+0x13c>
    a650:	4589      	cmp	r9, r1
    a652:	4644      	mov	r4, r8
    a654:	bf08      	it	eq
    a656:	4580      	cmpeq	r8, r0
    a658:	464d      	mov	r5, r9
    a65a:	bf3c      	itt	cc
    a65c:	2000      	movcc	r0, #0
    a65e:	2100      	movcc	r1, #0
    a660:	d367      	bcc.n	a732 <__divdi3+0x102>
    a662:	fab1 f281 	clz	r2, r1
    a666:	2900      	cmp	r1, #0
    a668:	d076      	beq.n	a758 <__divdi3+0x128>
    a66a:	fab9 f389 	clz	r3, r9
    a66e:	f1b9 0f00 	cmp.w	r9, #0
    a672:	d06d      	beq.n	a750 <__divdi3+0x120>
    a674:	1ad3      	subs	r3, r2, r3
    a676:	f1a3 0c20 	sub.w	ip, r3, #32
    a67a:	fa01 f703 	lsl.w	r7, r1, r3
    a67e:	fa00 f20c 	lsl.w	r2, r0, ip
    a682:	f1c3 0a20 	rsb	sl, r3, #32
    a686:	4317      	orrs	r7, r2
    a688:	fa20 f20a 	lsr.w	r2, r0, sl
    a68c:	4317      	orrs	r7, r2
    a68e:	fa00 f603 	lsl.w	r6, r0, r3
    a692:	45b9      	cmp	r9, r7
    a694:	461a      	mov	r2, r3
    a696:	bf08      	it	eq
    a698:	45b0      	cmpeq	r8, r6
    a69a:	bf3c      	itt	cc
    a69c:	2000      	movcc	r0, #0
    a69e:	2100      	movcc	r1, #0
    a6a0:	d30c      	bcc.n	a6bc <__divdi3+0x8c>
    a6a2:	f04f 0b01 	mov.w	fp, #1
    a6a6:	fa2b f40a 	lsr.w	r4, fp, sl
    a6aa:	fa0b f10c 	lsl.w	r1, fp, ip
    a6ae:	4321      	orrs	r1, r4
    a6b0:	ebb8 0406 	subs.w	r4, r8, r6
    a6b4:	eb69 0507 	sbc.w	r5, r9, r7
    a6b8:	fa0b f003 	lsl.w	r0, fp, r3
    a6bc:	2b00      	cmp	r3, #0
    a6be:	d038      	beq.n	a732 <__divdi3+0x102>
    a6c0:	087f      	lsrs	r7, r7, #1
    a6c2:	ea4f 0636 	mov.w	r6, r6, rrx
    a6c6:	e009      	b.n	a6dc <__divdi3+0xac>
    a6c8:	1ba4      	subs	r4, r4, r6
    a6ca:	eb65 0507 	sbc.w	r5, r5, r7
    a6ce:	1924      	adds	r4, r4, r4
    a6d0:	416d      	adcs	r5, r5
    a6d2:	3401      	adds	r4, #1
    a6d4:	f145 0500 	adc.w	r5, r5, #0
    a6d8:	3b01      	subs	r3, #1
    a6da:	d007      	beq.n	a6ec <__divdi3+0xbc>
    a6dc:	42bd      	cmp	r5, r7
    a6de:	bf08      	it	eq
    a6e0:	42b4      	cmpeq	r4, r6
    a6e2:	d2f1      	bcs.n	a6c8 <__divdi3+0x98>
    a6e4:	1924      	adds	r4, r4, r4
    a6e6:	416d      	adcs	r5, r5
    a6e8:	3b01      	subs	r3, #1
    a6ea:	d1f7      	bne.n	a6dc <__divdi3+0xac>
    a6ec:	f1c2 0720 	rsb	r7, r2, #32
    a6f0:	fa24 f302 	lsr.w	r3, r4, r2
    a6f4:	fa05 f707 	lsl.w	r7, r5, r7
    a6f8:	f1a2 0620 	sub.w	r6, r2, #32
    a6fc:	433b      	orrs	r3, r7
    a6fe:	fa25 f606 	lsr.w	r6, r5, r6
    a702:	4333      	orrs	r3, r6
    a704:	fa25 fc02 	lsr.w	ip, r5, r2
    a708:	f1a2 0820 	sub.w	r8, r2, #32
    a70c:	1900      	adds	r0, r0, r4
    a70e:	fa0c f702 	lsl.w	r7, ip, r2
    a712:	fa03 f808 	lsl.w	r8, r3, r8
    a716:	f1c2 0c20 	rsb	ip, r2, #32
    a71a:	ea47 0708 	orr.w	r7, r7, r8
    a71e:	fa23 fc0c 	lsr.w	ip, r3, ip
    a722:	fa03 f602 	lsl.w	r6, r3, r2
    a726:	4169      	adcs	r1, r5
    a728:	ea47 070c 	orr.w	r7, r7, ip
    a72c:	1b80      	subs	r0, r0, r6
    a72e:	eb61 0107 	sbc.w	r1, r1, r7
    a732:	f11e 0200 	adds.w	r2, lr, #0
    a736:	f04f 0300 	mov.w	r3, #0
    a73a:	bf18      	it	ne
    a73c:	2201      	movne	r2, #1
    a73e:	4254      	negs	r4, r2
    a740:	eb63 0543 	sbc.w	r5, r3, r3, lsl #1
    a744:	4060      	eors	r0, r4
    a746:	4069      	eors	r1, r5
    a748:	1880      	adds	r0, r0, r2
    a74a:	4159      	adcs	r1, r3
    a74c:	e8bd 8ff0 	ldmia.w	sp!, {r4, r5, r6, r7, r8, r9, sl, fp, pc}
    a750:	fab8 f388 	clz	r3, r8
    a754:	3320      	adds	r3, #32
    a756:	e78d      	b.n	a674 <__divdi3+0x44>
    a758:	fab0 f380 	clz	r3, r0
    a75c:	f103 0220 	add.w	r2, r3, #32
    a760:	fab9 f389 	clz	r3, r9
    a764:	f1b9 0f00 	cmp.w	r9, #0
    a768:	d184      	bne.n	a674 <__divdi3+0x44>
    a76a:	e7f1      	b.n	a750 <__divdi3+0x120>
    a76c:	4250      	negs	r0, r2
    a76e:	ea6f 0e0e 	mvn.w	lr, lr
    a772:	eb63 0143 	sbc.w	r1, r3, r3, lsl #1
    a776:	e76b      	b.n	a650 <__divdi3+0x20>
    a778:	f1d0 0800 	rsbs	r8, r0, #0
    a77c:	f04f 3eff 	mov.w	lr, #4294967295
    a780:	eb61 0941 	sbc.w	r9, r1, r1, lsl #1
    a784:	e75e      	b.n	a644 <__divdi3+0x14>
    a786:	bf00      	nop

0000a788 <__udivdi3>:
    a788:	4299      	cmp	r1, r3
    a78a:	bf08      	it	eq
    a78c:	4290      	cmpeq	r0, r2
    a78e:	e92d 43f0 	stmdb	sp!, {r4, r5, r6, r7, r8, r9, lr}
    a792:	4680      	mov	r8, r0
    a794:	4689      	mov	r9, r1
    a796:	bf3c      	itt	cc
    a798:	2600      	movcc	r6, #0
    a79a:	2700      	movcc	r7, #0
    a79c:	d36a      	bcc.n	a874 <__udivdi3+0xec>
    a79e:	fab3 f083 	clz	r0, r3
    a7a2:	2b00      	cmp	r3, #0
    a7a4:	d073      	beq.n	a88e <__udivdi3+0x106>
    a7a6:	fab9 f189 	clz	r1, r9
    a7aa:	f1b9 0f00 	cmp.w	r9, #0
    a7ae:	d06a      	beq.n	a886 <__udivdi3+0xfe>
    a7b0:	1a41      	subs	r1, r0, r1
    a7b2:	f1a1 0020 	sub.w	r0, r1, #32
    a7b6:	fa03 f501 	lsl.w	r5, r3, r1
    a7ba:	fa02 f600 	lsl.w	r6, r2, r0
    a7be:	f1c1 0320 	rsb	r3, r1, #32
    a7c2:	4335      	orrs	r5, r6
    a7c4:	fa22 f603 	lsr.w	r6, r2, r3
    a7c8:	4335      	orrs	r5, r6
    a7ca:	fa02 f401 	lsl.w	r4, r2, r1
    a7ce:	45a9      	cmp	r9, r5
    a7d0:	468e      	mov	lr, r1
    a7d2:	bf08      	it	eq
    a7d4:	45a0      	cmpeq	r8, r4
    a7d6:	d351      	bcc.n	a87c <__udivdi3+0xf4>
    a7d8:	f04f 0c01 	mov.w	ip, #1
    a7dc:	ebb8 0204 	subs.w	r2, r8, r4
    a7e0:	fa2c f303 	lsr.w	r3, ip, r3
    a7e4:	fa0c f700 	lsl.w	r7, ip, r0
    a7e8:	ea47 0703 	orr.w	r7, r7, r3
    a7ec:	fa0c f601 	lsl.w	r6, ip, r1
    a7f0:	eb69 0305 	sbc.w	r3, r9, r5
    a7f4:	2900      	cmp	r1, #0
    a7f6:	d03d      	beq.n	a874 <__udivdi3+0xec>
    a7f8:	086d      	lsrs	r5, r5, #1
    a7fa:	ea4f 0434 	mov.w	r4, r4, rrx
    a7fe:	e009      	b.n	a814 <__udivdi3+0x8c>
    a800:	1b12      	subs	r2, r2, r4
    a802:	eb63 0305 	sbc.w	r3, r3, r5
    a806:	1892      	adds	r2, r2, r2
    a808:	415b      	adcs	r3, r3
    a80a:	3201      	adds	r2, #1
    a80c:	f143 0300 	adc.w	r3, r3, #0
    a810:	3901      	subs	r1, #1
    a812:	d007      	beq.n	a824 <__udivdi3+0x9c>
    a814:	42ab      	cmp	r3, r5
    a816:	bf08      	it	eq
    a818:	42a2      	cmpeq	r2, r4
    a81a:	d2f1      	bcs.n	a800 <__udivdi3+0x78>
    a81c:	1892      	adds	r2, r2, r2
    a81e:	415b      	adcs	r3, r3
    a820:	3901      	subs	r1, #1
    a822:	d1f7      	bne.n	a814 <__udivdi3+0x8c>
    a824:	f1ce 0020 	rsb	r0, lr, #32
    a828:	fa22 fc0e 	lsr.w	ip, r2, lr
    a82c:	fa03 f000 	lsl.w	r0, r3, r0
    a830:	f1ae 0120 	sub.w	r1, lr, #32
    a834:	ea4c 0c00 	orr.w	ip, ip, r0
    a838:	fa23 f101 	lsr.w	r1, r3, r1
    a83c:	ea4c 0c01 	orr.w	ip, ip, r1
    a840:	fa23 f00e 	lsr.w	r0, r3, lr
    a844:	f1ae 0120 	sub.w	r1, lr, #32
    a848:	f1ce 0820 	rsb	r8, lr, #32
    a84c:	fa00 f50e 	lsl.w	r5, r0, lr
    a850:	fa0c f101 	lsl.w	r1, ip, r1
    a854:	1990      	adds	r0, r2, r6
    a856:	ea45 0501 	orr.w	r5, r5, r1
    a85a:	fa2c f808 	lsr.w	r8, ip, r8
    a85e:	fa0c f40e 	lsl.w	r4, ip, lr
    a862:	eb43 0107 	adc.w	r1, r3, r7
    a866:	ea45 0508 	orr.w	r5, r5, r8
    a86a:	1b00      	subs	r0, r0, r4
    a86c:	eb61 0105 	sbc.w	r1, r1, r5
    a870:	4606      	mov	r6, r0
    a872:	460f      	mov	r7, r1
    a874:	4630      	mov	r0, r6
    a876:	4639      	mov	r1, r7
    a878:	e8bd 83f0 	ldmia.w	sp!, {r4, r5, r6, r7, r8, r9, pc}
    a87c:	4642      	mov	r2, r8
    a87e:	464b      	mov	r3, r9
    a880:	2600      	movs	r6, #0
    a882:	2700      	movs	r7, #0
    a884:	e7b6      	b.n	a7f4 <__udivdi3+0x6c>
    a886:	fab8 f188 	clz	r1, r8
    a88a:	3120      	adds	r1, #32
    a88c:	e790      	b.n	a7b0 <__udivdi3+0x28>
    a88e:	fab2 f182 	clz	r1, r2
    a892:	f101 0020 	add.w	r0, r1, #32
    a896:	fab9 f189 	clz	r1, r9
    a89a:	f1b9 0f00 	cmp.w	r9, #0
    a89e:	d187      	bne.n	a7b0 <__udivdi3+0x28>
    a8a0:	e7f1      	b.n	a886 <__udivdi3+0xfe>
    a8a2:	bf00      	nop
